
Dekrispator.elf:     file format elf32-littlearm
Dekrispator.elf
architecture: arm, flags 0x00000112:
EXEC_P, HAS_SYMS, D_PAGED
start address 0x08000189

Program Header:
    LOAD off    0x00008000 vaddr 0x08000000 paddr 0x08000000 align 2**15
         filesz 0x0000daea memsz 0x0000daea flags r-x
    LOAD off    0x00018000 vaddr 0x20000000 paddr 0x0800daec align 2**15
         filesz 0x000004dc memsz 0x00015b40 flags rw-
    LOAD off    0x00020000 vaddr 0x10000000 paddr 0x10000000 align 2**15
         filesz 0x00000000 memsz 0x00002e3c flags rw-
private flags = 5000002: [Version5 EABI] [has entry point]

Sections:
Idx Name          Size      VMA       LMA       File off  Algn  Flags
  0 .ccm          00002e3c  10000000  10000000  00020000  2**2  ALLOC
  1 .text         0000daea  08000000  08000000  00008000  2**3  CONTENTS, ALLOC, LOAD, READONLY, CODE
  2 .data         000004dc  20000000  0800daec  00018000  2**3  CONTENTS, ALLOC, LOAD, DATA
  3 .bss          00014e64  200004dc  0800dfc8  000184dc  2**2  ALLOC
  4 .co_stack     00000800  20015340  08022e2c  000184dc  2**2  ALLOC
  5 .comment      00000070  00000000  00000000  000184dc  2**0  CONTENTS, READONLY
  6 .ARM.attributes 00000037  00000000  00000000  0001854c  2**0  CONTENTS, READONLY
  7 .debug_frame  00000378  00000000  00000000  00018584  2**2  CONTENTS, READONLY, DEBUGGING
SYMBOL TABLE:
10000000 l    d  .ccm	00000000 .ccm
08000000 l    d  .text	00000000 .text
20000000 l    d  .data	00000000 .data
200004dc l    d  .bss	00000000 .bss
20015340 l    d  .co_stack	00000000 .co_stack
00000000 l    d  .comment	00000000 .comment
00000000 l    d  .ARM.attributes	00000000 .ARM.attributes
00000000 l    d  .debug_frame	00000000 .debug_frame
00000000 l    df *ABS*	00000000 ccfg2RuJ.ltrans7.o
08009188 l     F .text	0000004e USB_OTG_USBH_handle_IncompletePeriodicXfer_ISR.8141.4166
080091d8 l     F .text	000001cc USB_OTG_USBH_handle_rx_qlvl_ISR.8138.4169
080093a4 l     F .text	00000a48 USB_OTG_USBH_handle_hc_n_In_ISR.8131.4183
08009dec l     F .text	0000008e USB_OTG_USBH_handle_hc_ISR.8135.4177
08009e7c l     F .text	00000128 USBH_OTG_ISR_Handler.4013
08009fa4 l     F .text	0000000c OTG_FS_IRQHandler.4010
20015340 l     O .co_stack	00000800 pulStack.4322
00000000 l    df *ABS*	00000000 ccfg2RuJ.ltrans0.o
200004dc l     O .bss	00000001 prev_itf.8502.9666.5291
20000004 l     O .data	00000010 MIDI_cb.5296
20000524 l     O .bss	00000001 OutputDev.5323
20000526 l     O .bss	00000002 timeout.8539.8738.5290
20000528 l     O .bss	00000002 prev_ep_size.8501.9667.5292
20000018 l     O .data	00000004 AudioTotalSize.5243
2000001c l     O .data	00000010 APBAHBPrescTable.10569.5324
20000030 l     O .data	00000004 SystemCoreClock.5244
20014aec l     O .bss	00000200 USBH_CfgDesc.5293
20000034 l     O .data	00000048 USR_Callbacks.5297
00000000 l    df *ABS*	00000000 ccfg2RuJ.ltrans1.o
0800d510 l     O .text	000001ac notesFreq.4283
10002e38 l     O .ccm	00000004 f0.7212.4274
20014d20 l     O .bss	00000004 old_dy.5984.4231
00000000 l    df *ABS*	00000000 ccfg2RuJ.ltrans2.o
080048f0 l     F .text	000000f8 delay_read.4604
080057b4 l     F .text	00000002 Default_Handler.5167.4624
20014d24 l     O .bss	00000001 DebouncedKeyPress.4857.4777
0800d6bc l     O .text	00000010 GPIO_CLK.4836
2000007c l     O .data	00000001 Count.4859.4779
20014d28 l     O .bss	00000004 TimingDelay.7233.4809
20014d2c l     O .bss	00000001 Key_changed.4860.4780
20014d30 l     O .bss	00000004 TimingDelay1.7234.4810
20014d34 l     O .bss	00000001 Key_pressed.4861.4781
00000000 l    df *ABS*	00000000 ccfg2RuJ.ltrans3.o
20000094 l     O .data	00000001 volume.5809.4699
00000000 l    df *ABS*	00000000 ccfg2RuJ.ltrans4.o
00000000 l    df *ABS*	00000000 ccfg2RuJ.ltrans5.o
2000009c l     O .data	00000004 CODECTimeout.4359
00000000 l    df *ABS*	00000000 ccfg2RuJ.ltrans6.o
0800d6d4 l     O .text	00000004 USBH_HCD_INT_fops.4224
08009014 l     F .text	00000168 Default_Reset_Handler.4199
08009038 l     F .text	00000000 zero_loop
200000a0 l     O .data	0000000c USBH_HCD_INT_cb.4230
00000000 l    df *ABS*	00000000 ccfg2RuJ.ltrans8.o
00000000 l    df *ABS*	00000000 lib_a-memcpy.o
00000000 l    df *ABS*	00000000 memset.c
00000000 l    df *ABS*	00000000 sf_fabs.c
00000000 l    df *ABS*	00000000 sf_floor.c
00000000 l    df *ABS*	00000000 sf_lrint.c
0800d6d8 l     O .text	00000008 TWO23
00000000 l    df *ABS*	00000000 sf_rint.c
0800d6e0 l     O .text	00000008 TWO23
00000000 l    df *ABS*	00000000 sf_sin.c
00000000 l    df *ABS*	00000000 wf_pow.c
00000000 l    df *ABS*	00000000 ef_pow.c
0800d6f0 l     O .text	00000008 dp_h
0800d6f8 l     O .text	00000008 dp_l
0800d700 l     O .text	00000008 bp
00000000 l    df *ABS*	00000000 ef_rem_pio2.c
0800d708 l     O .text	00000080 npio2_hw
0800d788 l     O .text	00000318 two_over_pi
00000000 l    df *ABS*	00000000 ef_sqrt.c
00000000 l    df *ABS*	00000000 kf_cos.c
00000000 l    df *ABS*	00000000 kf_rem_pio2.c
0800daa0 l     O .text	0000000c init_jk
0800daac l     O .text	0000002c PIo2
00000000 l    df *ABS*	00000000 kf_sin.c
00000000 l    df *ABS*	00000000 s_matherr.c
00000000 l    df *ABS*	00000000 s_rint.c
0800dad8 l     O .text	00000010 TWO52
00000000 l    df *ABS*	00000000 sf_finite.c
00000000 l    df *ABS*	00000000 sf_fpclassify.c
00000000 l    df *ABS*	00000000 sf_nan.c
00000000 l    df *ABS*	00000000 sf_scalbn.c
00000000 l    df *ABS*	00000000 sf_copysign.c
00000000 l    df *ABS*	00000000 _arm_addsubdf3.o
00000000 l    df *ABS*	00000000 _arm_muldivdf3.o
00000000 l    df *ABS*	00000000 _arm_cmpdf2.o
00000000 l    df *ABS*	00000000 _arm_truncdfsf2.o
00000000 l    df *ABS*	00000000 rand.c
00000000 l    df *ABS*	00000000 impure.c
200000b0 l     O .data	00000428 impure_data
00000000 l    df *ABS*	00000000 s_lib_ver.c
00000000 l    df *ABS*	00000000 
0800daea l       .text	00000000 __exidx_end
0800daec l       .data	00000000 _etext
0800daea l       .text	00000000 __exidx_start
20020000 l       *ABS*	00000000 _eram
20015b40 l       .co_stack	00000000 _end
0800c458 l     F .text	00000010 ____errno_veneer
080057b4 g     F .text	00000002 .hidden RTC_Alarm_IRQHandler
080057b4 g     F .text	00000002 .hidden HASH_RNG_IRQHandler
080057b4 g     F .text	00000002 .hidden EXTI2_IRQHandler
08005204 g     F .text	00000050 .hidden STM_EVAL_LEDInit
0800c504 g     O .text	00000004 .hidden MIDIscale09
080057b4 g     F .text	00000002 .hidden TIM8_CC_IRQHandler
10002cec g     O .ccm	00000020 .hidden SVFilter2
0800c32c g     F .text	00000012 .hidden __aeabi_dcmple
080048d0 g     F .text	00000002 .hidden USBH_USR_Configuration_DescAvailable
0800c268 g     F .text	0000007a .hidden __cmpdf2
0800489c g     F .text	00000002 .hidden DebugMon_Handler
10002dac g     O .ccm	00000020 .hidden filt_lfo
0800c268 g     F .text	0000007a .hidden __eqdf2
080057b8 g     F .text	00001450 .hidden USBH_MIDI_Handle.4181
1000002c g     O .ccm	00000004 .hidden env.7180
0800c4dc g     O .text	0000000d .hidden MIDIscale12
20014cec g     O .bss	00000004 .hidden CurrentPos
20000080 g     O .data	00000004 .hidden fdb.5982
0800bdd8 g     F .text	0000005a .hidden __floatdidf
08004880 g     F .text	0000000a .hidden USBH_Disconnected
080048e8 g     F .text	00000002 .hidden USBH_USR_Init
080057b4 g     F .text	00000002 .hidden TIM1_CC_IRQHandler
080057b4 g     F .text	00000002 .hidden DMA2_Stream5_IRQHandler
080048e0 g     F .text	00000002 .hidden USBH_USR_ResetDevice
080048b0 g     F .text	00000002 .hidden HardFault_Handler
080057b4 g     F .text	00000002 .hidden DMA1_Stream5_IRQHandler
0800488c g     F .text	0000000a .hidden USBH_Connected
080047c0 g     F .text	00000010 .hidden USBH_USR_OverCurrentDetected
080046cc g     F .text	000000c4 .hidden SysTick_Handler
0800529c g     F .text	00000074 .hidden NVIC_Init
080057b4 g     F .text	00000002 .hidden PVD_IRQHandler
080057b4 g     F .text	00000002 .hidden SDIO_IRQHandler
080057b4 g     F .text	00000002 .hidden TAMP_STAMP_IRQHandler
0800daec g       .data	00000000 _sidata
08004898 g     F .text	00000002 .hidden PendSV_Handler
08008fe0 g     F .text	00000034 .hidden USB_OTG_USBH_handle_sof_ISR.7972
0800a4b8 g     F .text	00000348 powf
080048b4 g     F .text	00000002 .hidden NMI_Handler
080057b4 g     F .text	00000002 .hidden CAN2_RX1_IRQHandler
080057b4 g     F .text	00000002 .hidden EXTI3_IRQHandler
080048cc g     F .text	00000002 .hidden USBH_USR_Manufacturer_String
0800c258 g     F .text	0000008a .hidden __gtdf2
2001533c g     O .bss	00000004 __errno
200004e0 g     O .bss	00000004 .hidden shift.5977
0800adc8 g     F .text	0000028c __ieee754_rem_pio2f
080057b4 g     F .text	00000002 .hidden TIM8_TRG_COM_TIM14_IRQHandler
080057b4 g     F .text	00000002 .hidden TIM1_UP_TIM10_IRQHandler
0800c4ec g     O .text	00000002 .hidden MIDIscale13
08007f00 g     F .text	00000b3c .hidden USB_OTG_USBH_handle_hc_n_Out_ISR.8127
200004dc g       .bss	00000000 _sbss
0800c2f4 g     F .text	00000010 .hidden __aeabi_cdcmple
080057b4 g     F .text	00000002 .hidden TIM8_UP_TIM13_IRQHandler
080057b4 g     F .text	00000002 .hidden I2C3_ER_IRQHandler
10002d6c g     O .ccm	00000020 .hidden op4
080048d4 g     F .text	00000002 .hidden USBH_USR_DeviceAddressAssigned
10002e0c g     O .ccm	0000002c .hidden ph
10000038 g     O .ccm	0000002c .hidden d1
080053f4 g     F .text	00000270 .hidden USBH_MIDI_InterfaceInit.4189
10002d2c g     O .ccm	00000020 .hidden op2
0800a060 g     F .text	00000134 memcpy
0800c2e4 g     F .text	00000020 .hidden __aeabi_cdrcmple
0800bd68 g     F .text	00000022 .hidden __floatsidf
0800c260 g     F .text	00000082 .hidden __ltdf2
080057b4 g     F .text	00000002 .hidden EXTI0_IRQHandler
080057b4 g     F .text	00000002 .hidden I2C2_EV_IRQHandler
20014d1c g     O .bss	00000004 .hidden writepos.5979
080057b4 g     F .text	00000002 .hidden DMA1_Stream2_IRQHandler
080057b4 g     F .text	00000002 .hidden CAN1_RX0_IRQHandler
2000002c g     O .data	00000004 .hidden AudioRemSize
0800484c g     F .text	00000010 .hidden USBH_USR_DeviceNotSupported
080057b4 g     F .text	00000002 .hidden FPU_IRQHandler
080057b4 g     F .text	00000002 .hidden OTG_HS_WKUP_IRQHandler
0800c508 g     O .text	00000003 .hidden MIDIscale08
08005310 g     F .text	000000e4 .hidden USB_OTG_HC_Init
080048a4 g     F .text	00000002 .hidden UsageFault_Handler
080057b4 g     F .text	00000002 .hidden CAN2_SCE_IRQHandler
080057b4 g     F .text	00000002 .hidden DMA2_Stream2_IRQHandler
0800c4f0 g     O .text	00000008 .hidden MIDIscale11
08005144 g     F .text	000000c0 .hidden GPIO_Init
0800b990 g     F .text	00000038 __fpclassifyf
0800bd48 g     F .text	0000001e .hidden __aeabi_ui2d
0800d6cc g     O .text	00000008 .hidden GPIO_PIN
20000000 g       .data	00000000 _sdata
080057b4 g     F .text	00000002 .hidden SPI1_IRQHandler
0800bac4 g     F .text	00000000 .hidden __aeabi_drsub
0800b97c g     F .text	00000014 finitef
0800c470 g     O .text	00000003 .hidden MIDIscale14
080057b4 g     F .text	00000002 .hidden TIM6_DAC_IRQHandler
0800a228 g     F .text	0000000e fabsf
080057b4 g     F .text	00000002 .hidden TIM1_BRK_TIM9_IRQHandler
2000052c g     O .bss	00000010 .hidden noteG
080057b4 g     F .text	00000002 .hidden DCMI_IRQHandler
0800c318 g     F .text	00000012 .hidden __aeabi_dcmplt
080057b4 g     F .text	00000002 .hidden CAN2_RX0_IRQHandler
0800c474 g     O .text	0000003c .hidden CSWTCH.11.6911.6911
0800bd8c g     F .text	0000003a .hidden __extendsfdf2
0800c088 g     F .text	000001d0 .hidden __aeabi_ddiv
0800bad0 g     F .text	00000276 .hidden __adddf3
080048c0 g     F .text	00000004 .hidden USBH_USR_UserInput
20014d40 g     O .bss	00000050 .hidden MIDI_Machine
0800be34 g     F .text	00000254 .hidden __aeabi_dmul
080057b4 g     F .text	00000002 .hidden DMA2_Stream3_IRQHandler
200000ac g     O .data	00000001 __fdlib_version
20014d90 g     O .bss	000005ac .hidden USB_OTG_Core_dev
0800b7c8 g     F .text	00000090 __kernel_sinf
08004f74 g     F .text	00000134 .hidden USB_OTG_HC_StartXfer.constprop.106
0800bd48 g     F .text	0000001e .hidden __floatunsidf
10002dec g     O .ccm	00000020 .hidden amp_lfo
0800c4c0 g     O .text	00000006 .hidden MIDIscale01
080057b4 g     F .text	00000002 .hidden USART6_IRQHandler
08005134 g     F .text	00000010 .hidden RCC_APB1PeriphResetCmd.part.8.10357
080048b8 g     F .text	00000004 .hidden USBH_USR_MIDI_Application
20014d38 g     O .bss	00000004 .hidden BlueLED_counter
08008be4 g     F .text	000001e2 .hidden USB_OTG_USBH_handle_ptxfempty_ISR.8121
0800c368 g     F .text	0000009e .hidden __aeabi_d2f
080057b4 g     F .text	00000002 .hidden USART3_IRQHandler
080057b4 g     F .text	00000002 .hidden CRYP_IRQHandler
20015340 g       .bss	00000000 _ebss
0800b85c g     F .text	00000120 rint
20014cf0 g     O .bss	00000004 .hidden filterFreq
08009014  w    F .text	00000168 Reset_Handler
080047a0 g     F .text	00000010 .hidden USBH_USR_UnrecoveredError
080057b4 g     F .text	00000002 .hidden CAN1_RX1_IRQHandler
08004790 g     F .text	00000010 .hidden USBH_USR_DeviceDisconnected
080057b4 g     F .text	00000002 .hidden UART5_IRQHandler
0800b0f8 g     F .text	00000104 __kernel_cosf
10002ccc g     O .ccm	00000020 .hidden SVFilter
080057b4 g     F .text	00000002 .hidden DMA2_Stream0_IRQHandler
10000035 g     O .ccm	00000001 .hidden autoFilterON.7178
0800a2d8 g     F .text	00000094 lrintf
080057b4 g     F .text	00000002 .hidden TIM4_IRQHandler
0800bad0 g     F .text	00000276 .hidden __aeabi_dadd
0800c260 g     F .text	00000082 .hidden __ledf2
08007ba8 g     F .text	00000358 .hidden Codec_WriteRegister.4974
0800bdc8 g     F .text	0000006a .hidden __aeabi_ul2d
0800c4c8 g     O .text	00000007 .hidden MIDIscale03
080057b4 g     F .text	00000002 .hidden I2C1_EV_IRQHandler
080048c8 g     F .text	00000002 .hidden USBH_USR_Product_String
080057b4 g     F .text	00000002 .hidden DMA1_Stream6_IRQHandler
200005a8 g     O .bss	00000c80 .hidden audiobuff
0800c50c g     O .text	00001004 .hidden sinetable
080048c4 g     F .text	00000002 .hidden USBH_USR_SerialNum_String
0800c354 g     F .text	00000012 .hidden __aeabi_dcmpgt
080057b4 g     F .text	00000002 .hidden DMA1_Stream1_IRQHandler
080057b4 g     F .text	00000002 .hidden UART4_IRQHandler
20000084 g     O .data	00000010 .hidden GPIO_PORT
080057b4 g     F .text	00000002 .hidden TIM3_IRQHandler
080057b4 g     F .text	00000002 .hidden RCC_IRQHandler
0800c340 g     F .text	00000012 .hidden __aeabi_dcmpge
20000000 g     O .data	00000001 .hidden demoMode
080057b4 g     F .text	00000002 .hidden TIM8_BRK_TIM12_IRQHandler
10000030 g     O .ccm	00000004 .hidden vol.7181
10002d0c g     O .ccm	00000020 .hidden op1
0800bacc g     F .text	0000027a .hidden __aeabi_dsub
200004ec g     O .bss	00000004 .hidden BSP_delay
10002cbc g     O .ccm	00000010 .hidden lfoR.5934
0800bdc8 g     F .text	0000006a .hidden __floatundidf
0800c418 g     F .text	00000040 rand
080057b4 g     F .text	00000002 .hidden EXTI15_10_IRQHandler
080057b4 g     F .text	00000002 .hidden ADC_IRQHandler
20001228 g     O .bss	00013888 .hidden delayline.5980
10002cac g     O .ccm	00000010 .hidden lfoL.5936
20000014 g     O .data	00000004 .hidden CurrAudioInterface
0800c468 g     O .text	00000005 .hidden MIDIscale04
08004af8 g     F .text	00000090 .hidden BSP_Delay.4435
0800c500 g     O .text	00000003 .hidden MIDIscale07
0800a008 g     F .text	00000058 .hidden DMA1_Stream7_IRQHandler
080048e4 g     F .text	00000002 .hidden USBH_USR_DeviceAttached
20014cf4 g     O .bss	00000028 .hidden adsr
10000064 g     O .ccm	0000002c .hidden d2
080057b4 g     F .text	00000002 .hidden TIM7_IRQHandler
0800c4d0 g     O .text	00000008 .hidden MIDIscale06
080057b4 g     F .text	00000002 .hidden CAN2_TX_IRQHandler
0800bd68 g     F .text	00000022 .hidden __aeabi_i2d
080057b4 g     F .text	00000002 .hidden TIM5_IRQHandler
080057b4 g     F .text	00000002 .hidden DMA2_Stream7_IRQHandler
080057b4 g     F .text	00000002 .hidden I2C3_EV_IRQHandler
10002dcc g     O .ccm	00000020 .hidden filt2_lfo
080047b0 g     F .text	00000010 .hidden USBH_USR_EnumerationDone
080057b4 g     F .text	00000002 .hidden EXTI9_5_IRQHandler
0800c088 g     F .text	000001d0 .hidden __divdf3
08004dcc g     F .text	00000098 .hidden drifter_newSegment
080057b4 g     F .text	00000002 .hidden RTC_WKUP_IRQHandler
0800be34 g     F .text	00000254 .hidden __muldf3
0800a800 g     F .text	000005c8 __ieee754_powf
08007900 g     F .text	000002a8 .hidden MagicFX.part.0.6384
080057b4 g     F .text	00000002 .hidden ETH_WKUP_IRQHandler
0800b9d4 g     F .text	000000d8 scalbnf
20014d3d g     O .bss	00000001 .hidden start_toggle
080057b4 g     F .text	00000002 .hidden SPI2_IRQHandler
100000bc g     O .ccm	000015f8 .hidden delL.5935
080057b4 g     F .text	00000002 .hidden OTG_HS_EP1_IN_IRQHandler
0800a194 g     F .text	00000094 memset
0800b054 g     F .text	000000a2 __ieee754_sqrtf
080048ac g     F .text	00000002 .hidden MemManage_Handler
08000188 g     F .text	00002330 main
08009fb0 g     F .text	00000058 .hidden DMA1_Stream0_IRQHandler
0800c408 g     F .text	00000010 srand
080057b4 g     F .text	00000002 .hidden CAN1_TX_IRQHandler
080048a0 g     F .text	00000002 .hidden SVC_Handler
0800b858 g     F .text	00000004 matherr
0800c4b0 g     O .text	00000007 .hidden MIDIscale02
0800c368 g     F .text	0000009e .hidden __truncdfsf2
200004f0 g     O .bss	00000034 .hidden seq
0800bdd8 g     F .text	0000005a .hidden __aeabi_l2d
0800c4b8 g     O .text	00000007 .hidden MIDIscale05
080057b4 g     F .text	00000002 .hidden EXTI4_IRQHandler
08006c08 g     F .text	00000c2c .hidden MagicPatch.part.1.6386
10002d8c g     O .ccm	00000020 .hidden vibr_lfo
08005254 g     F .text	00000048 .hidden USB_OTG_BSP_ConfigVBUS
0800c268 g     F .text	0000007a .hidden __nedf2
0800baac g     F .text	00000018 copysignf
08008a3c g     F .text	000001a8 .hidden USB_OTG_USBH_handle_port_ISR.8124
200004e8 g     O .bss	00000004 .hidden readpos.5981
080048d8 g     F .text	00000002 .hidden USBH_USR_Device_DescAvailable
200004e4 g     O .bss	00000004 .hidden filterFreq2
10002d4c g     O .ccm	00000020 .hidden op3
080057b4 g     F .text	00000002 .hidden FSMC_IRQHandler
080057b4 g     F .text	00000002 .hidden ETH_IRQHandler
0800b9c8 g     F .text	0000000c nanf
200004d8 g     O .data	00000004 _impure_ptr
08008fac g     F .text	00000034 .hidden USB_OTG_USBH_handle_Disconnect_ISR.8115
080057b4 g     F .text	00000002 .hidden OTG_HS_EP1_OUT_IRQHandler
0800487c g     F .text	00000004 .hidden USBH_SOF
20000098 g     O .data	00000004 .hidden centralFreq
080057b4 g     F .text	00000002 .hidden WWDG_IRQHandler
0800c4f8 g     O .text	00000005 .hidden MIDIscale10
08004810 g     F .text	0000003c .hidden TIM2_IRQHandler
0800a43c g     F .text	0000007c sinf
08004f1c g     F .text	00000058 .hidden USB_OTG_CoreReset.7279.constprop.10
080057b4 g     F .text	00000002 .hidden OTG_FS_WKUP_IRQHandler
080057b4 g     F .text	00000002 .hidden TIM1_TRG_COM_TIM11_IRQHandler
080057b4 g     F .text	00000002 .hidden OTG_HS_IRQHandler
08007834 g     F .text	000000cc .hidden USBH_MIDI_InterfaceDeInit.4173
0800485c g     F .text	00000020 .hidden EXTI1_IRQHandler
0800c304 g     F .text	00000012 .hidden __aeabi_dcmpeq
200004dc g       .data	00000000 _edata
10000037 g     O .ccm	00000001 .hidden delayON.7177
080048ec g     F .text	00000004 .hidden USBH_MIDI_ClassRequest.4167
080050a8 g     F .text	0000008c .hidden DMA_Init.constprop.46
080057b4 g     F .text	00000002 .hidden USART2_IRQHandler
10000000 g     O .ccm	0000002c .hidden a
08000000 g     O .text	00000188 g_pfnVectors
08005664 g     F .text	00000150 .hidden mono_chorus_compute
080057b4 g     F .text	00000002 .hidden I2C2_ER_IRQHandler
2000053c g     O .bss	0000006c .hidden USB_Host
080057b4 g     F .text	00000002 .hidden DMA2_Stream1_IRQHandler
080057b4 g     F .text	00000002 .hidden CAN1_SCE_IRQHandler
080057b4 g     F .text	00000002 .hidden FLASH_IRQHandler
0800b1fc g     F .text	000005cc __kernel_rem_pio2f
20014d3c g     O .bss	00000001 .hidden freeze
20014ab0 g     O .bss	0000003c .hidden DMA_InitStructure
080057b4 g     F .text	00000002 .hidden DMA2_Stream4_IRQHandler
080048a8 g     F .text	00000002 .hidden BusFault_Handler
080057b4 g     F .text	00000002 .hidden USART1_IRQHandler
0800a36c g     F .text	000000d0 rintf
080047d0 g     F .text	00000040 .hidden SPI3_IRQHandler
080048dc g     F .text	00000002 .hidden USBH_USR_DeviceSpeedDetected
0800c2f4 g     F .text	00000010 .hidden __aeabi_cdcmpeq
0800c258 g     F .text	0000008a .hidden __gedf2
080057b4 g     F .text	00000002 .hidden DMA1_Stream4_IRQHandler
10000034 g     O .ccm	00000001 .hidden sound.7175
080057b4 g     F .text	00000002 .hidden I2C1_ER_IRQHandler
0800a238 g     F .text	000000a0 floorf
0800bd8c g     F .text	0000003a .hidden __aeabi_f2d
0800bacc g     F .text	0000027a .hidden __subdf3
08004e64 g     F .text	000000b8 .hidden seq_sequence_new
08004b88 g     F .text	00000244 .hidden SVF_calcSample
10000036 g     O .ccm	00000001 .hidden chorusON.7179
080057b4 g     F .text	00000002 .hidden DMA2_Stream6_IRQHandler
08008dc8 g     F .text	000001e2 .hidden USB_OTG_USBH_handle_nptxfempty_ISR.8118
080049e8 g     F .text	00000110 .hidden USB_OTG_ResetPort
080048bc g     F .text	00000002 .hidden USBH_USR_DeInit
080024b8 g     F .text	00002214 .hidden make_sound.constprop.52
10000090 g     O .ccm	0000002c .hidden d3
080057b4 g     F .text	00000002 .hidden DMA1_Stream3_IRQHandler
100016b4 g     O .ccm	000015f8 .hidden delR.5932



Disassembly of section .text:

08000000 <g_pfnVectors>:
$d():
 8000000:	3c 5b 01 20 15 90 00 08 b5 48 00 08 b1 48 00 08     <[. .....H...H..
 8000010:	ad 48 00 08 a9 48 00 08 a5 48 00 08 00 00 00 00     .H...H...H......
	...
 800002c:	a1 48 00 08 9d 48 00 08 00 00 00 00 99 48 00 08     .H...H.......H..
 800003c:	cd 46 00 08 b5 57 00 08 b5 57 00 08 b5 57 00 08     .F...W...W...W..
 800004c:	b5 57 00 08 b5 57 00 08 b5 57 00 08 b5 57 00 08     .W...W...W...W..
 800005c:	5d 48 00 08 b5 57 00 08 b5 57 00 08 b5 57 00 08     ]H...W...W...W..
 800006c:	b1 9f 00 08 b5 57 00 08 b5 57 00 08 b5 57 00 08     .....W...W...W..
 800007c:	b5 57 00 08 b5 57 00 08 b5 57 00 08 b5 57 00 08     .W...W...W...W..
 800008c:	b5 57 00 08 b5 57 00 08 b5 57 00 08 b5 57 00 08     .W...W...W...W..
 800009c:	b5 57 00 08 b5 57 00 08 b5 57 00 08 b5 57 00 08     .W...W...W...W..
 80000ac:	b5 57 00 08 11 48 00 08 b5 57 00 08 b5 57 00 08     .W...H...W...W..
 80000bc:	b5 57 00 08 b5 57 00 08 b5 57 00 08 b5 57 00 08     .W...W...W...W..
 80000cc:	b5 57 00 08 b5 57 00 08 b5 57 00 08 b5 57 00 08     .W...W...W...W..
 80000dc:	b5 57 00 08 b5 57 00 08 b5 57 00 08 b5 57 00 08     .W...W...W...W..
 80000ec:	b5 57 00 08 b5 57 00 08 b5 57 00 08 b5 57 00 08     .W...W...W...W..
 80000fc:	09 a0 00 08 b5 57 00 08 b5 57 00 08 b5 57 00 08     .....W...W...W..
 800010c:	d1 47 00 08 b5 57 00 08 b5 57 00 08 b5 57 00 08     .G...W...W...W..
 800011c:	b5 57 00 08 b5 57 00 08 b5 57 00 08 b5 57 00 08     .W...W...W...W..
 800012c:	b5 57 00 08 b5 57 00 08 b5 57 00 08 b5 57 00 08     .W...W...W...W..
 800013c:	b5 57 00 08 b5 57 00 08 b5 57 00 08 b5 57 00 08     .W...W...W...W..
 800014c:	a5 9f 00 08 b5 57 00 08 b5 57 00 08 b5 57 00 08     .....W...W...W..
 800015c:	b5 57 00 08 b5 57 00 08 b5 57 00 08 b5 57 00 08     .W...W...W...W..
 800016c:	b5 57 00 08 b5 57 00 08 b5 57 00 08 b5 57 00 08     .W...W...W...W..
 800017c:	b5 57 00 08 b5 57 00 08 b5 57 00 08                 .W...W...W..

08000188 <main>:
main():
 8000188:	e92d 4880 	stmdb	sp!, {r7, fp, lr}
 800018c:	2000      	movs	r0, #0
 800018e:	b0a5      	sub	sp, #148	; 0x94
 8000190:	f005 f838 	bl	8005204 <STM_EVAL_LEDInit>
 8000194:	2001      	movs	r0, #1
 8000196:	f005 f835 	bl	8005204 <STM_EVAL_LEDInit>
 800019a:	4cda      	ldr	r4, [pc, #872]	; (8000504 <main+0x37c>)
 800019c:	2002      	movs	r0, #2
 800019e:	f005 f831 	bl	8005204 <STM_EVAL_LEDInit>
 80001a2:	2003      	movs	r0, #3
 80001a4:	f005 f82e 	bl	8005204 <STM_EVAL_LEDInit>
 80001a8:	6b23      	ldr	r3, [r4, #48]	; 0x30
 80001aa:	48d7      	ldr	r0, [pc, #860]	; (8000508 <main+0x380>)
 80001ac:	f043 0301 	orr.w	r3, r3, #1
 80001b0:	6323      	str	r3, [r4, #48]	; 0x30
 80001b2:	6c62      	ldr	r2, [r4, #68]	; 0x44
 80001b4:	f10d 0b90 	add.w	fp, sp, #144	; 0x90
 80001b8:	f442 4280 	orr.w	r2, r2, #16384	; 0x4000
 80001bc:	2301      	movs	r3, #1
 80001be:	6462      	str	r2, [r4, #68]	; 0x44
 80001c0:	f84b 3d40 	str.w	r3, [fp, #-64]!
 80001c4:	2500      	movs	r5, #0
 80001c6:	4659      	mov	r1, fp
 80001c8:	f88d 5054 	strb.w	r5, [sp, #84]	; 0x54
 80001cc:	f88d 5057 	strb.w	r5, [sp, #87]	; 0x57
 80001d0:	f004 ffb8 	bl	8005144 <GPIO_Init>
 80001d4:	4acd      	ldr	r2, [pc, #820]	; (800050c <main+0x384>)
 80001d6:	4bce      	ldr	r3, [pc, #824]	; (8000510 <main+0x388>)
 80001d8:	6812      	ldr	r2, [r2, #0]
 80001da:	fba3 0202 	umull	r0, r2, r3, r2
 80001de:	0952      	lsrs	r2, r2, #5
 80001e0:	3a01      	subs	r2, #1
 80001e2:	f1b2 7f80 	cmp.w	r2, #16777216	; 0x1000000
 80001e6:	f080 84b2 	bcs.w	8000b4e <main+0x9c6>
 80001ea:	4bca      	ldr	r3, [pc, #808]	; (8000514 <main+0x38c>)
 80001ec:	49ca      	ldr	r1, [pc, #808]	; (8000518 <main+0x390>)
 80001ee:	605a      	str	r2, [r3, #4]
 80001f0:	20f0      	movs	r0, #240	; 0xf0
 80001f2:	2207      	movs	r2, #7
 80001f4:	f881 0023 	strb.w	r0, [r1, #35]	; 0x23
 80001f8:	609d      	str	r5, [r3, #8]
 80001fa:	601a      	str	r2, [r3, #0]
 80001fc:	6b62      	ldr	r2, [r4, #52]	; 0x34
 80001fe:	4bc7      	ldr	r3, [pc, #796]	; (800051c <main+0x394>)
 8000200:	f042 0240 	orr.w	r2, r2, #64	; 0x40
 8000204:	6362      	str	r2, [r4, #52]	; 0x34
 8000206:	681a      	ldr	r2, [r3, #0]
 8000208:	f042 0204 	orr.w	r2, r2, #4
 800020c:	601a      	str	r2, [r3, #0]
 800020e:	6859      	ldr	r1, [r3, #4]
 8000210:	4ac2      	ldr	r2, [pc, #776]	; (800051c <main+0x394>)
 8000212:	07c9      	lsls	r1, r1, #31
 8000214:	d5fb      	bpl.n	800020e <main+0x86>
 8000216:	6890      	ldr	r0, [r2, #8]
 8000218:	4ec1      	ldr	r6, [pc, #772]	; (8000520 <main+0x398>)
 800021a:	f8df a368 	ldr.w	sl, [pc, #872]	; 8000584 <main+0x3fc>
 800021e:	f8df 9368 	ldr.w	r9, [pc, #872]	; 8000588 <main+0x400>
 8000222:	4cc0      	ldr	r4, [pc, #768]	; (8000524 <main+0x39c>)
 8000224:	eddf 8ac0 	vldr	s17, [pc, #768]	; 8000528 <main+0x3a0>
 8000228:	eddf 9ac0 	vldr	s19, [pc, #768]	; 800052c <main+0x3a4>
 800022c:	ed9f 9ac0 	vldr	s18, [pc, #768]	; 8000530 <main+0x3a8>
 8000230:	f00c f8ea 	bl	800c408 <srand>
 8000234:	49bf      	ldr	r1, [pc, #764]	; (8000534 <main+0x3ac>)
 8000236:	4ac0      	ldr	r2, [pc, #768]	; (8000538 <main+0x3b0>)
 8000238:	4bc0      	ldr	r3, [pc, #768]	; (800053c <main+0x3b4>)
 800023a:	f8c6 a040 	str.w	sl, [r6, #64]	; 0x40
 800023e:	f243 2ec8 	movw	lr, #13000	; 0x32c8
 8000242:	f8c1 e000 	str.w	lr, [r1]
 8000246:	49be      	ldr	r1, [pc, #760]	; (8000540 <main+0x3b8>)
 8000248:	6011      	str	r1, [r2, #0]
 800024a:	2500      	movs	r5, #0
 800024c:	2700      	movs	r7, #0
 800024e:	f04f 587e 	mov.w	r8, #1065353216	; 0x3f800000
 8000252:	4abc      	ldr	r2, [pc, #752]	; (8000544 <main+0x3bc>)
 8000254:	601a      	str	r2, [r3, #0]
 8000256:	eeb1 8a00 	vmov.f32	s16, #16
 800025a:	eeb0 aa00 	vmov.f32	s20, #0
 800025e:	f106 0038 	add.w	r0, r6, #56	; 0x38
 8000262:	f8c6 802c 	str.w	r8, [r6, #44]	; 0x2c
 8000266:	f8c6 8030 	str.w	r8, [r6, #48]	; 0x30
 800026a:	f886 7034 	strb.w	r7, [r6, #52]	; 0x34
 800026e:	f886 7035 	strb.w	r7, [r6, #53]	; 0x35
 8000272:	f886 7036 	strb.w	r7, [r6, #54]	; 0x36
 8000276:	f886 7037 	strb.w	r7, [r6, #55]	; 0x37
 800027a:	ed86 8a0e 	vstr	s16, [r6, #56]	; 0x38
 800027e:	65b5      	str	r5, [r6, #88]	; 0x58
 8000280:	ed86 aa0f 	vstr	s20, [r6, #60]	; 0x3c
 8000284:	f004 fda2 	bl	8004dcc <drifter_newSegment>
 8000288:	f106 0064 	add.w	r0, r6, #100	; 0x64
 800028c:	ed86 8a19 	vstr	s16, [r6, #100]	; 0x64
 8000290:	f8c6 a06c 	str.w	sl, [r6, #108]	; 0x6c
 8000294:	f8c6 5084 	str.w	r5, [r6, #132]	; 0x84
 8000298:	ed86 aa1a 	vstr	s20, [r6, #104]	; 0x68
 800029c:	f004 fd96 	bl	8004dcc <drifter_newSegment>
 80002a0:	f106 0090 	add.w	r0, r6, #144	; 0x90
 80002a4:	ed86 8a24 	vstr	s16, [r6, #144]	; 0x90
 80002a8:	f8c6 a098 	str.w	sl, [r6, #152]	; 0x98
 80002ac:	f8c6 50b0 	str.w	r5, [r6, #176]	; 0xb0
 80002b0:	ed86 aa25 	vstr	s20, [r6, #148]	; 0x94
 80002b4:	f004 fd8a 	bl	8004dcc <drifter_newSegment>
 80002b8:	ed9f 0aa3 	vldr	s0, [pc, #652]	; 8000548 <main+0x3c0>
 80002bc:	4ba3      	ldr	r3, [pc, #652]	; (800054c <main+0x3c4>)
 80002be:	f8c9 3020 	str.w	r3, [r9, #32]
 80002c2:	f00a f809 	bl	800a2d8 <lrintf>
 80002c6:	ee07 0a10 	vmov	s14, r0
 80002ca:	eef8 7ac7 	vcvt.f32.s32	s15, s14
 80002ce:	eeb6 8a00 	vmov.f32	s16, #96	; 0x60
 80002d2:	ee67 7a88 	vmul.f32	s15, s15, s16
 80002d6:	4b9e      	ldr	r3, [pc, #632]	; (8000550 <main+0x3c8>)
 80002d8:	4a9e      	ldr	r2, [pc, #632]	; (8000554 <main+0x3cc>)
 80002da:	f8c9 0024 	str.w	r0, [r9, #36]	; 0x24
 80002de:	eefc 7ae7 	vcvt.u32.f32	s15, s15
 80002e2:	2004      	movs	r0, #4
 80002e4:	2124      	movs	r1, #36	; 0x24
 80002e6:	f8c9 7028 	str.w	r7, [r9, #40]	; 0x28
 80002ea:	f889 702c 	strb.w	r7, [r9, #44]	; 0x2c
 80002ee:	edc9 7a0c 	vstr	s15, [r9, #48]	; 0x30
 80002f2:	729f      	strb	r7, [r3, #10]
 80002f4:	72df      	strb	r7, [r3, #11]
 80002f6:	731f      	strb	r7, [r3, #12]
 80002f8:	735f      	strb	r7, [r3, #13]
 80002fa:	739f      	strb	r7, [r3, #14]
 80002fc:	701f      	strb	r7, [r3, #0]
 80002fe:	7218      	strb	r0, [r3, #8]
 8000300:	7259      	strb	r1, [r3, #9]
 8000302:	605a      	str	r2, [r3, #4]
 8000304:	f004 fdae 	bl	8004e64 <seq_sequence_new>
 8000308:	f241 6eb0 	movw	lr, #5808	; 0x16b0
 800030c:	f04f 0901 	mov.w	r9, #1
 8000310:	4a91      	ldr	r2, [pc, #580]	; (8000558 <main+0x3d0>)
 8000312:	f806 900e 	strb.w	r9, [r6, lr]
 8000316:	f641 3eb0 	movw	lr, #7088	; 0x1bb0
 800031a:	4890      	ldr	r0, [pc, #576]	; (800055c <main+0x3d4>)
 800031c:	f802 900e 	strb.w	r9, [r2, lr]
 8000320:	f604 2ed4 	addw	lr, r4, #2772	; 0xad4
 8000324:	f8c6 00c0 	str.w	r0, [r6, #192]	; 0xc0
 8000328:	f8ce 5000 	str.w	r5, [lr]
 800032c:	f502 6eb8 	add.w	lr, r2, #1472	; 0x5c0
 8000330:	498b      	ldr	r1, [pc, #556]	; (8000560 <main+0x3d8>)
 8000332:	f8ce 0000 	str.w	r0, [lr]
 8000336:	f604 20bc 	addw	r0, r4, #2748	; 0xabc
 800033a:	4b8a      	ldr	r3, [pc, #552]	; (8000564 <main+0x3dc>)
 800033c:	6001      	str	r1, [r0, #0]
 800033e:	f604 20cc 	addw	r0, r4, #2764	; 0xacc
 8000342:	ed9f 7a89 	vldr	s14, [pc, #548]	; 8000568 <main+0x3e0>
 8000346:	eddf 6a89 	vldr	s13, [pc, #548]	; 800056c <main+0x3e4>
 800034a:	eddf 7a89 	vldr	s15, [pc, #548]	; 8000570 <main+0x3e8>
 800034e:	f8c3 a00c 	str.w	sl, [r3, #12]
 8000352:	f202 5cc4 	addw	ip, r2, #1476	; 0x5c4
 8000356:	ed8c 8a00 	vstr	s16, [ip]
 800035a:	621f      	str	r7, [r3, #32]
 800035c:	625f      	str	r7, [r3, #36]	; 0x24
 800035e:	f202 5cbc 	addw	ip, r2, #1468	; 0x5bc
 8000362:	6001      	str	r1, [r0, #0]
 8000364:	edc3 8a00 	vstr	s17, [r3]
 8000368:	f504 612c 	add.w	r1, r4, #2752	; 0xac0
 800036c:	619d      	str	r5, [r3, #24]
 800036e:	611d      	str	r5, [r3, #16]
 8000370:	ed83 8a02 	vstr	s16, [r3, #8]
 8000374:	edc3 8a01 	vstr	s17, [r3, #4]
 8000378:	f604 23c4 	addw	r3, r4, #2756	; 0xac4
 800037c:	ed81 7a00 	vstr	s14, [r1]
 8000380:	f8df e208 	ldr.w	lr, [pc, #520]	; 800058c <main+0x404>
 8000384:	ed8c 8a00 	vstr	s16, [ip]
 8000388:	f504 612d 	add.w	r1, r4, #2768	; 0xad0
 800038c:	f8df c200 	ldr.w	ip, [pc, #512]	; 8000590 <main+0x408>
 8000390:	edc3 6a00 	vstr	s13, [r3]
 8000394:	f240 5377 	movw	r3, #1399	; 0x577
 8000398:	edc1 7a00 	vstr	s15, [r1]
 800039c:	f8c2 35c8 	str.w	r3, [r2, #1480]	; 0x5c8
 80003a0:	f8df a1f0 	ldr.w	sl, [pc, #496]	; 8000594 <main+0x40c>
 80003a4:	f8cc a000 	str.w	sl, [ip]
 80003a8:	4639      	mov	r1, r7
 80003aa:	f202 50cc 	addw	r0, r2, #1484	; 0x5cc
 80003ae:	f44f 52af 	mov.w	r2, #5600	; 0x15e0
 80003b2:	f8ce a000 	str.w	sl, [lr]
 80003b6:	f8c6 30c8 	str.w	r3, [r6, #200]	; 0xc8
 80003ba:	ed86 8a31 	vstr	s16, [r6, #196]	; 0xc4
 80003be:	ed86 8a2f 	vstr	s16, [r6, #188]	; 0xbc
 80003c2:	f009 fee7 	bl	800a194 <memset>
 80003c6:	4639      	mov	r1, r7
 80003c8:	f44f 52af 	mov.w	r2, #5600	; 0x15e0
 80003cc:	f604 27ec 	addw	r7, r4, #2796	; 0xaec
 80003d0:	f106 00cc 	add.w	r0, r6, #204	; 0xcc
 80003d4:	f009 fede 	bl	800a194 <memset>
 80003d8:	f504 602f 	add.w	r0, r4, #2800	; 0xaf0
 80003dc:	603d      	str	r5, [r7, #0]
 80003de:	f604 27f8 	addw	r7, r4, #2808	; 0xaf8
 80003e2:	6005      	str	r5, [r0, #0]
 80003e4:	f604 300c 	addw	r0, r4, #2828	; 0xb0c
 80003e8:	603d      	str	r5, [r7, #0]
 80003ea:	f504 6731 	add.w	r7, r4, #2832	; 0xb10
 80003ee:	6005      	str	r5, [r0, #0]
 80003f0:	f604 3018 	addw	r0, r4, #2840	; 0xb18
 80003f4:	603d      	str	r5, [r7, #0]
 80003f6:	f604 3728 	addw	r7, r4, #2856	; 0xb28
 80003fa:	6005      	str	r5, [r0, #0]
 80003fc:	f604 3038 	addw	r0, r4, #2872	; 0xb38
 8000400:	603d      	str	r5, [r7, #0]
 8000402:	f504 6733 	add.w	r7, r4, #2864	; 0xb30
 8000406:	6005      	str	r5, [r0, #0]
 8000408:	f604 3034 	addw	r0, r4, #2868	; 0xb34
 800040c:	603d      	str	r5, [r7, #0]
 800040e:	f604 3748 	addw	r7, r4, #2888	; 0xb48
 8000412:	f8c0 8000 	str.w	r8, [r0]
 8000416:	f604 3058 	addw	r0, r4, #2904	; 0xb58
 800041a:	603d      	str	r5, [r7, #0]
 800041c:	f504 6735 	add.w	r7, r4, #2896	; 0xb50
 8000420:	6005      	str	r5, [r0, #0]
 8000422:	eddf 7a54 	vldr	s15, [pc, #336]	; 8000574 <main+0x3ec>
 8000426:	603d      	str	r5, [r7, #0]
 8000428:	f604 3054 	addw	r0, r4, #2900	; 0xb54
 800042c:	f604 27e8 	addw	r7, r4, #2792	; 0xae8
 8000430:	f8c0 8000 	str.w	r8, [r0]
 8000434:	edc7 7a00 	vstr	s15, [r7]
 8000438:	f884 9adc 	strb.w	r9, [r4, #2780]	; 0xadc
 800043c:	f884 9afc 	strb.w	r9, [r4, #2812]	; 0xafc
 8000440:	f604 3008 	addw	r0, r4, #2824	; 0xb08
 8000444:	f604 27f4 	addw	r7, r4, #2804	; 0xaf4
 8000448:	f604 3914 	addw	r9, r4, #2836	; 0xb14
 800044c:	edc0 7a00 	vstr	s15, [r0]
 8000450:	f8df a144 	ldr.w	sl, [pc, #324]	; 8000598 <main+0x410>
 8000454:	f8c9 a000 	str.w	sl, [r9]
 8000458:	f504 602e 	add.w	r0, r4, #2784	; 0xae0
 800045c:	f8c7 a000 	str.w	sl, [r7]
 8000460:	f604 29e4 	addw	r9, r4, #2788	; 0xae4
 8000464:	f04f 5778 	mov.w	r7, #1040187392	; 0x3e000000
 8000468:	f504 6a30 	add.w	sl, r4, #2816	; 0xb00
 800046c:	6007      	str	r7, [r0, #0]
 800046e:	4942      	ldr	r1, [pc, #264]	; (8000578 <main+0x3f0>)
 8000470:	f8ca 7000 	str.w	r7, [sl]
 8000474:	f604 3004 	addw	r0, r4, #2820	; 0xb04
 8000478:	f8c9 1000 	str.w	r1, [r9]
 800047c:	f604 3a1c 	addw	sl, r4, #2844	; 0xb1c
 8000480:	f604 393c 	addw	r9, r4, #2876	; 0xb3c
 8000484:	4b3d      	ldr	r3, [pc, #244]	; (800057c <main+0x3f4>)
 8000486:	6001      	str	r1, [r0, #0]
 8000488:	f604 315c 	addw	r1, r4, #2908	; 0xb5c
 800048c:	f8ca 3000 	str.w	r3, [sl]
 8000490:	f8c9 3000 	str.w	r3, [r9]
 8000494:	f504 6034 	add.w	r0, r4, #2880	; 0xb40
 8000498:	f604 3a24 	addw	sl, r4, #2852	; 0xb24
 800049c:	f604 3944 	addw	r9, r4, #2884	; 0xb44
 80004a0:	f8df c0f8 	ldr.w	ip, [pc, #248]	; 800059c <main+0x414>
 80004a4:	f8df e0f8 	ldr.w	lr, [pc, #248]	; 80005a0 <main+0x418>
 80004a8:	4a35      	ldr	r2, [pc, #212]	; (8000580 <main+0x3f8>)
 80004aa:	600b      	str	r3, [r1, #0]
 80004ac:	f04f 517a 	mov.w	r1, #1048576000	; 0x3e800000
 80004b0:	f504 6732 	add.w	r7, r4, #2848	; 0xb20
 80004b4:	6003      	str	r3, [r0, #0]
 80004b6:	f8ca 2000 	str.w	r2, [sl]
 80004ba:	f504 6036 	add.w	r0, r4, #2912	; 0xb60
 80004be:	f604 3a68 	addw	sl, r4, #2920	; 0xb68
 80004c2:	f8c9 2000 	str.w	r2, [r9]
 80004c6:	f8cc 1000 	str.w	r1, [ip]
 80004ca:	f604 3964 	addw	r9, r4, #2916	; 0xb64
 80004ce:	f8ce 1000 	str.w	r1, [lr]
 80004d2:	f604 3174 	addw	r1, r4, #2932	; 0xb74
 80004d6:	f604 3c78 	addw	ip, r4, #2936	; 0xb78
 80004da:	603b      	str	r3, [r7, #0]
 80004dc:	f504 6e37 	add.w	lr, r4, #2928	; 0xb70
 80004e0:	6003      	str	r3, [r0, #0]
 80004e2:	f8c9 2000 	str.w	r2, [r9]
 80004e6:	f8ca 5000 	str.w	r5, [sl]
 80004ea:	f8c1 8000 	str.w	r8, [r1]
 80004ee:	f604 307c 	addw	r0, r4, #2940	; 0xb7c
 80004f2:	f504 6a38 	add.w	sl, r4, #2944	; 0xb80
 80004f6:	f604 3984 	addw	r9, r4, #2948	; 0xb84
 80004fa:	f504 6139 	add.w	r1, r4, #2960	; 0xb90
 80004fe:	f8cc 5000 	str.w	r5, [ip]
 8000502:	e04f      	b.n	80005a4 <main+0x41c>
 8000504:	40023800 	.word	0x40023800
 8000508:	40020000 	.word	0x40020000
 800050c:	20000030 	.word	0x20000030
 8000510:	10624dd3 	.word	0x10624dd3
 8000514:	e000e010 	.word	0xe000e010
 8000518:	e000ed00 	.word	0xe000ed00
 800051c:	50060800 	.word	0x50060800
 8000520:	10000000 	.word	0x10000000
 8000524:	100021f0 	.word	0x100021f0
 8000528:	3a83126f 	.word	0x3a83126f
 800052c:	30000000 	.word	0x30000000
 8000530:	3f7a9fbf 	.word	0x3f7a9fbf
 8000534:	200004e0 	.word	0x200004e0
 8000538:	200004e8 	.word	0x200004e8
 800053c:	20014d1c 	.word	0x20014d1c
 8000540:	20001228 	.word	0x20001228
 8000544:	2000dd48 	.word	0x2000dd48
 8000548:	460ca000 	.word	0x460ca000
 800054c:	43a00000 	.word	0x43a00000
 8000550:	2000052c 	.word	0x2000052c
 8000554:	0800c4ec 	.word	0x0800c4ec
 8000558:	100010f8 	.word	0x100010f8
 800055c:	be4ccccd 	.word	0xbe4ccccd
 8000560:	42480000 	.word	0x42480000
 8000564:	20014cf4 	.word	0x20014cf4
 8000568:	3de147ae 	.word	0x3de147ae
 800056c:	3fc90fdb 	.word	0x3fc90fdb
 8000570:	3df5c28f 	.word	0x3df5c28f
 8000574:	3f666666 	.word	0x3f666666
 8000578:	3ed413a9 	.word	0x3ed413a9
 800057c:	3f4ccccd 	.word	0x3f4ccccd
 8000580:	4412c000 	.word	0x4412c000
 8000584:	3c23d70a 	.word	0x3c23d70a
 8000588:	200004f0 	.word	0x200004f0
 800058c:	10002ca4 	.word	0x10002ca4
 8000590:	100016ac 	.word	0x100016ac
 8000594:	43700000 	.word	0x43700000
 8000598:	3ecccccd 	.word	0x3ecccccd
 800059c:	20014cf0 	.word	0x20014cf0
 80005a0:	200004e4 	.word	0x200004e4
 80005a4:	f604 3c88 	addw	ip, r4, #2952	; 0xb88
 80005a8:	6003      	str	r3, [r0, #0]
 80005aa:	f8ca 3000 	str.w	r3, [sl]
 80005ae:	f8c9 2000 	str.w	r2, [r9]
 80005b2:	f8ce 5000 	str.w	r5, [lr]
 80005b6:	600d      	str	r5, [r1, #0]
 80005b8:	f604 3e98 	addw	lr, r4, #2968	; 0xb98
 80005bc:	f604 3094 	addw	r0, r4, #2964	; 0xb94
 80005c0:	f604 3a9c 	addw	sl, r4, #2972	; 0xb9c
 80005c4:	f504 633a 	add.w	r3, r4, #2976	; 0xba0
 80005c8:	f604 39a8 	addw	r9, r4, #2984	; 0xba8
 80005cc:	f604 32b8 	addw	r2, r4, #3000	; 0xbb8
 80005d0:	f604 31bc 	addw	r1, r4, #3004	; 0xbbc
 80005d4:	f8cc 5000 	str.w	r5, [ip]
 80005d8:	f504 6c3b 	add.w	ip, r4, #2992	; 0xbb0
 80005dc:	f8c0 8000 	str.w	r8, [r0]
 80005e0:	f8ce 5000 	str.w	r5, [lr]
 80005e4:	f8ca 5000 	str.w	r5, [sl]
 80005e8:	601d      	str	r5, [r3, #0]
 80005ea:	f8c9 5000 	str.w	r5, [r9]
 80005ee:	6015      	str	r5, [r2, #0]
 80005f0:	f604 3eb4 	addw	lr, r4, #2996	; 0xbb4
 80005f4:	f504 603c 	add.w	r0, r4, #3008	; 0xbc0
 80005f8:	f604 3ac4 	addw	sl, r4, #3012	; 0xbc4
 80005fc:	f604 33c8 	addw	r3, r4, #3016	; 0xbc8
 8000600:	f604 39d8 	addw	r9, r4, #3032	; 0xbd8
 8000604:	f504 623d 	add.w	r2, r4, #3024	; 0xbd0
 8000608:	600d      	str	r5, [r1, #0]
 800060a:	f504 613e 	add.w	r1, r4, #3040	; 0xbe0
 800060e:	f8cc 5000 	str.w	r5, [ip]
 8000612:	f604 3cd4 	addw	ip, r4, #3028	; 0xbd4
 8000616:	f8ce 8000 	str.w	r8, [lr]
 800061a:	6005      	str	r5, [r0, #0]
 800061c:	f604 3edc 	addw	lr, r4, #3036	; 0xbdc
 8000620:	f604 30e4 	addw	r0, r4, #3044	; 0xbe4
 8000624:	f8ca 5000 	str.w	r5, [sl]
 8000628:	601d      	str	r5, [r3, #0]
 800062a:	f604 3ae8 	addw	sl, r4, #3048	; 0xbe8
 800062e:	f604 33f8 	addw	r3, r4, #3064	; 0xbf8
 8000632:	f8c9 5000 	str.w	r5, [r9]
 8000636:	6015      	str	r5, [r2, #0]
 8000638:	f504 693f 	add.w	r9, r4, #3056	; 0xbf0
 800063c:	f604 32f4 	addw	r2, r4, #3060	; 0xbf4
 8000640:	600d      	str	r5, [r1, #0]
 8000642:	f604 31fc 	addw	r1, r4, #3068	; 0xbfc
 8000646:	f8cc 8000 	str.w	r8, [ip]
 800064a:	eef1 7a06 	vmov.f32	s15, #22
 800064e:	f604 3ca4 	addw	ip, r4, #2980	; 0xba4
 8000652:	f8c2 8000 	str.w	r8, [r2]
 8000656:	f8ce 5000 	str.w	r5, [lr]
 800065a:	6005      	str	r5, [r0, #0]
 800065c:	f8ca 5000 	str.w	r5, [sl]
 8000660:	f504 6040 	add.w	r0, r4, #3072	; 0xc00
 8000664:	f604 4e04 	addw	lr, r4, #3076	; 0xc04
 8000668:	601d      	str	r5, [r3, #0]
 800066a:	f604 4a08 	addw	sl, r4, #3080	; 0xc08
 800066e:	f8c9 5000 	str.w	r5, [r9]
 8000672:	f504 6241 	add.w	r2, r4, #3088	; 0xc10
 8000676:	f604 4918 	addw	r9, r4, #3096	; 0xc18
 800067a:	edcc 7a00 	vstr	s15, [ip]
 800067e:	f504 6342 	add.w	r3, r4, #3104	; 0xc20
 8000682:	600d      	str	r5, [r1, #0]
 8000684:	f604 4c14 	addw	ip, r4, #3092	; 0xc14
 8000688:	f604 411c 	addw	r1, r4, #3100	; 0xc1c
 800068c:	4637      	mov	r7, r6
 800068e:	f8c6 8004 	str.w	r8, [r6, #4]
 8000692:	f8cc 8000 	str.w	r8, [ip]
 8000696:	f847 8b08 	str.w	r8, [r7], #8
 800069a:	6005      	str	r5, [r0, #0]
 800069c:	f8ce 5000 	str.w	r5, [lr]
 80006a0:	f8ca 5000 	str.w	r5, [sl]
 80006a4:	f8c9 5000 	str.w	r5, [r9]
 80006a8:	6015      	str	r5, [r2, #0]
 80006aa:	601d      	str	r5, [r3, #0]
 80006ac:	600d      	str	r5, [r1, #0]
 80006ae:	f604 4424 	addw	r4, r4, #3108	; 0xc24
 80006b2:	f106 082c 	add.w	r8, r6, #44	; 0x2c
 80006b6:	f00b feaf 	bl	800c418 <rand>
 80006ba:	ee07 0a10 	vmov	s14, r0
 80006be:	eef8 7ac7 	vcvt.f32.s32	s15, s14
 80006c2:	eeb0 7a68 	vmov.f32	s14, s17
 80006c6:	ee67 7aa9 	vmul.f32	s15, s15, s19
 80006ca:	f844 5b04 	str.w	r5, [r4], #4
 80006ce:	eea7 7a89 	vfma.f32	s14, s15, s18
 80006d2:	4bcd      	ldr	r3, [pc, #820]	; (8000a08 <main+0x880>)
 80006d4:	eca7 7a01 	vstmia	r7!, {s14}
 80006d8:	eef0 7a47 	vmov.f32	s15, s14
 80006dc:	ed96 7a00 	vldr	s14, [r6]
 80006e0:	ee77 7a87 	vadd.f32	s15, s15, s14
 80006e4:	4547      	cmp	r7, r8
 80006e6:	edc6 7a00 	vstr	s15, [r6]
 80006ea:	d1e4      	bne.n	80006b6 <main+0x52e>
 80006ec:	eeb7 7a00 	vmov.f32	s14, #112	; 0x70
 80006f0:	eec7 7a27 	vdiv.f32	s15, s14, s15
 80006f4:	f8df 8328 	ldr.w	r8, [pc, #808]	; 8000a20 <main+0x898>
 80006f8:	48c4      	ldr	r0, [pc, #784]	; (8000a0c <main+0x884>)
 80006fa:	4dc5      	ldr	r5, [pc, #788]	; (8000a10 <main+0x888>)
 80006fc:	4cc5      	ldr	r4, [pc, #788]	; (8000a14 <main+0x88c>)
 80006fe:	4fc6      	ldr	r7, [pc, #792]	; (8000a18 <main+0x890>)
 8000700:	f04f 0902 	mov.w	r9, #2
 8000704:	2600      	movs	r6, #0
 8000706:	2201      	movs	r2, #1
 8000708:	4659      	mov	r1, fp
 800070a:	f04f 0a10 	mov.w	sl, #16
 800070e:	edc3 7a00 	vstr	s15, [r3]
 8000712:	f8d8 3030 	ldr.w	r3, [r8, #48]	; 0x30
 8000716:	f043 0308 	orr.w	r3, r3, #8
 800071a:	f8c8 3030 	str.w	r3, [r8, #48]	; 0x30
 800071e:	f88d 2054 	strb.w	r2, [sp, #84]	; 0x54
 8000722:	9201      	str	r2, [sp, #4]
 8000724:	f8cd a050 	str.w	sl, [sp, #80]	; 0x50
 8000728:	f88d 9055 	strb.w	r9, [sp, #85]	; 0x55
 800072c:	f88d 6056 	strb.w	r6, [sp, #86]	; 0x56
 8000730:	f88d 6057 	strb.w	r6, [sp, #87]	; 0x57
 8000734:	f004 fd06 	bl	8005144 <GPIO_Init>
 8000738:	f8d8 3030 	ldr.w	r3, [r8, #48]	; 0x30
 800073c:	9a01      	ldr	r2, [sp, #4]
 800073e:	f043 0307 	orr.w	r3, r3, #7
 8000742:	f8c8 3030 	str.w	r3, [r8, #48]	; 0x30
 8000746:	4628      	mov	r0, r5
 8000748:	f44f 7310 	mov.w	r3, #576	; 0x240
 800074c:	4659      	mov	r1, fp
 800074e:	f88d 2056 	strb.w	r2, [sp, #86]	; 0x56
 8000752:	9314      	str	r3, [sp, #80]	; 0x50
 8000754:	f88d 9054 	strb.w	r9, [sp, #84]	; 0x54
 8000758:	f88d 9055 	strb.w	r9, [sp, #85]	; 0x55
 800075c:	f88d 6057 	strb.w	r6, [sp, #87]	; 0x57
 8000760:	f004 fcf0 	bl	8005144 <GPIO_Init>
 8000764:	6a2b      	ldr	r3, [r5, #32]
 8000766:	f023 6370 	bic.w	r3, r3, #251658240	; 0xf000000
 800076a:	622b      	str	r3, [r5, #32]
 800076c:	6a2b      	ldr	r3, [r5, #32]
 800076e:	f043 6380 	orr.w	r3, r3, #67108864	; 0x4000000
 8000772:	622b      	str	r3, [r5, #32]
 8000774:	6a6b      	ldr	r3, [r5, #36]	; 0x24
 8000776:	f023 03f0 	bic.w	r3, r3, #240	; 0xf0
 800077a:	626b      	str	r3, [r5, #36]	; 0x24
 800077c:	6a6b      	ldr	r3, [r5, #36]	; 0x24
 800077e:	f043 0340 	orr.w	r3, r3, #64	; 0x40
 8000782:	626b      	str	r3, [r5, #36]	; 0x24
 8000784:	4620      	mov	r0, r4
 8000786:	f44f 53a0 	mov.w	r3, #5120	; 0x1400
 800078a:	4659      	mov	r1, fp
 800078c:	9314      	str	r3, [sp, #80]	; 0x50
 800078e:	f88d 9054 	strb.w	r9, [sp, #84]	; 0x54
 8000792:	f88d 9055 	strb.w	r9, [sp, #85]	; 0x55
 8000796:	f88d 6056 	strb.w	r6, [sp, #86]	; 0x56
 800079a:	f88d 6057 	strb.w	r6, [sp, #87]	; 0x57
 800079e:	f004 fcd1 	bl	8005144 <GPIO_Init>
 80007a2:	489e      	ldr	r0, [pc, #632]	; (8000a1c <main+0x894>)
 80007a4:	6a03      	ldr	r3, [r0, #32]
 80007a6:	f423 2370 	bic.w	r3, r3, #983040	; 0xf0000
 80007aa:	6203      	str	r3, [r0, #32]
 80007ac:	6a03      	ldr	r3, [r0, #32]
 80007ae:	f443 23c0 	orr.w	r3, r3, #393216	; 0x60000
 80007b2:	6203      	str	r3, [r0, #32]
 80007b4:	6a63      	ldr	r3, [r4, #36]	; 0x24
 80007b6:	f423 6370 	bic.w	r3, r3, #3840	; 0xf00
 80007ba:	6263      	str	r3, [r4, #36]	; 0x24
 80007bc:	6a63      	ldr	r3, [r4, #36]	; 0x24
 80007be:	f443 63c0 	orr.w	r3, r3, #1536	; 0x600
 80007c2:	6263      	str	r3, [r4, #36]	; 0x24
 80007c4:	683b      	ldr	r3, [r7, #0]
 80007c6:	454b      	cmp	r3, r9
 80007c8:	f000 81c2 	beq.w	8000b50 <main+0x9c8>
 80007cc:	4659      	mov	r1, fp
 80007ce:	f8cd a050 	str.w	sl, [sp, #80]	; 0x50
 80007d2:	f004 fcb7 	bl	8005144 <GPIO_Init>
 80007d6:	6a63      	ldr	r3, [r4, #36]	; 0x24
 80007d8:	f423 2370 	bic.w	r3, r3, #983040	; 0xf0000
 80007dc:	6263      	str	r3, [r4, #36]	; 0x24
 80007de:	6a63      	ldr	r3, [r4, #36]	; 0x24
 80007e0:	f443 23c0 	orr.w	r3, r3, #393216	; 0x60000
 80007e4:	6263      	str	r3, [r4, #36]	; 0x24
 80007e6:	4c8b      	ldr	r4, [pc, #556]	; (8000a14 <main+0x88c>)
 80007e8:	2202      	movs	r2, #2
 80007ea:	2300      	movs	r3, #0
 80007ec:	4659      	mov	r1, fp
 80007ee:	2580      	movs	r5, #128	; 0x80
 80007f0:	4620      	mov	r0, r4
 80007f2:	f88d 2054 	strb.w	r2, [sp, #84]	; 0x54
 80007f6:	f88d 2055 	strb.w	r2, [sp, #85]	; 0x55
 80007fa:	f88d 3056 	strb.w	r3, [sp, #86]	; 0x56
 80007fe:	f88d 3057 	strb.w	r3, [sp, #87]	; 0x57
 8000802:	9514      	str	r5, [sp, #80]	; 0x50
 8000804:	f004 fc9e 	bl	8005144 <GPIO_Init>
 8000808:	6a23      	ldr	r3, [r4, #32]
 800080a:	4a80      	ldr	r2, [pc, #512]	; (8000a0c <main+0x884>)
 800080c:	f023 4370 	bic.w	r3, r3, #4026531840	; 0xf0000000
 8000810:	6223      	str	r3, [r4, #32]
 8000812:	6a23      	ldr	r3, [r4, #32]
 8000814:	2110      	movs	r1, #16
 8000816:	f043 43c0 	orr.w	r3, r3, #1610612736	; 0x60000000
 800081a:	6223      	str	r3, [r4, #32]
 800081c:	f644 73ff 	movw	r3, #20479	; 0x4fff
 8000820:	8351      	strh	r1, [r2, #26]
 8000822:	3b01      	subs	r3, #1
 8000824:	d1fd      	bne.n	8000822 <main+0x69a>
 8000826:	4b79      	ldr	r3, [pc, #484]	; (8000a0c <main+0x884>)
 8000828:	4c7d      	ldr	r4, [pc, #500]	; (8000a20 <main+0x898>)
 800082a:	2210      	movs	r2, #16
 800082c:	831a      	strh	r2, [r3, #24]
 800082e:	6c23      	ldr	r3, [r4, #64]	; 0x40
 8000830:	f443 1300 	orr.w	r3, r3, #2097152	; 0x200000
 8000834:	6423      	str	r3, [r4, #64]	; 0x40
 8000836:	6a23      	ldr	r3, [r4, #32]
 8000838:	f443 1300 	orr.w	r3, r3, #2097152	; 0x200000
 800083c:	6223      	str	r3, [r4, #32]
 800083e:	f44f 1000 	mov.w	r0, #2097152	; 0x200000
 8000842:	f004 fc77 	bl	8005134 <RCC_APB1PeriphResetCmd.part.8.10357>
 8000846:	4b77      	ldr	r3, [pc, #476]	; (8000a24 <main+0x89c>)
 8000848:	881a      	ldrh	r2, [r3, #0]
 800084a:	b292      	uxth	r2, r2
 800084c:	f042 0201 	orr.w	r2, r2, #1
 8000850:	801a      	strh	r2, [r3, #0]
 8000852:	889a      	ldrh	r2, [r3, #4]
 8000854:	68a3      	ldr	r3, [r4, #8]
 8000856:	f022 023f 	bic.w	r2, r2, #63	; 0x3f
 800085a:	f003 030c 	and.w	r3, r3, #12
 800085e:	0412      	lsls	r2, r2, #16
 8000860:	2b04      	cmp	r3, #4
 8000862:	ea4f 4212 	mov.w	r2, r2, lsr #16
 8000866:	f001 85af 	beq.w	80023c8 <main+0x2240>
 800086a:	2b08      	cmp	r3, #8
 800086c:	f041 85a9 	bne.w	80023c2 <main+0x223a>
 8000870:	6863      	ldr	r3, [r4, #4]
 8000872:	6861      	ldr	r1, [r4, #4]
 8000874:	f413 0f80 	tst.w	r3, #4194304	; 0x400000
 8000878:	bf18      	it	ne
 800087a:	486b      	ldrne	r0, [pc, #428]	; (8000a28 <main+0x8a0>)
 800087c:	6863      	ldr	r3, [r4, #4]
 800087e:	bf08      	it	eq
 8000880:	486a      	ldreq	r0, [pc, #424]	; (8000a2c <main+0x8a4>)
 8000882:	f001 013f 	and.w	r1, r1, #63	; 0x3f
 8000886:	fbb0 f1f1 	udiv	r1, r0, r1
 800088a:	f3c3 1388 	ubfx	r3, r3, #6, #9
 800088e:	fb01 f303 	mul.w	r3, r1, r3
 8000892:	4963      	ldr	r1, [pc, #396]	; (8000a20 <main+0x898>)
 8000894:	684c      	ldr	r4, [r1, #4]
 8000896:	f3c4 4401 	ubfx	r4, r4, #16, #2
 800089a:	3401      	adds	r4, #1
 800089c:	0064      	lsls	r4, r4, #1
 800089e:	fbb3 f4f4 	udiv	r4, r3, r4
 80008a2:	485f      	ldr	r0, [pc, #380]	; (8000a20 <main+0x898>)
 80008a4:	4962      	ldr	r1, [pc, #392]	; (8000a30 <main+0x8a8>)
 80008a6:	6885      	ldr	r5, [r0, #8]
 80008a8:	f8df c190 	ldr.w	ip, [pc, #400]	; 8000a3c <main+0x8b4>
 80008ac:	4b5d      	ldr	r3, [pc, #372]	; (8000a24 <main+0x89c>)
 80008ae:	4e61      	ldr	r6, [pc, #388]	; (8000a34 <main+0x8ac>)
 80008b0:	f3c5 1e03 	ubfx	lr, r5, #4, #4
 80008b4:	f244 0533 	movw	r5, #16435	; 0x4033
 80008b8:	f811 800e 	ldrb.w	r8, [r1, lr]
 80008bc:	f8d0 e008 	ldr.w	lr, [r0, #8]
 80008c0:	f3ce 2e82 	ubfx	lr, lr, #10, #3
 80008c4:	fa24 f408 	lsr.w	r4, r4, r8
 80008c8:	f811 800e 	ldrb.w	r8, [r1, lr]
 80008cc:	f8d0 e008 	ldr.w	lr, [r0, #8]
 80008d0:	fa24 f408 	lsr.w	r4, r4, r8
 80008d4:	fbac 8004 	umull	r8, r0, ip, r4
 80008d8:	f3ce 3e42 	ubfx	lr, lr, #13, #3
 80008dc:	0c80      	lsrs	r0, r0, #18
 80008de:	4302      	orrs	r2, r0
 80008e0:	f811 100e 	ldrb.w	r1, [r1, lr]
 80008e4:	809a      	strh	r2, [r3, #4]
 80008e6:	881a      	ldrh	r2, [r3, #0]
 80008e8:	09a1      	lsrs	r1, r4, #6
 80008ea:	fba6 c101 	umull	ip, r1, r6, r1
 80008ee:	0989      	lsrs	r1, r1, #6
 80008f0:	f022 0201 	bic.w	r2, r2, #1
 80008f4:	2903      	cmp	r1, #3
 80008f6:	ea4f 4202 	mov.w	r2, r2, lsl #16
 80008fa:	bf98      	it	ls
 80008fc:	2104      	movls	r1, #4
 80008fe:	3001      	adds	r0, #1
 8000900:	0c12      	lsrs	r2, r2, #16
 8000902:	801a      	strh	r2, [r3, #0]
 8000904:	8418      	strh	r0, [r3, #32]
 8000906:	8399      	strh	r1, [r3, #28]
 8000908:	881a      	ldrh	r2, [r3, #0]
 800090a:	b292      	uxth	r2, r2
 800090c:	f042 0201 	orr.w	r2, r2, #1
 8000910:	801a      	strh	r2, [r3, #0]
 8000912:	881a      	ldrh	r2, [r3, #0]
 8000914:	f422 6281 	bic.w	r2, r2, #1032	; 0x408
 8000918:	f022 0202 	bic.w	r2, r2, #2
 800091c:	0412      	lsls	r2, r2, #16
 800091e:	0c12      	lsrs	r2, r2, #16
 8000920:	f442 6280 	orr.w	r2, r2, #1024	; 0x400
 8000924:	801a      	strh	r2, [r3, #0]
 8000926:	2101      	movs	r1, #1
 8000928:	811d      	strh	r5, [r3, #8]
 800092a:	2002      	movs	r0, #2
 800092c:	f007 f93c 	bl	8007ba8 <Codec_WriteRegister.4974>
 8000930:	21af      	movs	r1, #175	; 0xaf
 8000932:	4604      	mov	r4, r0
 8000934:	2004      	movs	r0, #4
 8000936:	f007 f937 	bl	8007ba8 <Codec_WriteRegister.4974>
 800093a:	4b3f      	ldr	r3, [pc, #252]	; (8000a38 <main+0x8b0>)
 800093c:	22af      	movs	r2, #175	; 0xaf
 800093e:	4404      	add	r4, r0
 8000940:	2181      	movs	r1, #129	; 0x81
 8000942:	2005      	movs	r0, #5
 8000944:	701a      	strb	r2, [r3, #0]
 8000946:	f007 f92f 	bl	8007ba8 <Codec_WriteRegister.4974>
 800094a:	2104      	movs	r1, #4
 800094c:	4404      	add	r4, r0
 800094e:	2006      	movs	r0, #6
 8000950:	f007 f92a 	bl	8007ba8 <Codec_WriteRegister.4974>
 8000954:	21cb      	movs	r1, #203	; 0xcb
 8000956:	4404      	add	r4, r0
 8000958:	2020      	movs	r0, #32
 800095a:	f007 f925 	bl	8007ba8 <Codec_WriteRegister.4974>
 800095e:	2021      	movs	r0, #33	; 0x21
 8000960:	21cb      	movs	r1, #203	; 0xcb
 8000962:	f007 f921 	bl	8007ba8 <Codec_WriteRegister.4974>
 8000966:	683b      	ldr	r3, [r7, #0]
 8000968:	2b02      	cmp	r3, #2
 800096a:	d119      	bne.n	80009a0 <main+0x818>
 800096c:	2101      	movs	r1, #1
 800096e:	2008      	movs	r0, #8
 8000970:	f007 f91a 	bl	8007ba8 <Codec_WriteRegister.4974>
 8000974:	2101      	movs	r1, #1
 8000976:	4605      	mov	r5, r0
 8000978:	2009      	movs	r0, #9
 800097a:	f007 f915 	bl	8007ba8 <Codec_WriteRegister.4974>
 800097e:	21c0      	movs	r1, #192	; 0xc0
 8000980:	4405      	add	r5, r0
 8000982:	200e      	movs	r0, #14
 8000984:	f007 f910 	bl	8007ba8 <Codec_WriteRegister.4974>
 8000988:	442c      	add	r4, r5
 800098a:	2100      	movs	r1, #0
 800098c:	4404      	add	r4, r0
 800098e:	2014      	movs	r0, #20
 8000990:	f007 f90a 	bl	8007ba8 <Codec_WriteRegister.4974>
 8000994:	2100      	movs	r1, #0
 8000996:	4404      	add	r4, r0
 8000998:	2015      	movs	r0, #21
 800099a:	f007 f905 	bl	8007ba8 <Codec_WriteRegister.4974>
 800099e:	4404      	add	r4, r0
 80009a0:	219e      	movs	r1, #158	; 0x9e
 80009a2:	2002      	movs	r0, #2
 80009a4:	f007 f900 	bl	8007ba8 <Codec_WriteRegister.4974>
 80009a8:	2100      	movs	r1, #0
 80009aa:	4404      	add	r4, r0
 80009ac:	200a      	movs	r0, #10
 80009ae:	f007 f8fb 	bl	8007ba8 <Codec_WriteRegister.4974>
 80009b2:	683b      	ldr	r3, [r7, #0]
 80009b4:	2b02      	cmp	r3, #2
 80009b6:	4404      	add	r4, r0
 80009b8:	d004      	beq.n	80009c4 <main+0x83c>
 80009ba:	200e      	movs	r0, #14
 80009bc:	2104      	movs	r1, #4
 80009be:	f007 f8f3 	bl	8007ba8 <Codec_WriteRegister.4974>
 80009c2:	4404      	add	r4, r0
 80009c4:	2100      	movs	r1, #0
 80009c6:	2027      	movs	r0, #39	; 0x27
 80009c8:	f007 f8ee 	bl	8007ba8 <Codec_WriteRegister.4974>
 80009cc:	210f      	movs	r1, #15
 80009ce:	4404      	add	r4, r0
 80009d0:	201f      	movs	r0, #31
 80009d2:	f007 f8e9 	bl	8007ba8 <Codec_WriteRegister.4974>
 80009d6:	210a      	movs	r1, #10
 80009d8:	1826      	adds	r6, r4, r0
 80009da:	201a      	movs	r0, #26
 80009dc:	f007 f8e4 	bl	8007ba8 <Codec_WriteRegister.4974>
 80009e0:	4c0f      	ldr	r4, [pc, #60]	; (8000a20 <main+0x898>)
 80009e2:	210a      	movs	r1, #10
 80009e4:	4406      	add	r6, r0
 80009e6:	201b      	movs	r0, #27
 80009e8:	f007 f8de 	bl	8007ba8 <Codec_WriteRegister.4974>
 80009ec:	6c23      	ldr	r3, [r4, #64]	; 0x40
 80009ee:	f443 4300 	orr.w	r3, r3, #32768	; 0x8000
 80009f2:	6423      	str	r3, [r4, #64]	; 0x40
 80009f4:	6a23      	ldr	r3, [r4, #32]
 80009f6:	f443 4300 	orr.w	r3, r3, #32768	; 0x8000
 80009fa:	6223      	str	r3, [r4, #32]
 80009fc:	4406      	add	r6, r0
 80009fe:	f44f 4000 	mov.w	r0, #32768	; 0x8000
 8000a02:	f004 fb97 	bl	8005134 <RCC_APB1PeriphResetCmd.part.8.10357>
 8000a06:	e01b      	b.n	8000a40 <main+0x8b8>
 8000a08:	10000000 	.word	0x10000000
 8000a0c:	40020c00 	.word	0x40020c00
 8000a10:	40020400 	.word	0x40020400
 8000a14:	40020800 	.word	0x40020800
 8000a18:	20000014 	.word	0x20000014
 8000a1c:	40020000 	.word	0x40020000
 8000a20:	40023800 	.word	0x40023800
 8000a24:	40005400 	.word	0x40005400
 8000a28:	007a1200 	.word	0x007a1200
 8000a2c:	00f42400 	.word	0x00f42400
 8000a30:	2000001c 	.word	0x2000001c
 8000a34:	053e2d63 	.word	0x053e2d63
 8000a38:	20000524 	.word	0x20000524
 8000a3c:	431bde83 	.word	0x431bde83
 8000a40:	4a4c      	ldr	r2, [pc, #304]	; (8000b74 <main+0x9ec>)
 8000a42:	8b93      	ldrh	r3, [r2, #28]
 8000a44:	f423 637b 	bic.w	r3, r3, #4016	; 0xfb0
 8000a48:	f023 030f 	bic.w	r3, r3, #15
 8000a4c:	041b      	lsls	r3, r3, #16
 8000a4e:	0c1b      	lsrs	r3, r3, #16
 8000a50:	2102      	movs	r1, #2
 8000a52:	8393      	strh	r3, [r2, #28]
 8000a54:	8411      	strh	r1, [r2, #32]
 8000a56:	8b91      	ldrh	r1, [r2, #28]
 8000a58:	68a3      	ldr	r3, [r4, #8]
 8000a5a:	021b      	lsls	r3, r3, #8
 8000a5c:	b289      	uxth	r1, r1
 8000a5e:	d503      	bpl.n	8000a68 <main+0x8e0>
 8000a60:	68a3      	ldr	r3, [r4, #8]
 8000a62:	f423 0300 	bic.w	r3, r3, #8388608	; 0x800000
 8000a66:	60a3      	str	r3, [r4, #8]
 8000a68:	4b43      	ldr	r3, [pc, #268]	; (8000b78 <main+0x9f0>)
 8000a6a:	4c44      	ldr	r4, [pc, #272]	; (8000b7c <main+0x9f4>)
 8000a6c:	f8d3 5084 	ldr.w	r5, [r3, #132]	; 0x84
 8000a70:	f8d3 e084 	ldr.w	lr, [r3, #132]	; 0x84
 8000a74:	685b      	ldr	r3, [r3, #4]
 8000a76:	4842      	ldr	r0, [pc, #264]	; (8000b80 <main+0x9f8>)
 8000a78:	4a42      	ldr	r2, [pc, #264]	; (8000b84 <main+0x9fc>)
 8000a7a:	f003 033f 	and.w	r3, r3, #63	; 0x3f
 8000a7e:	fbb4 f4f3 	udiv	r4, r4, r3
 8000a82:	f3c5 1588 	ubfx	r5, r5, #6, #9
 8000a86:	f3ce 7302 	ubfx	r3, lr, #28, #3
 8000a8a:	fb05 f404 	mul.w	r4, r5, r4
 8000a8e:	fbb4 f3f3 	udiv	r3, r4, r3
 8000a92:	0a1b      	lsrs	r3, r3, #8
 8000a94:	eb03 0383 	add.w	r3, r3, r3, lsl #2
 8000a98:	005b      	lsls	r3, r3, #1
 8000a9a:	fba0 e303 	umull	lr, r3, r0, r3
 8000a9e:	0a9b      	lsrs	r3, r3, #10
 8000aa0:	3305      	adds	r3, #5
 8000aa2:	fba2 0203 	umull	r0, r2, r2, r3
 8000aa6:	08d2      	lsrs	r2, r2, #3
 8000aa8:	0853      	lsrs	r3, r2, #1
 8000aaa:	1e98      	subs	r0, r3, #2
 8000aac:	f002 0201 	and.w	r2, r2, #1
 8000ab0:	0212      	lsls	r2, r2, #8
 8000ab2:	b280      	uxth	r0, r0
 8000ab4:	b292      	uxth	r2, r2
 8000ab6:	28fd      	cmp	r0, #253	; 0xfd
 8000ab8:	bf9c      	itt	ls
 8000aba:	f442 7200 	orrls.w	r2, r2, #512	; 0x200
 8000abe:	431a      	orrls	r2, r3
 8000ac0:	4b2c      	ldr	r3, [pc, #176]	; (8000b74 <main+0x9ec>)
 8000ac2:	bf88      	it	hi
 8000ac4:	f240 2202 	movwhi	r2, #514	; 0x202
 8000ac8:	f441 6120 	orr.w	r1, r1, #2560	; 0xa00
 8000acc:	841a      	strh	r2, [r3, #32]
 8000ace:	8399      	strh	r1, [r3, #28]
 8000ad0:	683b      	ldr	r3, [r7, #0]
 8000ad2:	2b02      	cmp	r3, #2
 8000ad4:	d111      	bne.n	8000afa <main+0x972>
 8000ad6:	4a28      	ldr	r2, [pc, #160]	; (8000b78 <main+0x9f0>)
 8000ad8:	4b2b      	ldr	r3, [pc, #172]	; (8000b88 <main+0xa00>)
 8000ada:	6c11      	ldr	r1, [r2, #64]	; 0x40
 8000adc:	f041 5100 	orr.w	r1, r1, #536870912	; 0x20000000
 8000ae0:	6411      	str	r1, [r2, #64]	; 0x40
 8000ae2:	681a      	ldr	r2, [r3, #0]
 8000ae4:	9916      	ldr	r1, [sp, #88]	; 0x58
 8000ae6:	f422 627f 	bic.w	r2, r2, #4080	; 0xff0
 8000aea:	f022 020e 	bic.w	r2, r2, #14
 8000aee:	430a      	orrs	r2, r1
 8000af0:	601a      	str	r2, [r3, #0]
 8000af2:	681a      	ldr	r2, [r3, #0]
 8000af4:	f042 0201 	orr.w	r2, r2, #1
 8000af8:	601a      	str	r2, [r3, #0]
 8000afa:	2e00      	cmp	r6, #0
 8000afc:	f000 83b6 	beq.w	800126c <main+0x10e4>
 8000b00:	4c22      	ldr	r4, [pc, #136]	; (8000b8c <main+0xa04>)
 8000b02:	f10d 0848 	add.w	r8, sp, #72	; 0x48
 8000b06:	4d22      	ldr	r5, [pc, #136]	; (8000b90 <main+0xa08>)
 8000b08:	4822      	ldr	r0, [pc, #136]	; (8000b94 <main+0xa0c>)
 8000b0a:	4a23      	ldr	r2, [pc, #140]	; (8000b98 <main+0xa10>)
 8000b0c:	6839      	ldr	r1, [r7, #0]
 8000b0e:	60a2      	str	r2, [r4, #8]
 8000b10:	f44f 63c8 	mov.w	r3, #1600	; 0x640
 8000b14:	6003      	str	r3, [r0, #0]
 8000b16:	4628      	mov	r0, r5
 8000b18:	6123      	str	r3, [r4, #16]
 8000b1a:	f004 fac5 	bl	80050a8 <DMA_Init.constprop.46>
 8000b1e:	682b      	ldr	r3, [r5, #0]
 8000b20:	f043 0301 	orr.w	r3, r3, #1
 8000b24:	602b      	str	r3, [r5, #0]
 8000b26:	4b13      	ldr	r3, [pc, #76]	; (8000b74 <main+0x9ec>)
 8000b28:	8b9a      	ldrh	r2, [r3, #28]
 8000b2a:	0557      	lsls	r7, r2, #21
 8000b2c:	d404      	bmi.n	8000b38 <main+0x9b0>
 8000b2e:	8b9a      	ldrh	r2, [r3, #28]
 8000b30:	b292      	uxth	r2, r2
 8000b32:	f442 6280 	orr.w	r2, r2, #1024	; 0x400
 8000b36:	839a      	strh	r2, [r3, #28]
 8000b38:	4b18      	ldr	r3, [pc, #96]	; (8000b9c <main+0xa14>)
 8000b3a:	4c19      	ldr	r4, [pc, #100]	; (8000ba0 <main+0xa18>)
 8000b3c:	4a19      	ldr	r2, [pc, #100]	; (8000ba4 <main+0xa1c>)
 8000b3e:	491a      	ldr	r1, [pc, #104]	; (8000ba8 <main+0xa20>)
 8000b40:	6011      	str	r1, [r2, #0]
 8000b42:	2500      	movs	r5, #0
 8000b44:	601d      	str	r5, [r3, #0]
 8000b46:	6923      	ldr	r3, [r4, #16]
 8000b48:	07de      	lsls	r6, r3, #31
 8000b4a:	d42f      	bmi.n	8000bac <main+0xa24>
 8000b4c:	e7fe      	b.n	8000b4c <main+0x9c4>
 8000b4e:	e7fe      	b.n	8000b4e <main+0x9c6>
 8000b50:	f8d8 3030 	ldr.w	r3, [r8, #48]	; 0x30
 8000b54:	f043 0301 	orr.w	r3, r3, #1
 8000b58:	f8c8 3030 	str.w	r3, [r8, #48]	; 0x30
 8000b5c:	4659      	mov	r1, fp
 8000b5e:	2303      	movs	r3, #3
 8000b60:	f8cd a050 	str.w	sl, [sp, #80]	; 0x50
 8000b64:	f88d 6057 	strb.w	r6, [sp, #87]	; 0x57
 8000b68:	f88d 3054 	strb.w	r3, [sp, #84]	; 0x54
 8000b6c:	f004 faea 	bl	8005144 <GPIO_Init>
 8000b70:	e639      	b.n	80007e6 <main+0x65e>
 8000b72:	bf00      	nop
 8000b74:	40003c00 	.word	0x40003c00
 8000b78:	40023800 	.word	0x40023800
 8000b7c:	007a1200 	.word	0x007a1200
 8000b80:	057619f1 	.word	0x057619f1
 8000b84:	cccccccd 	.word	0xcccccccd
 8000b88:	40007400 	.word	0x40007400
 8000b8c:	20014ab0 	.word	0x20014ab0
 8000b90:	400260b8 	.word	0x400260b8
 8000b94:	20000018 	.word	0x20000018
 8000b98:	200005a8 	.word	0x200005a8
 8000b9c:	2000002c 	.word	0x2000002c
 8000ba0:	40020000 	.word	0x40020000
 8000ba4:	20014cec 	.word	0x20014cec
 8000ba8:	20001228 	.word	0x20001228
 8000bac:	4edb      	ldr	r6, [pc, #876]	; (8000f1c <main+0xd94>)
 8000bae:	4bdc      	ldr	r3, [pc, #880]	; (8000f20 <main+0xd98>)
 8000bb0:	f8df a3a4 	ldr.w	sl, [pc, #932]	; 8000f58 <main+0xdd0>
 8000bb4:	701d      	strb	r5, [r3, #0]
 8000bb6:	6b33      	ldr	r3, [r6, #48]	; 0x30
 8000bb8:	f043 0301 	orr.w	r3, r3, #1
 8000bbc:	6333      	str	r3, [r6, #48]	; 0x30
 8000bbe:	f44f 52d0 	mov.w	r2, #6656	; 0x1a00
 8000bc2:	f04f 0903 	mov.w	r9, #3
 8000bc6:	2302      	movs	r3, #2
 8000bc8:	4620      	mov	r0, r4
 8000bca:	4659      	mov	r1, fp
 8000bcc:	9214      	str	r2, [sp, #80]	; 0x50
 8000bce:	f88d 9055 	strb.w	r9, [sp, #85]	; 0x55
 8000bd2:	f88d 3054 	strb.w	r3, [sp, #84]	; 0x54
 8000bd6:	f88d 5056 	strb.w	r5, [sp, #86]	; 0x56
 8000bda:	f88d 5057 	strb.w	r5, [sp, #87]	; 0x57
 8000bde:	f004 fab1 	bl	8005144 <GPIO_Init>
 8000be2:	6a63      	ldr	r3, [r4, #36]	; 0x24
 8000be4:	f023 03f0 	bic.w	r3, r3, #240	; 0xf0
 8000be8:	6263      	str	r3, [r4, #36]	; 0x24
 8000bea:	6a63      	ldr	r3, [r4, #36]	; 0x24
 8000bec:	f043 03a0 	orr.w	r3, r3, #160	; 0xa0
 8000bf0:	6263      	str	r3, [r4, #36]	; 0x24
 8000bf2:	6a63      	ldr	r3, [r4, #36]	; 0x24
 8000bf4:	f423 4370 	bic.w	r3, r3, #61440	; 0xf000
 8000bf8:	6263      	str	r3, [r4, #36]	; 0x24
 8000bfa:	6a63      	ldr	r3, [r4, #36]	; 0x24
 8000bfc:	f443 4320 	orr.w	r3, r3, #40960	; 0xa000
 8000c00:	6263      	str	r3, [r4, #36]	; 0x24
 8000c02:	6a63      	ldr	r3, [r4, #36]	; 0x24
 8000c04:	f423 2370 	bic.w	r3, r3, #983040	; 0xf0000
 8000c08:	6263      	str	r3, [r4, #36]	; 0x24
 8000c0a:	6a63      	ldr	r3, [r4, #36]	; 0x24
 8000c0c:	f443 2320 	orr.w	r3, r3, #655360	; 0xa0000
 8000c10:	2701      	movs	r7, #1
 8000c12:	6263      	str	r3, [r4, #36]	; 0x24
 8000c14:	4620      	mov	r0, r4
 8000c16:	f44f 6380 	mov.w	r3, #1024	; 0x400
 8000c1a:	4659      	mov	r1, fp
 8000c1c:	f88d 9055 	strb.w	r9, [sp, #85]	; 0x55
 8000c20:	9314      	str	r3, [sp, #80]	; 0x50
 8000c22:	f88d 7056 	strb.w	r7, [sp, #86]	; 0x56
 8000c26:	f88d 7057 	strb.w	r7, [sp, #87]	; 0x57
 8000c2a:	f004 fa8b 	bl	8005144 <GPIO_Init>
 8000c2e:	6a62      	ldr	r2, [r4, #36]	; 0x24
 8000c30:	4bbc      	ldr	r3, [pc, #752]	; (8000f24 <main+0xd9c>)
 8000c32:	49bd      	ldr	r1, [pc, #756]	; (8000f28 <main+0xda0>)
 8000c34:	f8df 931c 	ldr.w	r9, [pc, #796]	; 8000f54 <main+0xdcc>
 8000c38:	f422 6270 	bic.w	r2, r2, #3840	; 0xf00
 8000c3c:	6262      	str	r2, [r4, #36]	; 0x24
 8000c3e:	6a62      	ldr	r2, [r4, #36]	; 0x24
 8000c40:	f442 6220 	orr.w	r2, r2, #2560	; 0xa00
 8000c44:	6262      	str	r2, [r4, #36]	; 0x24
 8000c46:	6c72      	ldr	r2, [r6, #68]	; 0x44
 8000c48:	f442 4280 	orr.w	r2, r2, #16384	; 0x4000
 8000c4c:	6472      	str	r2, [r6, #68]	; 0x44
 8000c4e:	6b72      	ldr	r2, [r6, #52]	; 0x34
 8000c50:	f04f 6400 	mov.w	r4, #134217728	; 0x8000000
 8000c54:	f042 0280 	orr.w	r2, r2, #128	; 0x80
 8000c58:	6372      	str	r2, [r6, #52]	; 0x34
 8000c5a:	4640      	mov	r0, r8
 8000c5c:	609c      	str	r4, [r3, #8]
 8000c5e:	221c      	movs	r2, #28
 8000c60:	60d9      	str	r1, [r3, #12]
 8000c62:	f88d 2048 	strb.w	r2, [sp, #72]	; 0x48
 8000c66:	f88d 704a 	strb.w	r7, [sp, #74]	; 0x4a
 8000c6a:	f88d 704b 	strb.w	r7, [sp, #75]	; 0x4b
 8000c6e:	f88d 5049 	strb.w	r5, [sp, #73]	; 0x49
 8000c72:	f004 fb13 	bl	800529c <NVIC_Init>
 8000c76:	6c33      	ldr	r3, [r6, #64]	; 0x40
 8000c78:	433b      	orrs	r3, r7
 8000c7a:	6433      	str	r3, [r6, #64]	; 0x40
 8000c7c:	4628      	mov	r0, r5
 8000c7e:	f004 fae9 	bl	8005254 <USB_OTG_BSP_ConfigVBUS>
 8000c82:	f89a 3004 	ldrb.w	r3, [sl, #4]
 8000c86:	f88a 7003 	strb.w	r7, [sl, #3]
 8000c8a:	2240      	movs	r2, #64	; 0x40
 8000c8c:	2b07      	cmp	r3, #7
 8000c8e:	f88a 5000 	strb.w	r5, [sl]
 8000c92:	f88a 5001 	strb.w	r5, [sl, #1]
 8000c96:	f88a 5002 	strb.w	r5, [sl, #2]
 8000c9a:	f88a 701c 	strb.w	r7, [sl, #28]
 8000c9e:	f88a 5020 	strb.w	r5, [sl, #32]
 8000ca2:	f88a 7021 	strb.w	r7, [sl, #33]	; 0x21
 8000ca6:	f88a 2006 	strb.w	r2, [sl, #6]
 8000caa:	d807      	bhi.n	8000cbc <main+0xb34>
 8000cac:	f503 7331 	add.w	r3, r3, #708	; 0x2c4
 8000cb0:	eb09 0343 	add.w	r3, r9, r3, lsl #1
 8000cb4:	889a      	ldrh	r2, [r3, #4]
 8000cb6:	f3c2 020e 	ubfx	r2, r2, #0, #15
 8000cba:	809a      	strh	r2, [r3, #4]
 8000cbc:	f89a 3005 	ldrb.w	r3, [sl, #5]
 8000cc0:	2b07      	cmp	r3, #7
 8000cc2:	d807      	bhi.n	8000cd4 <main+0xb4c>
 8000cc4:	f503 7331 	add.w	r3, r3, #708	; 0x2c4
 8000cc8:	eb09 0343 	add.w	r3, r9, r3, lsl #1
 8000ccc:	889a      	ldrh	r2, [r3, #4]
 8000cce:	f3c2 020e 	ubfx	r2, r2, #0, #15
 8000cd2:	809a      	strh	r2, [r3, #4]
 8000cd4:	4995      	ldr	r1, [pc, #596]	; (8000f2c <main+0xda4>)
 8000cd6:	4c96      	ldr	r4, [pc, #600]	; (8000f30 <main+0xda8>)
 8000cd8:	f8ca 1064 	str.w	r1, [sl, #100]	; 0x64
 8000cdc:	2300      	movs	r3, #0
 8000cde:	2108      	movs	r1, #8
 8000ce0:	f8c9 3310 	str.w	r3, [r9, #784]	; 0x310
 8000ce4:	f8ca 4068 	str.w	r4, [sl, #104]	; 0x68
 8000ce8:	f8c9 3314 	str.w	r3, [r9, #788]	; 0x314
 8000cec:	f8c9 3350 	str.w	r3, [r9, #848]	; 0x350
 8000cf0:	f889 338c 	strb.w	r3, [r9, #908]	; 0x38c
 8000cf4:	f8c9 3318 	str.w	r3, [r9, #792]	; 0x318
 8000cf8:	f8c9 3354 	str.w	r3, [r9, #852]	; 0x354
 8000cfc:	f889 338d 	strb.w	r3, [r9, #909]	; 0x38d
 8000d00:	f8c9 331c 	str.w	r3, [r9, #796]	; 0x31c
 8000d04:	f8c9 3358 	str.w	r3, [r9, #856]	; 0x358
 8000d08:	f889 338e 	strb.w	r3, [r9, #910]	; 0x38e
 8000d0c:	f8c9 3320 	str.w	r3, [r9, #800]	; 0x320
 8000d10:	f8c9 335c 	str.w	r3, [r9, #860]	; 0x35c
 8000d14:	f889 338f 	strb.w	r3, [r9, #911]	; 0x38f
 8000d18:	f8c9 3324 	str.w	r3, [r9, #804]	; 0x324
 8000d1c:	f8c9 3360 	str.w	r3, [r9, #864]	; 0x360
 8000d20:	f889 3390 	strb.w	r3, [r9, #912]	; 0x390
 8000d24:	f8c9 3328 	str.w	r3, [r9, #808]	; 0x328
 8000d28:	f8c9 3364 	str.w	r3, [r9, #868]	; 0x364
 8000d2c:	f889 3391 	strb.w	r3, [r9, #913]	; 0x391
 8000d30:	f8c9 332c 	str.w	r3, [r9, #812]	; 0x32c
 8000d34:	f8c9 3368 	str.w	r3, [r9, #872]	; 0x368
 8000d38:	f889 3392 	strb.w	r3, [r9, #914]	; 0x392
 8000d3c:	f8c9 3330 	str.w	r3, [r9, #816]	; 0x330
 8000d40:	f8c9 336c 	str.w	r3, [r9, #876]	; 0x36c
 8000d44:	f889 3393 	strb.w	r3, [r9, #915]	; 0x393
 8000d48:	f8c9 3334 	str.w	r3, [r9, #820]	; 0x334
 8000d4c:	f8c9 3370 	str.w	r3, [r9, #880]	; 0x370
 8000d50:	f889 3394 	strb.w	r3, [r9, #916]	; 0x394
 8000d54:	f8c9 3338 	str.w	r3, [r9, #824]	; 0x338
 8000d58:	f8c9 3374 	str.w	r3, [r9, #884]	; 0x374
 8000d5c:	f889 3395 	strb.w	r3, [r9, #917]	; 0x395
 8000d60:	f8c9 333c 	str.w	r3, [r9, #828]	; 0x33c
 8000d64:	f8a9 13b2 	strh.w	r1, [r9, #946]	; 0x3b2
 8000d68:	f889 1000 	strb.w	r1, [r9]
 8000d6c:	2140      	movs	r1, #64	; 0x40
 8000d6e:	f8a9 1004 	strh.w	r1, [r9, #4]
 8000d72:	2104      	movs	r1, #4
 8000d74:	f889 1001 	strb.w	r1, [r9, #1]
 8000d78:	f44f 71a0 	mov.w	r1, #320	; 0x140
 8000d7c:	f8df 81dc 	ldr.w	r8, [pc, #476]	; 8000f5c <main+0xdd4>
 8000d80:	f8df c1dc 	ldr.w	ip, [pc, #476]	; 8000f60 <main+0xdd8>
 8000d84:	f8a9 1006 	strh.w	r1, [r9, #6]
 8000d88:	2102      	movs	r1, #2
 8000d8a:	f04f 42a0 	mov.w	r2, #1342177280	; 0x50000000
 8000d8e:	4869      	ldr	r0, [pc, #420]	; (8000f34 <main+0xdac>)
 8000d90:	f889 1008 	strb.w	r1, [r9, #8]
 8000d94:	4968      	ldr	r1, [pc, #416]	; (8000f38 <main+0xdb0>)
 8000d96:	f8df e1cc 	ldr.w	lr, [pc, #460]	; 8000f64 <main+0xddc>
 8000d9a:	4f68      	ldr	r7, [pc, #416]	; (8000f3c <main+0xdb4>)
 8000d9c:	4e68      	ldr	r6, [pc, #416]	; (8000f40 <main+0xdb8>)
 8000d9e:	4d69      	ldr	r5, [pc, #420]	; (8000f44 <main+0xdbc>)
 8000da0:	f8c9 8010 	str.w	r8, [r9, #16]
 8000da4:	2401      	movs	r4, #1
 8000da6:	f508 7858 	add.w	r8, r8, #864	; 0x360
 8000daa:	f8c9 c018 	str.w	ip, [r9, #24]
 8000dae:	f5ac 6ca0 	sub.w	ip, ip, #1280	; 0x500
 8000db2:	f8c9 3378 	str.w	r3, [r9, #888]	; 0x378
 8000db6:	f8c9 200c 	str.w	r2, [r9, #12]
 8000dba:	f889 3396 	strb.w	r3, [r9, #918]	; 0x396
 8000dbe:	f889 3003 	strb.w	r3, [r9, #3]
 8000dc2:	f8c9 3340 	str.w	r3, [r9, #832]	; 0x340
 8000dc6:	f8c9 e054 	str.w	lr, [r9, #84]	; 0x54
 8000dca:	f8c9 337c 	str.w	r3, [r9, #892]	; 0x37c
 8000dce:	f8c9 701c 	str.w	r7, [r9, #28]
 8000dd2:	f889 3397 	strb.w	r3, [r9, #919]	; 0x397
 8000dd6:	f8c9 6058 	str.w	r6, [r9, #88]	; 0x58
 8000dda:	f8c9 3344 	str.w	r3, [r9, #836]	; 0x344
 8000dde:	f8c9 5020 	str.w	r5, [r9, #32]
 8000de2:	f8c9 3380 	str.w	r3, [r9, #896]	; 0x380
 8000de6:	f8c9 005c 	str.w	r0, [r9, #92]	; 0x5c
 8000dea:	f889 3398 	strb.w	r3, [r9, #920]	; 0x398
 8000dee:	f8c9 1024 	str.w	r1, [r9, #36]	; 0x24
 8000df2:	f8c9 3348 	str.w	r3, [r9, #840]	; 0x348
 8000df6:	f8c9 8060 	str.w	r8, [r9, #96]	; 0x60
 8000dfa:	f8c9 3384 	str.w	r3, [r9, #900]	; 0x384
 8000dfe:	f5a0 60e0 	sub.w	r0, r0, #1792	; 0x700
 8000e02:	f889 3399 	strb.w	r3, [r9, #921]	; 0x399
 8000e06:	f5a1 618c 	sub.w	r1, r1, #1120	; 0x460
 8000e0a:	f8c9 334c 	str.w	r3, [r9, #844]	; 0x34c
 8000e0e:	f889 4002 	strb.w	r4, [r9, #2]
 8000e12:	f8c9 3388 	str.w	r3, [r9, #904]	; 0x388
 8000e16:	f889 400b 	strb.w	r4, [r9, #11]
 8000e1a:	f889 339a 	strb.w	r3, [r9, #922]	; 0x39a
 8000e1e:	f8c9 c014 	str.w	ip, [r9, #20]
 8000e22:	6893      	ldr	r3, [r2, #8]
 8000e24:	f8c9 00cc 	str.w	r0, [r9, #204]	; 0xcc
 8000e28:	f8c9 1090 	str.w	r1, [r9, #144]	; 0x90
 8000e2c:	f5a8 68c8 	sub.w	r8, r8, #1600	; 0x640
 8000e30:	f50c 7ca0 	add.w	ip, ip, #320	; 0x140
 8000e34:	f5ae 6eb4 	sub.w	lr, lr, #1440	; 0x5a0
 8000e38:	f5a7 7768 	sub.w	r7, r7, #928	; 0x3a0
 8000e3c:	f5a6 66b0 	sub.w	r6, r6, #1408	; 0x580
 8000e40:	f5a5 7560 	sub.w	r5, r5, #896	; 0x380
 8000e44:	f500 70d0 	add.w	r0, r0, #416	; 0x1a0
 8000e48:	f501 6130 	add.w	r1, r1, #2816	; 0xb00
 8000e4c:	f8c9 8094 	str.w	r8, [r9, #148]	; 0x94
 8000e50:	f8c9 c098 	str.w	ip, [r9, #152]	; 0x98
 8000e54:	f8c9 e09c 	str.w	lr, [r9, #156]	; 0x9c
 8000e58:	f8c9 70a0 	str.w	r7, [r9, #160]	; 0xa0
 8000e5c:	f8c9 60a4 	str.w	r6, [r9, #164]	; 0xa4
 8000e60:	f8c9 50a8 	str.w	r5, [r9, #168]	; 0xa8
 8000e64:	f8c9 00ac 	str.w	r0, [r9, #172]	; 0xac
 8000e68:	f8c9 10d0 	str.w	r1, [r9, #208]	; 0xd0
 8000e6c:	f50c 5c2b 	add.w	ip, ip, #10944	; 0x2ac0
 8000e70:	f8df e0f4 	ldr.w	lr, [pc, #244]	; 8000f68 <main+0xde0>
 8000e74:	4834      	ldr	r0, [pc, #208]	; (8000f48 <main+0xdc0>)
 8000e76:	4e35      	ldr	r6, [pc, #212]	; (8000f4c <main+0xdc4>)
 8000e78:	4d35      	ldr	r5, [pc, #212]	; (8000f50 <main+0xdc8>)
 8000e7a:	f8c9 c0d8 	str.w	ip, [r9, #216]	; 0xd8
 8000e7e:	f5a1 7100 	sub.w	r1, r1, #512	; 0x200
 8000e82:	f023 0301 	bic.w	r3, r3, #1
 8000e86:	f508 58d7 	add.w	r8, r8, #6880	; 0x1ae0
 8000e8a:	f04f 2750 	mov.w	r7, #1342197760	; 0x50005000
 8000e8e:	f8c9 e0dc 	str.w	lr, [r9, #220]	; 0xdc
 8000e92:	f8c9 110c 	str.w	r1, [r9, #268]	; 0x10c
 8000e96:	f8c9 80d4 	str.w	r8, [r9, #212]	; 0xd4
 8000e9a:	f8c9 70e0 	str.w	r7, [r9, #224]	; 0xe0
 8000e9e:	f8c9 60e4 	str.w	r6, [r9, #228]	; 0xe4
 8000ea2:	f8c9 50e8 	str.w	r5, [r9, #232]	; 0xe8
 8000ea6:	f8c9 00ec 	str.w	r0, [r9, #236]	; 0xec
 8000eaa:	6093      	str	r3, [r2, #8]
 8000eac:	68d3      	ldr	r3, [r2, #12]
 8000eae:	f043 0340 	orr.w	r3, r3, #64	; 0x40
 8000eb2:	60d3      	str	r3, [r2, #12]
 8000eb4:	f004 f832 	bl	8004f1c <USB_OTG_CoreReset.7279.constprop.10>
 8000eb8:	f899 2009 	ldrb.w	r2, [r9, #9]
 8000ebc:	f8d9 300c 	ldr.w	r3, [r9, #12]
 8000ec0:	2a00      	cmp	r2, #0
 8000ec2:	bf0c      	ite	eq
 8000ec4:	f44f 1234 	moveq.w	r2, #2949120	; 0x2d0000
 8000ec8:	f44f 1274 	movne.w	r2, #3997696	; 0x3d0000
 8000ecc:	639a      	str	r2, [r3, #56]	; 0x38
 8000ece:	4621      	mov	r1, r4
 8000ed0:	2014      	movs	r0, #20
 8000ed2:	f003 fe11 	bl	8004af8 <BSP_Delay.4435>
 8000ed6:	f899 2003 	ldrb.w	r2, [r9, #3]
 8000eda:	f8d9 300c 	ldr.w	r3, [r9, #12]
 8000ede:	42a2      	cmp	r2, r4
 8000ee0:	d106      	bne.n	8000ef0 <main+0xd68>
 8000ee2:	689a      	ldr	r2, [r3, #8]
 8000ee4:	2105      	movs	r1, #5
 8000ee6:	f361 0244 	bfi	r2, r1, #1, #4
 8000eea:	f042 0220 	orr.w	r2, r2, #32
 8000eee:	609a      	str	r2, [r3, #8]
 8000ef0:	68da      	ldr	r2, [r3, #12]
 8000ef2:	4d18      	ldr	r5, [pc, #96]	; (8000f54 <main+0xdcc>)
 8000ef4:	f36f 729e 	bfc	r2, #30, #1
 8000ef8:	f042 5200 	orr.w	r2, r2, #536870912	; 0x20000000
 8000efc:	2101      	movs	r1, #1
 8000efe:	60da      	str	r2, [r3, #12]
 8000f00:	2032      	movs	r0, #50	; 0x32
 8000f02:	f003 fdf9 	bl	8004af8 <BSP_Delay.4435>
 8000f06:	4628      	mov	r0, r5
 8000f08:	f004 f9a4 	bl	8005254 <USB_OTG_BSP_ConfigVBUS>
 8000f0c:	f8d9 310c 	ldr.w	r3, [r9, #268]	; 0x10c
 8000f10:	2400      	movs	r4, #0
 8000f12:	601c      	str	r4, [r3, #0]
 8000f14:	f899 3008 	ldrb.w	r3, [r9, #8]
 8000f18:	2b01      	cmp	r3, #1
 8000f1a:	e027      	b.n	8000f6c <main+0xde4>
 8000f1c:	40023800 	.word	0x40023800
 8000f20:	20000000 	.word	0x20000000
 8000f24:	e000ed00 	.word	0xe000ed00
 8000f28:	05fa0500 	.word	0x05fa0500
 8000f2c:	20000004 	.word	0x20000004
 8000f30:	20000034 	.word	0x20000034
 8000f34:	50000b40 	.word	0x50000b40
 8000f38:	50000960 	.word	0x50000960
 8000f3c:	50000920 	.word	0x50000920
 8000f40:	50000b20 	.word	0x50000b20
 8000f44:	50000940 	.word	0x50000940
 8000f48:	50008000 	.word	0x50008000
 8000f4c:	50006000 	.word	0x50006000
 8000f50:	50007000 	.word	0x50007000
 8000f54:	20014d90 	.word	0x20014d90
 8000f58:	2000053c 	.word	0x2000053c
 8000f5c:	50000800 	.word	0x50000800
 8000f60:	50000900 	.word	0x50000900
 8000f64:	50000b00 	.word	0x50000b00
 8000f68:	50004000 	.word	0x50004000
 8000f6c:	696b      	ldr	r3, [r5, #20]
 8000f6e:	4d21      	ldr	r5, [pc, #132]	; (8000ff4 <main+0xe6c>)
 8000f70:	681a      	ldr	r2, [r3, #0]
 8000f72:	bf16      	itet	ne
 8000f74:	2101      	movne	r1, #1
 8000f76:	f364 0201 	bfieq	r2, r4, #0, #2
 8000f7a:	f361 0201 	bfine	r2, r1, #0, #2
 8000f7e:	601a      	str	r2, [r3, #0]
 8000f80:	4628      	mov	r0, r5
 8000f82:	f003 fd31 	bl	80049e8 <USB_OTG_ResetPort>
 8000f86:	f8d9 3014 	ldr.w	r3, [r9, #20]
 8000f8a:	681a      	ldr	r2, [r3, #0]
 8000f8c:	f36f 0282 	bfc	r2, #2, #1
 8000f90:	601a      	str	r2, [r3, #0]
 8000f92:	f899 300b 	ldrb.w	r3, [r9, #11]
 8000f96:	2b01      	cmp	r3, #1
 8000f98:	4626      	mov	r6, r4
 8000f9a:	f000 81cb 	beq.w	8001334 <main+0x11ac>
 8000f9e:	68eb      	ldr	r3, [r5, #12]
 8000fa0:	2200      	movs	r2, #0
 8000fa2:	9211      	str	r2, [sp, #68]	; 0x44
 8000fa4:	9a11      	ldr	r2, [sp, #68]	; 0x44
 8000fa6:	4914      	ldr	r1, [pc, #80]	; (8000ff8 <main+0xe70>)
 8000fa8:	f042 0220 	orr.w	r2, r2, #32
 8000fac:	9211      	str	r2, [sp, #68]	; 0x44
 8000fae:	9a11      	ldr	r2, [sp, #68]	; 0x44
 8000fb0:	2010      	movs	r0, #16
 8000fb2:	f360 128a 	bfi	r2, r0, #6, #5
 8000fb6:	9211      	str	r2, [sp, #68]	; 0x44
 8000fb8:	9a11      	ldr	r2, [sp, #68]	; 0x44
 8000fba:	611a      	str	r2, [r3, #16]
 8000fbc:	691a      	ldr	r2, [r3, #16]
 8000fbe:	9211      	str	r2, [sp, #68]	; 0x44
 8000fc0:	e003      	b.n	8000fca <main+0xe42>
 8000fc2:	691a      	ldr	r2, [r3, #16]
 8000fc4:	9211      	str	r2, [sp, #68]	; 0x44
 8000fc6:	3901      	subs	r1, #1
 8000fc8:	d002      	beq.n	8000fd0 <main+0xe48>
 8000fca:	9a11      	ldr	r2, [sp, #68]	; 0x44
 8000fcc:	0694      	lsls	r4, r2, #26
 8000fce:	d4f8      	bmi.n	8000fc2 <main+0xe3a>
 8000fd0:	2102      	movs	r1, #2
 8000fd2:	2003      	movs	r0, #3
 8000fd4:	f003 fd90 	bl	8004af8 <BSP_Delay.4435>
 8000fd8:	2300      	movs	r3, #0
 8000fda:	9312      	str	r3, [sp, #72]	; 0x48
 8000fdc:	9a12      	ldr	r2, [sp, #72]	; 0x48
 8000fde:	f8d9 300c 	ldr.w	r3, [r9, #12]
 8000fe2:	4905      	ldr	r1, [pc, #20]	; (8000ff8 <main+0xe70>)
 8000fe4:	f042 0210 	orr.w	r2, r2, #16
 8000fe8:	9212      	str	r2, [sp, #72]	; 0x48
 8000fea:	9a12      	ldr	r2, [sp, #72]	; 0x48
 8000fec:	611a      	str	r2, [r3, #16]
 8000fee:	691a      	ldr	r2, [r3, #16]
 8000ff0:	9212      	str	r2, [sp, #72]	; 0x48
 8000ff2:	e007      	b.n	8001004 <main+0xe7c>
 8000ff4:	20014d90 	.word	0x20014d90
 8000ff8:	00030d40 	.word	0x00030d40
 8000ffc:	691a      	ldr	r2, [r3, #16]
 8000ffe:	9212      	str	r2, [sp, #72]	; 0x48
 8001000:	3901      	subs	r1, #1
 8001002:	d002      	beq.n	800100a <main+0xe82>
 8001004:	9a12      	ldr	r2, [sp, #72]	; 0x48
 8001006:	06d0      	lsls	r0, r2, #27
 8001008:	d4f8      	bmi.n	8000ffc <main+0xe74>
 800100a:	2003      	movs	r0, #3
 800100c:	2102      	movs	r1, #2
 800100e:	f003 fd73 	bl	8004af8 <BSP_Delay.4435>
 8001012:	f899 3000 	ldrb.w	r3, [r9]
 8001016:	48ba      	ldr	r0, [pc, #744]	; (8001300 <main+0x1178>)
 8001018:	2b00      	cmp	r3, #0
 800101a:	d05b      	beq.n	80010d4 <main+0xf4c>
 800101c:	f8d0 4090 	ldr.w	r4, [r0, #144]	; 0x90
 8001020:	f04f 31ff 	mov.w	r1, #4294967295
 8001024:	2200      	movs	r2, #0
 8001026:	2b01      	cmp	r3, #1
 8001028:	60a1      	str	r1, [r4, #8]
 800102a:	60e2      	str	r2, [r4, #12]
 800102c:	d952      	bls.n	80010d4 <main+0xf4c>
 800102e:	f8d0 4094 	ldr.w	r4, [r0, #148]	; 0x94
 8001032:	2b02      	cmp	r3, #2
 8001034:	60a1      	str	r1, [r4, #8]
 8001036:	60e2      	str	r2, [r4, #12]
 8001038:	d94c      	bls.n	80010d4 <main+0xf4c>
 800103a:	f8d0 4098 	ldr.w	r4, [r0, #152]	; 0x98
 800103e:	2b03      	cmp	r3, #3
 8001040:	60a1      	str	r1, [r4, #8]
 8001042:	60e2      	str	r2, [r4, #12]
 8001044:	d946      	bls.n	80010d4 <main+0xf4c>
 8001046:	f8d0 409c 	ldr.w	r4, [r0, #156]	; 0x9c
 800104a:	2b04      	cmp	r3, #4
 800104c:	60a1      	str	r1, [r4, #8]
 800104e:	60e2      	str	r2, [r4, #12]
 8001050:	d940      	bls.n	80010d4 <main+0xf4c>
 8001052:	f8d0 40a0 	ldr.w	r4, [r0, #160]	; 0xa0
 8001056:	2b05      	cmp	r3, #5
 8001058:	60a1      	str	r1, [r4, #8]
 800105a:	60e2      	str	r2, [r4, #12]
 800105c:	d93a      	bls.n	80010d4 <main+0xf4c>
 800105e:	f8d0 40a4 	ldr.w	r4, [r0, #164]	; 0xa4
 8001062:	2b06      	cmp	r3, #6
 8001064:	60a1      	str	r1, [r4, #8]
 8001066:	60e2      	str	r2, [r4, #12]
 8001068:	d934      	bls.n	80010d4 <main+0xf4c>
 800106a:	f8d0 40a8 	ldr.w	r4, [r0, #168]	; 0xa8
 800106e:	2b07      	cmp	r3, #7
 8001070:	60a1      	str	r1, [r4, #8]
 8001072:	60e2      	str	r2, [r4, #12]
 8001074:	d92e      	bls.n	80010d4 <main+0xf4c>
 8001076:	f8d0 40ac 	ldr.w	r4, [r0, #172]	; 0xac
 800107a:	2b08      	cmp	r3, #8
 800107c:	60a1      	str	r1, [r4, #8]
 800107e:	60e2      	str	r2, [r4, #12]
 8001080:	d928      	bls.n	80010d4 <main+0xf4c>
 8001082:	f8d0 00b0 	ldr.w	r0, [r0, #176]	; 0xb0
 8001086:	2b09      	cmp	r3, #9
 8001088:	6081      	str	r1, [r0, #8]
 800108a:	60c2      	str	r2, [r0, #12]
 800108c:	d922      	bls.n	80010d4 <main+0xf4c>
 800108e:	f8d9 40b4 	ldr.w	r4, [r9, #180]	; 0xb4
 8001092:	489b      	ldr	r0, [pc, #620]	; (8001300 <main+0x1178>)
 8001094:	60a1      	str	r1, [r4, #8]
 8001096:	2b0a      	cmp	r3, #10
 8001098:	60e2      	str	r2, [r4, #12]
 800109a:	d91b      	bls.n	80010d4 <main+0xf4c>
 800109c:	f8d0 40b8 	ldr.w	r4, [r0, #184]	; 0xb8
 80010a0:	2b0b      	cmp	r3, #11
 80010a2:	60a1      	str	r1, [r4, #8]
 80010a4:	60e2      	str	r2, [r4, #12]
 80010a6:	d915      	bls.n	80010d4 <main+0xf4c>
 80010a8:	f8d0 40bc 	ldr.w	r4, [r0, #188]	; 0xbc
 80010ac:	2b0c      	cmp	r3, #12
 80010ae:	60a1      	str	r1, [r4, #8]
 80010b0:	60e2      	str	r2, [r4, #12]
 80010b2:	d90f      	bls.n	80010d4 <main+0xf4c>
 80010b4:	f8d0 40c0 	ldr.w	r4, [r0, #192]	; 0xc0
 80010b8:	2b0d      	cmp	r3, #13
 80010ba:	60a1      	str	r1, [r4, #8]
 80010bc:	60e2      	str	r2, [r4, #12]
 80010be:	d909      	bls.n	80010d4 <main+0xf4c>
 80010c0:	f8d0 40c4 	ldr.w	r4, [r0, #196]	; 0xc4
 80010c4:	2b0e      	cmp	r3, #14
 80010c6:	60a1      	str	r1, [r4, #8]
 80010c8:	60e2      	str	r2, [r4, #12]
 80010ca:	d903      	bls.n	80010d4 <main+0xf4c>
 80010cc:	f8d0 30c8 	ldr.w	r3, [r0, #200]	; 0xc8
 80010d0:	6099      	str	r1, [r3, #8]
 80010d2:	60da      	str	r2, [r3, #12]
 80010d4:	4b8b      	ldr	r3, [pc, #556]	; (8001304 <main+0x117c>)
 80010d6:	f8d9 20cc 	ldr.w	r2, [r9, #204]	; 0xcc
 80010da:	2101      	movs	r1, #1
 80010dc:	8359      	strh	r1, [r3, #26]
 80010de:	6813      	ldr	r3, [r2, #0]
 80010e0:	f36f 0382 	bfc	r3, #2, #1
 80010e4:	f36f 0341 	bfc	r3, #1, #1
 80010e8:	f36f 03c3 	bfc	r3, #3, #1
 80010ec:	f36f 1345 	bfc	r3, #5, #1
 80010f0:	04d9      	lsls	r1, r3, #19
 80010f2:	d402      	bmi.n	80010fa <main+0xf72>
 80010f4:	f443 5380 	orr.w	r3, r3, #4096	; 0x1000
 80010f8:	6013      	str	r3, [r2, #0]
 80010fa:	20c8      	movs	r0, #200	; 0xc8
 80010fc:	2101      	movs	r1, #1
 80010fe:	f003 fcfb 	bl	8004af8 <BSP_Delay.4435>
 8001102:	f8da 2068 	ldr.w	r2, [sl, #104]	; 0x68
 8001106:	f899 1003 	ldrb.w	r1, [r9, #3]
 800110a:	f8d9 300c 	ldr.w	r3, [r9, #12]
 800110e:	6810      	ldr	r0, [r2, #0]
 8001110:	4c7d      	ldr	r4, [pc, #500]	; (8001308 <main+0x1180>)
 8001112:	4f7e      	ldr	r7, [pc, #504]	; (800130c <main+0x1184>)
 8001114:	4e7e      	ldr	r6, [pc, #504]	; (8001310 <main+0x1188>)
 8001116:	2200      	movs	r2, #0
 8001118:	4291      	cmp	r1, r2
 800111a:	619a      	str	r2, [r3, #24]
 800111c:	f04f 31ff 	mov.w	r1, #4294967295
 8001120:	bf08      	it	eq
 8001122:	2210      	moveq	r2, #16
 8001124:	f06f 4580 	mvn.w	r5, #1073741824	; 0x40000000
 8001128:	6159      	str	r1, [r3, #20]
 800112a:	f042 520c 	orr.w	r2, r2, #587202560	; 0x23000000
 800112e:	6059      	str	r1, [r3, #4]
 8001130:	615d      	str	r5, [r3, #20]
 8001132:	619c      	str	r4, [r3, #24]
 8001134:	6999      	ldr	r1, [r3, #24]
 8001136:	f442 1200 	orr.w	r2, r2, #2097152	; 0x200000
 800113a:	f042 0208 	orr.w	r2, r2, #8
 800113e:	430a      	orrs	r2, r1
 8001140:	619a      	str	r2, [r3, #24]
 8001142:	689a      	ldr	r2, [r3, #8]
 8001144:	f042 0201 	orr.w	r2, r2, #1
 8001148:	609a      	str	r2, [r3, #8]
 800114a:	4780      	blx	r0
 800114c:	4b71      	ldr	r3, [pc, #452]	; (8001314 <main+0x118c>)
 800114e:	4a72      	ldr	r2, [pc, #456]	; (8001318 <main+0x1190>)
 8001150:	60da      	str	r2, [r3, #12]
 8001152:	2401      	movs	r4, #1
 8001154:	2343      	movs	r3, #67	; 0x43
 8001156:	4658      	mov	r0, fp
 8001158:	f88d 3050 	strb.w	r3, [sp, #80]	; 0x50
 800115c:	f88d 4051 	strb.w	r4, [sp, #81]	; 0x51
 8001160:	f88d 4052 	strb.w	r4, [sp, #82]	; 0x52
 8001164:	f88d 4053 	strb.w	r4, [sp, #83]	; 0x53
 8001168:	f004 f898 	bl	800529c <NVIC_Init>
 800116c:	2217      	movs	r2, #23
 800116e:	2302      	movs	r3, #2
 8001170:	4658      	mov	r0, fp
 8001172:	f88d 2050 	strb.w	r2, [sp, #80]	; 0x50
 8001176:	f88d 3052 	strb.w	r3, [sp, #82]	; 0x52
 800117a:	f88d 4051 	strb.w	r4, [sp, #81]	; 0x51
 800117e:	f88d 4053 	strb.w	r4, [sp, #83]	; 0x53
 8001182:	f004 f88b 	bl	800529c <NVIC_Init>
 8001186:	f8cd b008 	str.w	fp, [sp, #8]
 800118a:	2302      	movs	r3, #2
 800118c:	46cb      	mov	fp, r9
 800118e:	f88d 3043 	strb.w	r3, [sp, #67]	; 0x43
 8001192:	f8db 2310 	ldr.w	r2, [fp, #784]	; 0x310
 8001196:	f04f 0800 	mov.w	r8, #0
 800119a:	2a00      	cmp	r2, #0
 800119c:	d148      	bne.n	8001230 <main+0x10a8>
 800119e:	f89a 2000 	ldrb.w	r2, [sl]
 80011a2:	495e      	ldr	r1, [pc, #376]	; (800131c <main+0x1194>)
 80011a4:	2a00      	cmp	r2, #0
 80011a6:	f040 85db 	bne.w	8001d60 <main+0x1bd8>
 80011aa:	f8db 3310 	ldr.w	r3, [fp, #784]	; 0x310
 80011ae:	2b00      	cmp	r3, #0
 80011b0:	f040 8622 	bne.w	8001df8 <main+0x1c70>
 80011b4:	f04f 4380 	mov.w	r3, #1073741824	; 0x40000000
 80011b8:	2101      	movs	r1, #1
 80011ba:	6039      	str	r1, [r7, #0]
 80011bc:	881a      	ldrh	r2, [r3, #0]
 80011be:	f022 0201 	bic.w	r2, r2, #1
 80011c2:	0412      	lsls	r2, r2, #16
 80011c4:	0c12      	lsrs	r2, r2, #16
 80011c6:	801a      	strh	r2, [r3, #0]
 80011c8:	899a      	ldrh	r2, [r3, #12]
 80011ca:	f022 0201 	bic.w	r2, r2, #1
 80011ce:	0412      	lsls	r2, r2, #16
 80011d0:	0c12      	lsrs	r2, r2, #16
 80011d2:	819a      	strh	r2, [r3, #12]
 80011d4:	881a      	ldrh	r2, [r3, #0]
 80011d6:	f422 725c 	bic.w	r2, r2, #880	; 0x370
 80011da:	0412      	lsls	r2, r2, #16
 80011dc:	0c12      	lsrs	r2, r2, #16
 80011de:	801a      	strh	r2, [r3, #0]
 80011e0:	f642 64df 	movw	r4, #11999	; 0x2edf
 80011e4:	f64f 72fe 	movw	r2, #65534	; 0xfffe
 80011e8:	2005      	movs	r0, #5
 80011ea:	62dc      	str	r4, [r3, #44]	; 0x2c
 80011ec:	8518      	strh	r0, [r3, #40]	; 0x28
 80011ee:	8299      	strh	r1, [r3, #20]
 80011f0:	821a      	strh	r2, [r3, #16]
 80011f2:	881a      	ldrh	r2, [r3, #0]
 80011f4:	b292      	uxth	r2, r2
 80011f6:	f042 0280 	orr.w	r2, r2, #128	; 0x80
 80011fa:	801a      	strh	r2, [r3, #0]
 80011fc:	899a      	ldrh	r2, [r3, #12]
 80011fe:	b292      	uxth	r2, r2
 8001200:	430a      	orrs	r2, r1
 8001202:	819a      	strh	r2, [r3, #12]
 8001204:	881a      	ldrh	r2, [r3, #0]
 8001206:	b292      	uxth	r2, r2
 8001208:	430a      	orrs	r2, r1
 800120a:	801a      	strh	r2, [r3, #0]
 800120c:	683b      	ldr	r3, [r7, #0]
 800120e:	2b00      	cmp	r3, #0
 8001210:	d1fc      	bne.n	800120c <main+0x1084>
 8001212:	f04f 4280 	mov.w	r2, #1073741824	; 0x40000000
 8001216:	8813      	ldrh	r3, [r2, #0]
 8001218:	f023 0301 	bic.w	r3, r3, #1
 800121c:	041b      	lsls	r3, r3, #16
 800121e:	0c1b      	lsrs	r3, r3, #16
 8001220:	8013      	strh	r3, [r2, #0]
 8001222:	2302      	movs	r3, #2
 8001224:	f88d 3043 	strb.w	r3, [sp, #67]	; 0x43
 8001228:	f8db 2310 	ldr.w	r2, [fp, #784]	; 0x310
 800122c:	2a00      	cmp	r2, #0
 800122e:	d0b6      	beq.n	800119e <main+0x1016>
 8001230:	f89a 3000 	ldrb.w	r3, [sl]
 8001234:	2b0a      	cmp	r3, #10
 8001236:	d8bd      	bhi.n	80011b4 <main+0x102c>
 8001238:	a101      	add	r1, pc, #4	; (adr r1, 8001240 <main+0x10b8>)
 800123a:	f851 f023 	ldr.w	pc, [r1, r3, lsl #2]
 800123e:	bf00      	nop
 8001240:	080011ab 	.word	0x080011ab
 8001244:	0800141b 	.word	0x0800141b
 8001248:	08001d67 	.word	0x08001d67
 800124c:	080011b5 	.word	0x080011b5
 8001250:	080013d9 	.word	0x080013d9
 8001254:	080013fb 	.word	0x080013fb
 8001258:	080013a5 	.word	0x080013a5
 800125c:	0800137b 	.word	0x0800137b
 8001260:	08001355 	.word	0x08001355
 8001264:	080011b5 	.word	0x080011b5
 8001268:	080015b3 	.word	0x080015b3
 800126c:	f8d7 8000 	ldr.w	r8, [r7]
 8001270:	f1b8 0f01 	cmp.w	r8, #1
 8001274:	f001 80b5 	beq.w	80023e2 <main+0x225a>
 8001278:	4c29      	ldr	r4, [pc, #164]	; (8001320 <main+0x1198>)
 800127a:	ae11      	add	r6, sp, #68	; 0x44
 800127c:	683b      	ldr	r3, [r7, #0]
 800127e:	2b01      	cmp	r3, #1
 8001280:	f001 80a5 	beq.w	80023ce <main+0x2246>
 8001284:	4b27      	ldr	r3, [pc, #156]	; (8001324 <main+0x119c>)
 8001286:	4828      	ldr	r0, [pc, #160]	; (8001328 <main+0x11a0>)
 8001288:	6b1a      	ldr	r2, [r3, #48]	; 0x30
 800128a:	f442 1200 	orr.w	r2, r2, #2097152	; 0x200000
 800128e:	f042 0201 	orr.w	r2, r2, #1
 8001292:	631a      	str	r2, [r3, #48]	; 0x30
 8001294:	6c1a      	ldr	r2, [r3, #64]	; 0x40
 8001296:	f10d 0848 	add.w	r8, sp, #72	; 0x48
 800129a:	f042 5200 	orr.w	r2, r2, #536870912	; 0x20000000
 800129e:	641a      	str	r2, [r3, #64]	; 0x40
 80012a0:	2503      	movs	r5, #3
 80012a2:	4641      	mov	r1, r8
 80012a4:	2210      	movs	r2, #16
 80012a6:	2300      	movs	r3, #0
 80012a8:	9212      	str	r2, [sp, #72]	; 0x48
 80012aa:	f88d 304f 	strb.w	r3, [sp, #79]	; 0x4f
 80012ae:	f88d 504c 	strb.w	r5, [sp, #76]	; 0x4c
 80012b2:	f003 ff47 	bl	8005144 <GPIO_Init>
 80012b6:	4b1d      	ldr	r3, [pc, #116]	; (800132c <main+0x11a4>)
 80012b8:	9a16      	ldr	r2, [sp, #88]	; 0x58
 80012ba:	6819      	ldr	r1, [r3, #0]
 80012bc:	f8df e070 	ldr.w	lr, [pc, #112]	; 8001330 <main+0x11a8>
 80012c0:	f421 617f 	bic.w	r1, r1, #4080	; 0xff0
 80012c4:	f021 010e 	bic.w	r1, r1, #14
 80012c8:	430a      	orrs	r2, r1
 80012ca:	601a      	str	r2, [r3, #0]
 80012cc:	681a      	ldr	r2, [r3, #0]
 80012ce:	f042 0201 	orr.w	r2, r2, #1
 80012d2:	601a      	str	r2, [r3, #0]
 80012d4:	f8be 3004 	ldrh.w	r3, [lr, #4]
 80012d8:	b29b      	uxth	r3, r3
 80012da:	f043 0380 	orr.w	r3, r3, #128	; 0x80
 80012de:	f8ae 3004 	strh.w	r3, [lr, #4]
 80012e2:	2233      	movs	r2, #51	; 0x33
 80012e4:	2301      	movs	r3, #1
 80012e6:	4630      	mov	r0, r6
 80012e8:	f88d 5045 	strb.w	r5, [sp, #69]	; 0x45
 80012ec:	f88d 5046 	strb.w	r5, [sp, #70]	; 0x46
 80012f0:	f88d 2044 	strb.w	r2, [sp, #68]	; 0x44
 80012f4:	f88d 3047 	strb.w	r3, [sp, #71]	; 0x47
 80012f8:	f003 ffd0 	bl	800529c <NVIC_Init>
 80012fc:	e403      	b.n	8000b06 <main+0x97e>
 80012fe:	bf00      	nop
 8001300:	20014d90 	.word	0x20014d90
 8001304:	40020800 	.word	0x40020800
 8001308:	80000800 	.word	0x80000800
 800130c:	200004ec 	.word	0x200004ec
 8001310:	20014aec 	.word	0x20014aec
 8001314:	e000ed00 	.word	0xe000ed00
 8001318:	05fa0600 	.word	0x05fa0600
 800131c:	2000053c 	.word	0x2000053c
 8001320:	20014ab0 	.word	0x20014ab0
 8001324:	40023800 	.word	0x40023800
 8001328:	40020000 	.word	0x40020000
 800132c:	40007400 	.word	0x40007400
 8001330:	40003c00 	.word	0x40003c00
 8001334:	2221      	movs	r2, #33	; 0x21
 8001336:	21a1      	movs	r1, #161	; 0xa1
 8001338:	68eb      	ldr	r3, [r5, #12]
 800133a:	f362 040f 	bfi	r4, r2, #0, #16
 800133e:	f361 060f 	bfi	r6, r1, #0, #16
 8001342:	f2c0 0480 	movt	r4, #128	; 0x80
 8001346:	f2c0 0680 	movt	r6, #128	; 0x80
 800134a:	625a      	str	r2, [r3, #36]	; 0x24
 800134c:	629c      	str	r4, [r3, #40]	; 0x28
 800134e:	f8c3 6100 	str.w	r6, [r3, #256]	; 0x100
 8001352:	e625      	b.n	8000fa0 <main+0xe18>
 8001354:	f8da 3068 	ldr.w	r3, [sl, #104]	; 0x68
 8001358:	4cc6      	ldr	r4, [pc, #792]	; (8001674 <main+0x14ec>)
 800135a:	6b9b      	ldr	r3, [r3, #56]	; 0x38
 800135c:	4798      	blx	r3
 800135e:	2801      	cmp	r0, #1
 8001360:	f47f af28 	bne.w	80011b4 <main+0x102c>
 8001364:	6e63      	ldr	r3, [r4, #100]	; 0x64
 8001366:	48c4      	ldr	r0, [pc, #784]	; (8001678 <main+0x14f0>)
 8001368:	681b      	ldr	r3, [r3, #0]
 800136a:	4621      	mov	r1, r4
 800136c:	4798      	blx	r3
 800136e:	2800      	cmp	r0, #0
 8001370:	f47f af20 	bne.w	80011b4 <main+0x102c>
 8001374:	2305      	movs	r3, #5
 8001376:	7023      	strb	r3, [r4, #0]
 8001378:	e71c      	b.n	80011b4 <main+0x102c>
 800137a:	f89a 301c 	ldrb.w	r3, [sl, #28]
 800137e:	f88a 8012 	strb.w	r8, [sl, #18]
 8001382:	3b01      	subs	r3, #1
 8001384:	2b0a      	cmp	r3, #10
 8001386:	f63f af15 	bhi.w	80011b4 <main+0x102c>
 800138a:	e8df f013 	tbh	[pc, r3, lsl #1]
 800138e:	0454      	.short	0x0454
 8001390:	041e0441 	.word	0x041e0441
 8001394:	04880409 	.word	0x04880409
 8001398:	04b70474 	.word	0x04b70474
 800139c:	03ba03eb 	.word	0x03ba03eb
 80013a0:	03db03a9 	.word	0x03db03a9
 80013a4:	f8da 3064 	ldr.w	r3, [sl, #100]	; 0x64
 80013a8:	4cb2      	ldr	r4, [pc, #712]	; (8001674 <main+0x14ec>)
 80013aa:	48b3      	ldr	r0, [pc, #716]	; (8001678 <main+0x14f0>)
 80013ac:	68db      	ldr	r3, [r3, #12]
 80013ae:	4621      	mov	r1, r4
 80013b0:	4798      	blx	r3
 80013b2:	f88d 0043 	strb.w	r0, [sp, #67]	; 0x43
 80013b6:	f89d 3043 	ldrb.w	r3, [sp, #67]	; 0x43
 80013ba:	b2db      	uxtb	r3, r3
 80013bc:	1f1a      	subs	r2, r3, #4
 80013be:	b2d2      	uxtb	r2, r2
 80013c0:	2a01      	cmp	r2, #1
 80013c2:	f240 8555 	bls.w	8001e70 <main+0x1ce8>
 80013c6:	2b06      	cmp	r3, #6
 80013c8:	f47f aef4 	bne.w	80011b4 <main+0x102c>
 80013cc:	6ea3      	ldr	r3, [r4, #104]	; 0x68
 80013ce:	220a      	movs	r2, #10
 80013d0:	681b      	ldr	r3, [r3, #0]
 80013d2:	7022      	strb	r2, [r4, #0]
 80013d4:	4798      	blx	r3
 80013d6:	e6ed      	b.n	80011b4 <main+0x102c>
 80013d8:	f89a 3002 	ldrb.w	r3, [sl, #2]
 80013dc:	2b09      	cmp	r3, #9
 80013de:	f63f aee9 	bhi.w	80011b4 <main+0x102c>
 80013e2:	e8df f013 	tbh	[pc, r3, lsl #1]
 80013e6:	025c      	.short	0x025c
 80013e8:	02f501f0 	.word	0x02f501f0
 80013ec:	031601a1 	.word	0x031601a1
 80013f0:	017202c0 	.word	0x017202c0
 80013f4:	0124014d 	.word	0x0124014d
 80013f8:	011c      	.short	0x011c
 80013fa:	f8da 3064 	ldr.w	r3, [sl, #100]	; 0x64
 80013fe:	4c9d      	ldr	r4, [pc, #628]	; (8001674 <main+0x14ec>)
 8001400:	689b      	ldr	r3, [r3, #8]
 8001402:	489d      	ldr	r0, [pc, #628]	; (8001678 <main+0x14f0>)
 8001404:	4621      	mov	r1, r4
 8001406:	4798      	blx	r3
 8001408:	f88d 0043 	strb.w	r0, [sp, #67]	; 0x43
 800140c:	f89d 3043 	ldrb.w	r3, [sp, #67]	; 0x43
 8001410:	2b00      	cmp	r3, #0
 8001412:	d1d0      	bne.n	80013b6 <main+0x122e>
 8001414:	2306      	movs	r3, #6
 8001416:	7023      	strb	r3, [r4, #0]
 8001418:	e6cc      	b.n	80011b4 <main+0x102c>
 800141a:	f8da 3068 	ldr.w	r3, [sl, #104]	; 0x68
 800141e:	4c95      	ldr	r4, [pc, #596]	; (8001674 <main+0x14ec>)
 8001420:	689b      	ldr	r3, [r3, #8]
 8001422:	4798      	blx	r3
 8001424:	f9bb 258c 	ldrsh.w	r2, [fp, #1420]	; 0x58c
 8001428:	4b93      	ldr	r3, [pc, #588]	; (8001678 <main+0x14f0>)
 800142a:	2a00      	cmp	r2, #0
 800142c:	f280 8572 	bge.w	8001f14 <main+0x1d8c>
 8001430:	f9b3 258e 	ldrsh.w	r2, [r3, #1422]	; 0x58e
 8001434:	2a00      	cmp	r2, #0
 8001436:	f280 856a 	bge.w	8001f0e <main+0x1d86>
 800143a:	f9b3 2590 	ldrsh.w	r2, [r3, #1424]	; 0x590
 800143e:	2a00      	cmp	r2, #0
 8001440:	f280 8562 	bge.w	8001f08 <main+0x1d80>
 8001444:	f9b3 2592 	ldrsh.w	r2, [r3, #1426]	; 0x592
 8001448:	2a00      	cmp	r2, #0
 800144a:	f280 854b 	bge.w	8001ee4 <main+0x1d5c>
 800144e:	f9b3 2594 	ldrsh.w	r2, [r3, #1428]	; 0x594
 8001452:	2a00      	cmp	r2, #0
 8001454:	f280 857b 	bge.w	8001f4e <main+0x1dc6>
 8001458:	f9b3 2596 	ldrsh.w	r2, [r3, #1430]	; 0x596
 800145c:	2a00      	cmp	r2, #0
 800145e:	f280 8573 	bge.w	8001f48 <main+0x1dc0>
 8001462:	f9b3 2598 	ldrsh.w	r2, [r3, #1432]	; 0x598
 8001466:	2a00      	cmp	r2, #0
 8001468:	f280 856b 	bge.w	8001f42 <main+0x1dba>
 800146c:	f9b3 359a 	ldrsh.w	r3, [r3, #1434]	; 0x59a
 8001470:	2b00      	cmp	r3, #0
 8001472:	f280 8563 	bge.w	8001f3c <main+0x1db4>
 8001476:	23ff      	movs	r3, #255	; 0xff
 8001478:	7163      	strb	r3, [r4, #5]
 800147a:	f9bb 258e 	ldrsh.w	r2, [fp, #1422]	; 0x58e
 800147e:	4b7e      	ldr	r3, [pc, #504]	; (8001678 <main+0x14f0>)
 8001480:	2a00      	cmp	r2, #0
 8001482:	f280 8528 	bge.w	8001ed6 <main+0x1d4e>
 8001486:	f9b3 2590 	ldrsh.w	r2, [r3, #1424]	; 0x590
 800148a:	2a00      	cmp	r2, #0
 800148c:	f280 8520 	bge.w	8001ed0 <main+0x1d48>
 8001490:	f9b3 2592 	ldrsh.w	r2, [r3, #1426]	; 0x592
 8001494:	2a00      	cmp	r2, #0
 8001496:	f280 8511 	bge.w	8001ebc <main+0x1d34>
 800149a:	f9b3 2594 	ldrsh.w	r2, [r3, #1428]	; 0x594
 800149e:	2a00      	cmp	r2, #0
 80014a0:	f280 8558 	bge.w	8001f54 <main+0x1dcc>
 80014a4:	f9b3 2596 	ldrsh.w	r2, [r3, #1430]	; 0x596
 80014a8:	2a00      	cmp	r2, #0
 80014aa:	f280 8544 	bge.w	8001f36 <main+0x1dae>
 80014ae:	f9b3 2598 	ldrsh.w	r2, [r3, #1432]	; 0x598
 80014b2:	2a00      	cmp	r2, #0
 80014b4:	f280 853c 	bge.w	8001f30 <main+0x1da8>
 80014b8:	f9b3 359a 	ldrsh.w	r3, [r3, #1434]	; 0x59a
 80014bc:	2b00      	cmp	r3, #0
 80014be:	bfb8      	it	lt
 80014c0:	23ff      	movlt	r3, #255	; 0xff
 80014c2:	f280 8532 	bge.w	8001f2a <main+0x1da2>
 80014c6:	486c      	ldr	r0, [pc, #432]	; (8001678 <main+0x14f0>)
 80014c8:	f88a 3004 	strb.w	r3, [sl, #4]
 80014cc:	f003 fa8c 	bl	80049e8 <USB_OTG_ResetPort>
 80014d0:	f8da 3068 	ldr.w	r3, [sl, #104]	; 0x68
 80014d4:	68db      	ldr	r3, [r3, #12]
 80014d6:	4798      	blx	r3
 80014d8:	f8db 20cc 	ldr.w	r2, [fp, #204]	; 0xcc
 80014dc:	f8da 3068 	ldr.w	r3, [sl, #104]	; 0x68
 80014e0:	6810      	ldr	r0, [r2, #0]
 80014e2:	f3c0 4041 	ubfx	r0, r0, #17, #2
 80014e6:	f88a 0021 	strb.w	r0, [sl, #33]	; 0x21
 80014ea:	2204      	movs	r2, #4
 80014ec:	f000 0003 	and.w	r0, r0, #3
 80014f0:	699b      	ldr	r3, [r3, #24]
 80014f2:	f88a 2000 	strb.w	r2, [sl]
 80014f6:	4798      	blx	r3
 80014f8:	f89a 1004 	ldrb.w	r1, [sl, #4]
 80014fc:	f89a 2021 	ldrb.w	r2, [sl, #33]	; 0x21
 8001500:	eb0b 0041 	add.w	r0, fp, r1, lsl #1
 8001504:	eb0b 1341 	add.w	r3, fp, r1, lsl #5
 8001508:	f8b0 458c 	ldrh.w	r4, [r0, #1420]	; 0x58c
 800150c:	f883 83b1 	strb.w	r8, [r3, #945]	; 0x3b1
 8001510:	f004 057f 	and.w	r5, r4, #127	; 0x7f
 8001514:	f101 001e 	add.w	r0, r1, #30
 8001518:	f3c4 14c0 	ubfx	r4, r4, #7, #1
 800151c:	f883 43ae 	strb.w	r4, [r3, #942]	; 0x3ae
 8001520:	eb0b 1040 	add.w	r0, fp, r0, lsl #5
 8001524:	f89a 4020 	ldrb.w	r4, [sl, #32]
 8001528:	f883 43ac 	strb.w	r4, [r3, #940]	; 0x3ac
 800152c:	f89a 4006 	ldrb.w	r4, [sl, #6]
 8001530:	f883 53ad 	strb.w	r5, [r3, #941]	; 0x3ad
 8001534:	f8a3 43b2 	strh.w	r4, [r3, #946]	; 0x3b2
 8001538:	f883 23af 	strb.w	r2, [r3, #943]	; 0x3af
 800153c:	f503 736a 	add.w	r3, r3, #936	; 0x3a8
 8001540:	f880 8004 	strb.w	r8, [r0, #4]
 8001544:	f880 8005 	strb.w	r8, [r0, #5]
 8001548:	b90a      	cbnz	r2, 800154e <main+0x13c6>
 800154a:	2201      	movs	r2, #1
 800154c:	721a      	strb	r2, [r3, #8]
 800154e:	484a      	ldr	r0, [pc, #296]	; (8001678 <main+0x14f0>)
 8001550:	f003 fede 	bl	8005310 <USB_OTG_HC_Init>
 8001554:	f89a 1005 	ldrb.w	r1, [sl, #5]
 8001558:	f89a 2021 	ldrb.w	r2, [sl, #33]	; 0x21
 800155c:	eb0b 0041 	add.w	r0, fp, r1, lsl #1
 8001560:	eb0b 1341 	add.w	r3, fp, r1, lsl #5
 8001564:	f8b0 458c 	ldrh.w	r4, [r0, #1420]	; 0x58c
 8001568:	f883 83b1 	strb.w	r8, [r3, #945]	; 0x3b1
 800156c:	f004 057f 	and.w	r5, r4, #127	; 0x7f
 8001570:	f101 001e 	add.w	r0, r1, #30
 8001574:	f3c4 14c0 	ubfx	r4, r4, #7, #1
 8001578:	f883 43ae 	strb.w	r4, [r3, #942]	; 0x3ae
 800157c:	eb0b 1040 	add.w	r0, fp, r0, lsl #5
 8001580:	f89a 4020 	ldrb.w	r4, [sl, #32]
 8001584:	f883 43ac 	strb.w	r4, [r3, #940]	; 0x3ac
 8001588:	f89a 4006 	ldrb.w	r4, [sl, #6]
 800158c:	f883 53ad 	strb.w	r5, [r3, #941]	; 0x3ad
 8001590:	f8a3 43b2 	strh.w	r4, [r3, #946]	; 0x3b2
 8001594:	f883 23af 	strb.w	r2, [r3, #943]	; 0x3af
 8001598:	f503 736a 	add.w	r3, r3, #936	; 0x3a8
 800159c:	f880 8004 	strb.w	r8, [r0, #4]
 80015a0:	f880 8005 	strb.w	r8, [r0, #5]
 80015a4:	b90a      	cbnz	r2, 80015aa <main+0x1422>
 80015a6:	2201      	movs	r2, #1
 80015a8:	721a      	strb	r2, [r3, #8]
 80015aa:	4833      	ldr	r0, [pc, #204]	; (8001678 <main+0x14f0>)
 80015ac:	f003 feb0 	bl	8005310 <USB_OTG_HC_Init>
 80015b0:	e600      	b.n	80011b4 <main+0x102c>
 80015b2:	f89a 2004 	ldrb.w	r2, [sl, #4]
 80015b6:	f88a 8000 	strb.w	r8, [sl]
 80015ba:	2301      	movs	r3, #1
 80015bc:	f88a 3003 	strb.w	r3, [sl, #3]
 80015c0:	f88a 301c 	strb.w	r3, [sl, #28]
 80015c4:	f88a 3021 	strb.w	r3, [sl, #33]	; 0x21
 80015c8:	2a07      	cmp	r2, #7
 80015ca:	f04f 0340 	mov.w	r3, #64	; 0x40
 80015ce:	f88a 8001 	strb.w	r8, [sl, #1]
 80015d2:	f88a 8002 	strb.w	r8, [sl, #2]
 80015d6:	f88a 8020 	strb.w	r8, [sl, #32]
 80015da:	f88a 3006 	strb.w	r3, [sl, #6]
 80015de:	d807      	bhi.n	80015f0 <main+0x1468>
 80015e0:	f502 7331 	add.w	r3, r2, #708	; 0x2c4
 80015e4:	eb0b 0343 	add.w	r3, fp, r3, lsl #1
 80015e8:	889a      	ldrh	r2, [r3, #4]
 80015ea:	f3c2 020e 	ubfx	r2, r2, #0, #15
 80015ee:	809a      	strh	r2, [r3, #4]
 80015f0:	f89a 3005 	ldrb.w	r3, [sl, #5]
 80015f4:	2b07      	cmp	r3, #7
 80015f6:	d807      	bhi.n	8001608 <main+0x1480>
 80015f8:	f503 7331 	add.w	r3, r3, #708	; 0x2c4
 80015fc:	eb0b 0343 	add.w	r3, fp, r3, lsl #1
 8001600:	889a      	ldrh	r2, [r3, #4]
 8001602:	f3c2 020e 	ubfx	r2, r2, #0, #15
 8001606:	809a      	strh	r2, [r3, #4]
 8001608:	f8da 3068 	ldr.w	r3, [sl, #104]	; 0x68
 800160c:	685b      	ldr	r3, [r3, #4]
 800160e:	4798      	blx	r3
 8001610:	f8da 3064 	ldr.w	r3, [sl, #100]	; 0x64
 8001614:	4818      	ldr	r0, [pc, #96]	; (8001678 <main+0x14f0>)
 8001616:	685b      	ldr	r3, [r3, #4]
 8001618:	4918      	ldr	r1, [pc, #96]	; (800167c <main+0x14f4>)
 800161a:	4798      	blx	r3
 800161c:	e5ca      	b.n	80011b4 <main+0x102c>
 800161e:	f8da 3068 	ldr.w	r3, [sl, #104]	; 0x68
 8001622:	6b5b      	ldr	r3, [r3, #52]	; 0x34
 8001624:	4798      	blx	r3
 8001626:	2308      	movs	r3, #8
 8001628:	f88a 3000 	strb.w	r3, [sl]
 800162c:	e5c2      	b.n	80011b4 <main+0x102c>
 800162e:	f89a 2003 	ldrb.w	r2, [sl, #3]
 8001632:	f89a 3039 	ldrb.w	r3, [sl, #57]	; 0x39
 8001636:	f8aa 3016 	strh.w	r3, [sl, #22]
 800163a:	2109      	movs	r1, #9
 800163c:	2a01      	cmp	r2, #1
 800163e:	f88a 8014 	strb.w	r8, [sl, #20]
 8001642:	f8aa 8018 	strh.w	r8, [sl, #24]
 8001646:	f8aa 801a 	strh.w	r8, [sl, #26]
 800164a:	f88a 1015 	strb.w	r1, [sl, #21]
 800164e:	4b09      	ldr	r3, [pc, #36]	; (8001674 <main+0x14ec>)
 8001650:	f000 84b0 	beq.w	8001fb4 <main+0x1e2c>
 8001654:	2a02      	cmp	r2, #2
 8001656:	f47f adad 	bne.w	80011b4 <main+0x102c>
 800165a:	7f1a      	ldrb	r2, [r3, #28]
 800165c:	2a0d      	cmp	r2, #13
 800165e:	f000 8620 	beq.w	80022a2 <main+0x211a>
 8001662:	3a0b      	subs	r2, #11
 8001664:	b2d2      	uxtb	r2, r2
 8001666:	2a01      	cmp	r2, #1
 8001668:	f63f ada4 	bhi.w	80011b4 <main+0x102c>
 800166c:	2201      	movs	r2, #1
 800166e:	70da      	strb	r2, [r3, #3]
 8001670:	e5a0      	b.n	80011b4 <main+0x102c>
 8001672:	bf00      	nop
 8001674:	2000053c 	.word	0x2000053c
 8001678:	20014d90 	.word	0x20014d90
 800167c:	2000055c 	.word	0x2000055c
 8001680:	f89a 2032 	ldrb.w	r2, [sl, #50]	; 0x32
 8001684:	4cd0      	ldr	r4, [pc, #832]	; (80019c8 <main+0x1840>)
 8001686:	2a00      	cmp	r2, #0
 8001688:	f000 8447 	beq.w	8001f1a <main+0x1d92>
 800168c:	f442 7240 	orr.w	r2, r2, #768	; 0x300
 8001690:	78e3      	ldrb	r3, [r4, #3]
 8001692:	82e2      	strh	r2, [r4, #22]
 8001694:	2180      	movs	r1, #128	; 0x80
 8001696:	2206      	movs	r2, #6
 8001698:	7521      	strb	r1, [r4, #20]
 800169a:	7562      	strb	r2, [r4, #21]
 800169c:	f240 4109 	movw	r1, #1033	; 0x409
 80016a0:	22ff      	movs	r2, #255	; 0xff
 80016a2:	2b01      	cmp	r3, #1
 80016a4:	8321      	strh	r1, [r4, #24]
 80016a6:	8362      	strh	r2, [r4, #26]
 80016a8:	f000 8418 	beq.w	8001edc <main+0x1d54>
 80016ac:	2b02      	cmp	r3, #2
 80016ae:	f47f ad81 	bne.w	80011b4 <main+0x102c>
 80016b2:	7f23      	ldrb	r3, [r4, #28]
 80016b4:	2b0d      	cmp	r3, #13
 80016b6:	f000 8602 	beq.w	80022be <main+0x2136>
 80016ba:	3b0b      	subs	r3, #11
 80016bc:	b2db      	uxtb	r3, r3
 80016be:	2b01      	cmp	r3, #1
 80016c0:	f63f ad78 	bhi.w	80011b4 <main+0x102c>
 80016c4:	2301      	movs	r3, #1
 80016c6:	70e3      	strb	r3, [r4, #3]
 80016c8:	e574      	b.n	80011b4 <main+0x102c>
 80016ca:	f89a 2031 	ldrb.w	r2, [sl, #49]	; 0x31
 80016ce:	4cbe      	ldr	r4, [pc, #760]	; (80019c8 <main+0x1840>)
 80016d0:	2a00      	cmp	r2, #0
 80016d2:	f000 845f 	beq.w	8001f94 <main+0x1e0c>
 80016d6:	f442 7240 	orr.w	r2, r2, #768	; 0x300
 80016da:	78e3      	ldrb	r3, [r4, #3]
 80016dc:	82e2      	strh	r2, [r4, #22]
 80016de:	2180      	movs	r1, #128	; 0x80
 80016e0:	2206      	movs	r2, #6
 80016e2:	7521      	strb	r1, [r4, #20]
 80016e4:	7562      	strb	r2, [r4, #21]
 80016e6:	f240 4109 	movw	r1, #1033	; 0x409
 80016ea:	22ff      	movs	r2, #255	; 0xff
 80016ec:	2b01      	cmp	r3, #1
 80016ee:	8321      	strh	r1, [r4, #24]
 80016f0:	8362      	strh	r2, [r4, #26]
 80016f2:	f000 83c4 	beq.w	8001e7e <main+0x1cf6>
 80016f6:	2b02      	cmp	r3, #2
 80016f8:	f47f ad5c 	bne.w	80011b4 <main+0x102c>
 80016fc:	7f23      	ldrb	r3, [r4, #28]
 80016fe:	2b0d      	cmp	r3, #13
 8001700:	d1db      	bne.n	80016ba <main+0x1532>
 8001702:	f89b 2111 	ldrb.w	r2, [fp, #273]	; 0x111
 8001706:	f884 801c 	strb.w	r8, [r4, #28]
 800170a:	2301      	movs	r3, #1
 800170c:	2a03      	cmp	r2, #3
 800170e:	70e3      	strb	r3, [r4, #3]
 8001710:	4bae      	ldr	r3, [pc, #696]	; (80019cc <main+0x1844>)
 8001712:	f000 8604 	beq.w	800231e <main+0x2196>
 8001716:	f8da 3068 	ldr.w	r3, [sl, #104]	; 0x68
 800171a:	9802      	ldr	r0, [sp, #8]
 800171c:	6adb      	ldr	r3, [r3, #44]	; 0x2c
 800171e:	4798      	blx	r3
 8001720:	2307      	movs	r3, #7
 8001722:	f88a 3002 	strb.w	r3, [sl, #2]
 8001726:	e545      	b.n	80011b4 <main+0x102c>
 8001728:	f89a 2003 	ldrb.w	r2, [sl, #3]
 800172c:	f8aa 8018 	strh.w	r8, [sl, #24]
 8001730:	2180      	movs	r1, #128	; 0x80
 8001732:	f44f 7300 	mov.w	r3, #512	; 0x200
 8001736:	2006      	movs	r0, #6
 8001738:	f88a 1014 	strb.w	r1, [sl, #20]
 800173c:	2a01      	cmp	r2, #1
 800173e:	f04f 0109 	mov.w	r1, #9
 8001742:	f8aa 3016 	strh.w	r3, [sl, #22]
 8001746:	f88a 0015 	strb.w	r0, [sl, #21]
 800174a:	f8aa 101a 	strh.w	r1, [sl, #26]
 800174e:	4b9e      	ldr	r3, [pc, #632]	; (80019c8 <main+0x1840>)
 8001750:	f000 841b 	beq.w	8001f8a <main+0x1e02>
 8001754:	2a02      	cmp	r2, #2
 8001756:	f47f ad2d 	bne.w	80011b4 <main+0x102c>
 800175a:	7f1a      	ldrb	r2, [r3, #28]
 800175c:	2a0d      	cmp	r2, #13
 800175e:	d180      	bne.n	8001662 <main+0x14da>
 8001760:	f89b 1113 	ldrb.w	r1, [fp, #275]	; 0x113
 8001764:	f89b 0112 	ldrb.w	r0, [fp, #274]	; 0x112
 8001768:	70b0      	strb	r0, [r6, #2]
 800176a:	eb00 2001 	add.w	r0, r0, r1, lsl #8
 800176e:	f89b 2110 	ldrb.w	r2, [fp, #272]	; 0x110
 8001772:	86d8      	strh	r0, [r3, #54]	; 0x36
 8001774:	f89b 0111 	ldrb.w	r0, [fp, #273]	; 0x111
 8001778:	70f1      	strb	r1, [r6, #3]
 800177a:	7032      	strb	r2, [r6, #0]
 800177c:	f89b 1114 	ldrb.w	r1, [fp, #276]	; 0x114
 8001780:	f883 2034 	strb.w	r2, [r3, #52]	; 0x34
 8001784:	7070      	strb	r0, [r6, #1]
 8001786:	f89b 2115 	ldrb.w	r2, [fp, #277]	; 0x115
 800178a:	f883 0035 	strb.w	r0, [r3, #53]	; 0x35
 800178e:	f89b 0116 	ldrb.w	r0, [fp, #278]	; 0x116
 8001792:	7131      	strb	r1, [r6, #4]
 8001794:	2401      	movs	r4, #1
 8001796:	f883 1038 	strb.w	r1, [r3, #56]	; 0x38
 800179a:	7172      	strb	r2, [r6, #5]
 800179c:	f89b 1117 	ldrb.w	r1, [fp, #279]	; 0x117
 80017a0:	f883 2039 	strb.w	r2, [r3, #57]	; 0x39
 80017a4:	71b0      	strb	r0, [r6, #6]
 80017a6:	f89b 2118 	ldrb.w	r2, [fp, #280]	; 0x118
 80017aa:	f883 003a 	strb.w	r0, [r3, #58]	; 0x3a
 80017ae:	2004      	movs	r0, #4
 80017b0:	f883 801c 	strb.w	r8, [r3, #28]
 80017b4:	70dc      	strb	r4, [r3, #3]
 80017b6:	71f1      	strb	r1, [r6, #7]
 80017b8:	f883 103b 	strb.w	r1, [r3, #59]	; 0x3b
 80017bc:	7232      	strb	r2, [r6, #8]
 80017be:	f883 203c 	strb.w	r2, [r3, #60]	; 0x3c
 80017c2:	7098      	strb	r0, [r3, #2]
 80017c4:	e4f6      	b.n	80011b4 <main+0x102c>
 80017c6:	f89a 5003 	ldrb.w	r5, [sl, #3]
 80017ca:	f8aa 8018 	strh.w	r8, [sl, #24]
 80017ce:	2380      	movs	r3, #128	; 0x80
 80017d0:	2106      	movs	r1, #6
 80017d2:	f44f 7280 	mov.w	r2, #256	; 0x100
 80017d6:	f88a 3014 	strb.w	r3, [sl, #20]
 80017da:	2d01      	cmp	r5, #1
 80017dc:	f04f 0312 	mov.w	r3, #18
 80017e0:	f88a 1015 	strb.w	r1, [sl, #21]
 80017e4:	f8aa 2016 	strh.w	r2, [sl, #22]
 80017e8:	f8aa 301a 	strh.w	r3, [sl, #26]
 80017ec:	4c76      	ldr	r4, [pc, #472]	; (80019c8 <main+0x1840>)
 80017ee:	f000 83b4 	beq.w	8001f5a <main+0x1dd2>
 80017f2:	2d02      	cmp	r5, #2
 80017f4:	f47f acde 	bne.w	80011b4 <main+0x102c>
 80017f8:	7f23      	ldrb	r3, [r4, #28]
 80017fa:	2b0d      	cmp	r3, #13
 80017fc:	f47f af5d 	bne.w	80016ba <main+0x1532>
 8001800:	f89b 2112 	ldrb.w	r2, [fp, #274]	; 0x112
 8001804:	f89b 3118 	ldrb.w	r3, [fp, #280]	; 0x118
 8001808:	f89b 1113 	ldrb.w	r1, [fp, #275]	; 0x113
 800180c:	f89b 0119 	ldrb.w	r0, [fp, #281]	; 0x119
 8001810:	f884 801c 	strb.w	r8, [r4, #28]
 8001814:	eb02 2101 	add.w	r1, r2, r1, lsl #8
 8001818:	eb03 2000 	add.w	r0, r3, r0, lsl #8
 800181c:	f89b 211b 	ldrb.w	r2, [fp, #283]	; 0x11b
 8001820:	f89b 311a 	ldrb.w	r3, [fp, #282]	; 0x11a
 8001824:	84a1      	strh	r1, [r4, #36]	; 0x24
 8001826:	eb03 2302 	add.w	r3, r3, r2, lsl #8
 800182a:	f89b 111d 	ldrb.w	r1, [fp, #285]	; 0x11d
 800182e:	f89b 211c 	ldrb.w	r2, [fp, #284]	; 0x11c
 8001832:	85a3      	strh	r3, [r4, #44]	; 0x2c
 8001834:	eb02 2101 	add.w	r1, r2, r1, lsl #8
 8001838:	f89b 3110 	ldrb.w	r3, [fp, #272]	; 0x110
 800183c:	85e1      	strh	r1, [r4, #46]	; 0x2e
 800183e:	2201      	movs	r2, #1
 8001840:	f89b 1111 	ldrb.w	r1, [fp, #273]	; 0x111
 8001844:	70e2      	strb	r2, [r4, #3]
 8001846:	f884 3022 	strb.w	r3, [r4, #34]	; 0x22
 800184a:	f89b 2114 	ldrb.w	r2, [fp, #276]	; 0x114
 800184e:	f89b 3115 	ldrb.w	r3, [fp, #277]	; 0x115
 8001852:	f884 1023 	strb.w	r1, [r4, #35]	; 0x23
 8001856:	f884 2026 	strb.w	r2, [r4, #38]	; 0x26
 800185a:	f89b 1116 	ldrb.w	r1, [fp, #278]	; 0x116
 800185e:	f89b 2117 	ldrb.w	r2, [fp, #279]	; 0x117
 8001862:	f884 3027 	strb.w	r3, [r4, #39]	; 0x27
 8001866:	f89b 311e 	ldrb.w	r3, [fp, #286]	; 0x11e
 800186a:	f884 1028 	strb.w	r1, [r4, #40]	; 0x28
 800186e:	f884 2029 	strb.w	r2, [r4, #41]	; 0x29
 8001872:	f89b 111f 	ldrb.w	r1, [fp, #287]	; 0x11f
 8001876:	f89b 2120 	ldrb.w	r2, [fp, #288]	; 0x120
 800187a:	f884 3030 	strb.w	r3, [r4, #48]	; 0x30
 800187e:	f89b 3121 	ldrb.w	r3, [fp, #289]	; 0x121
 8001882:	8560      	strh	r0, [r4, #42]	; 0x2a
 8001884:	f884 1031 	strb.w	r1, [r4, #49]	; 0x31
 8001888:	f884 2032 	strb.w	r2, [r4, #50]	; 0x32
 800188c:	f884 3033 	strb.w	r3, [r4, #51]	; 0x33
 8001890:	6ea3      	ldr	r3, [r4, #104]	; 0x68
 8001892:	f104 0022 	add.w	r0, r4, #34	; 0x22
 8001896:	69db      	ldr	r3, [r3, #28]
 8001898:	4798      	blx	r3
 800189a:	70a5      	strb	r5, [r4, #2]
 800189c:	e48a      	b.n	80011b4 <main+0x102c>
 800189e:	f89a 3003 	ldrb.w	r3, [sl, #3]
 80018a2:	f8aa 8018 	strh.w	r8, [sl, #24]
 80018a6:	2280      	movs	r2, #128	; 0x80
 80018a8:	2006      	movs	r0, #6
 80018aa:	f44f 7180 	mov.w	r1, #256	; 0x100
 80018ae:	f88a 2014 	strb.w	r2, [sl, #20]
 80018b2:	2b01      	cmp	r3, #1
 80018b4:	f04f 0208 	mov.w	r2, #8
 80018b8:	f88a 0015 	strb.w	r0, [sl, #21]
 80018bc:	f8aa 1016 	strh.w	r1, [sl, #22]
 80018c0:	f8aa 201a 	strh.w	r2, [sl, #26]
 80018c4:	4c40      	ldr	r4, [pc, #256]	; (80019c8 <main+0x1840>)
 80018c6:	f000 82da 	beq.w	8001e7e <main+0x1cf6>
 80018ca:	2b02      	cmp	r3, #2
 80018cc:	f47f ac72 	bne.w	80011b4 <main+0x102c>
 80018d0:	7f23      	ldrb	r3, [r4, #28]
 80018d2:	2b0d      	cmp	r3, #13
 80018d4:	f47f aef1 	bne.w	80016ba <main+0x1532>
 80018d8:	f89b 0113 	ldrb.w	r0, [fp, #275]	; 0x113
 80018dc:	f89b 3112 	ldrb.w	r3, [fp, #274]	; 0x112
 80018e0:	f89b 1110 	ldrb.w	r1, [fp, #272]	; 0x110
 80018e4:	f89b 2111 	ldrb.w	r2, [fp, #273]	; 0x111
 80018e8:	f884 1022 	strb.w	r1, [r4, #34]	; 0x22
 80018ec:	eb03 2300 	add.w	r3, r3, r0, lsl #8
 80018f0:	84a3      	strh	r3, [r4, #36]	; 0x24
 80018f2:	f89b 3114 	ldrb.w	r3, [fp, #276]	; 0x114
 80018f6:	f89b 1115 	ldrb.w	r1, [fp, #277]	; 0x115
 80018fa:	f884 2023 	strb.w	r2, [r4, #35]	; 0x23
 80018fe:	f884 3026 	strb.w	r3, [r4, #38]	; 0x26
 8001902:	f89b 2116 	ldrb.w	r2, [fp, #278]	; 0x116
 8001906:	f89b 3117 	ldrb.w	r3, [fp, #279]	; 0x117
 800190a:	f884 1027 	strb.w	r1, [r4, #39]	; 0x27
 800190e:	2501      	movs	r5, #1
 8001910:	f884 2028 	strb.w	r2, [r4, #40]	; 0x28
 8001914:	f884 3029 	strb.w	r3, [r4, #41]	; 0x29
 8001918:	482c      	ldr	r0, [pc, #176]	; (80019cc <main+0x1844>)
 800191a:	71a3      	strb	r3, [r4, #6]
 800191c:	f884 801c 	strb.w	r8, [r4, #28]
 8001920:	70e5      	strb	r5, [r4, #3]
 8001922:	f003 f861 	bl	80049e8 <USB_OTG_ResetPort>
 8001926:	7961      	ldrb	r1, [r4, #5]
 8001928:	79a3      	ldrb	r3, [r4, #6]
 800192a:	70a5      	strb	r5, [r4, #2]
 800192c:	eb0b 1241 	add.w	r2, fp, r1, lsl #5
 8001930:	f502 726a 	add.w	r2, r2, #936	; 0x3a8
 8001934:	8950      	ldrh	r0, [r2, #10]
 8001936:	4298      	cmp	r0, r3
 8001938:	d001      	beq.n	800193e <main+0x17b6>
 800193a:	b103      	cbz	r3, 800193e <main+0x17b6>
 800193c:	8153      	strh	r3, [r2, #10]
 800193e:	4823      	ldr	r0, [pc, #140]	; (80019cc <main+0x1844>)
 8001940:	f003 fce6 	bl	8005310 <USB_OTG_HC_Init>
 8001944:	f89a 1004 	ldrb.w	r1, [sl, #4]
 8001948:	f89a 3006 	ldrb.w	r3, [sl, #6]
 800194c:	eb0b 1241 	add.w	r2, fp, r1, lsl #5
 8001950:	f502 726a 	add.w	r2, r2, #936	; 0x3a8
 8001954:	8950      	ldrh	r0, [r2, #10]
 8001956:	4298      	cmp	r0, r3
 8001958:	f43f ae27 	beq.w	80015aa <main+0x1422>
 800195c:	2b00      	cmp	r3, #0
 800195e:	f43f ae24 	beq.w	80015aa <main+0x1422>
 8001962:	8153      	strh	r3, [r2, #10]
 8001964:	e621      	b.n	80015aa <main+0x1422>
 8001966:	f89a 2030 	ldrb.w	r2, [sl, #48]	; 0x30
 800196a:	4c17      	ldr	r4, [pc, #92]	; (80019c8 <main+0x1840>)
 800196c:	2a00      	cmp	r2, #0
 800196e:	f000 8319 	beq.w	8001fa4 <main+0x1e1c>
 8001972:	f442 7240 	orr.w	r2, r2, #768	; 0x300
 8001976:	78e3      	ldrb	r3, [r4, #3]
 8001978:	82e2      	strh	r2, [r4, #22]
 800197a:	2180      	movs	r1, #128	; 0x80
 800197c:	2206      	movs	r2, #6
 800197e:	7521      	strb	r1, [r4, #20]
 8001980:	7562      	strb	r2, [r4, #21]
 8001982:	f240 4109 	movw	r1, #1033	; 0x409
 8001986:	22ff      	movs	r2, #255	; 0xff
 8001988:	2b01      	cmp	r3, #1
 800198a:	8321      	strh	r1, [r4, #24]
 800198c:	8362      	strh	r2, [r4, #26]
 800198e:	f000 82a5 	beq.w	8001edc <main+0x1d54>
 8001992:	2b02      	cmp	r3, #2
 8001994:	f47f ac0e 	bne.w	80011b4 <main+0x102c>
 8001998:	7f23      	ldrb	r3, [r4, #28]
 800199a:	2b0d      	cmp	r3, #13
 800199c:	f47f ae8d 	bne.w	80016ba <main+0x1532>
 80019a0:	f89b 2111 	ldrb.w	r2, [fp, #273]	; 0x111
 80019a4:	f884 801c 	strb.w	r8, [r4, #28]
 80019a8:	2301      	movs	r3, #1
 80019aa:	2a03      	cmp	r2, #3
 80019ac:	70e3      	strb	r3, [r4, #3]
 80019ae:	4b07      	ldr	r3, [pc, #28]	; (80019cc <main+0x1844>)
 80019b0:	f000 84e8 	beq.w	8002384 <main+0x21fc>
 80019b4:	f8da 3068 	ldr.w	r3, [sl, #104]	; 0x68
 80019b8:	9802      	ldr	r0, [sp, #8]
 80019ba:	6a9b      	ldr	r3, [r3, #40]	; 0x28
 80019bc:	4798      	blx	r3
 80019be:	2306      	movs	r3, #6
 80019c0:	f88a 3002 	strb.w	r3, [sl, #2]
 80019c4:	f7ff bbf6 	b.w	80011b4 <main+0x102c>
 80019c8:	2000053c 	.word	0x2000053c
 80019cc:	20014d90 	.word	0x20014d90
 80019d0:	f89a 1003 	ldrb.w	r1, [sl, #3]
 80019d4:	f88a 8014 	strb.w	r8, [sl, #20]
 80019d8:	2001      	movs	r0, #1
 80019da:	2405      	movs	r4, #5
 80019dc:	4281      	cmp	r1, r0
 80019de:	f8aa 8018 	strh.w	r8, [sl, #24]
 80019e2:	f8aa 801a 	strh.w	r8, [sl, #26]
 80019e6:	f88a 4015 	strb.w	r4, [sl, #21]
 80019ea:	f8aa 0016 	strh.w	r0, [sl, #22]
 80019ee:	4ad3      	ldr	r2, [pc, #844]	; (8001d3c <main+0x1bb4>)
 80019f0:	f000 82ed 	beq.w	8001fce <main+0x1e46>
 80019f4:	2902      	cmp	r1, #2
 80019f6:	f47f abdd 	bne.w	80011b4 <main+0x102c>
 80019fa:	7f13      	ldrb	r3, [r2, #28]
 80019fc:	2b0d      	cmp	r3, #13
 80019fe:	f000 83f2 	beq.w	80021e6 <main+0x205e>
 8001a02:	3b0b      	subs	r3, #11
 8001a04:	b2db      	uxtb	r3, r3
 8001a06:	2b01      	cmp	r3, #1
 8001a08:	f63f abd4 	bhi.w	80011b4 <main+0x102c>
 8001a0c:	70d0      	strb	r0, [r2, #3]
 8001a0e:	f7ff bbd1 	b.w	80011b4 <main+0x102c>
 8001a12:	f89a 2003 	ldrb.w	r2, [sl, #3]
 8001a16:	f8ba 4036 	ldrh.w	r4, [sl, #54]	; 0x36
 8001a1a:	f8aa 8018 	strh.w	r8, [sl, #24]
 8001a1e:	2380      	movs	r3, #128	; 0x80
 8001a20:	2106      	movs	r1, #6
 8001a22:	f88a 3014 	strb.w	r3, [sl, #20]
 8001a26:	2a01      	cmp	r2, #1
 8001a28:	f44f 7300 	mov.w	r3, #512	; 0x200
 8001a2c:	f8aa 3016 	strh.w	r3, [sl, #22]
 8001a30:	f8aa 401a 	strh.w	r4, [sl, #26]
 8001a34:	f88a 1015 	strb.w	r1, [sl, #21]
 8001a38:	4bc0      	ldr	r3, [pc, #768]	; (8001d3c <main+0x1bb4>)
 8001a3a:	f000 829a 	beq.w	8001f72 <main+0x1dea>
 8001a3e:	2a02      	cmp	r2, #2
 8001a40:	f47f abb8 	bne.w	80011b4 <main+0x102c>
 8001a44:	7f1a      	ldrb	r2, [r3, #28]
 8001a46:	2a0d      	cmp	r2, #13
 8001a48:	f47f ae0b 	bne.w	8001662 <main+0x14da>
 8001a4c:	2201      	movs	r2, #1
 8001a4e:	f883 801c 	strb.w	r8, [r3, #28]
 8001a52:	70da      	strb	r2, [r3, #3]
 8001a54:	b124      	cbz	r4, 8001a60 <main+0x18d8>
 8001a56:	48ba      	ldr	r0, [pc, #744]	; (8001d40 <main+0x1bb8>)
 8001a58:	49ba      	ldr	r1, [pc, #744]	; (8001d44 <main+0x1bbc>)
 8001a5a:	4622      	mov	r2, r4
 8001a5c:	f008 fb00 	bl	800a060 <memcpy>
 8001a60:	f89b 2113 	ldrb.w	r2, [fp, #275]	; 0x113
 8001a64:	f89b 1110 	ldrb.w	r1, [fp, #272]	; 0x110
 8001a68:	f89b 3112 	ldrb.w	r3, [fp, #274]	; 0x112
 8001a6c:	f88a 1034 	strb.w	r1, [sl, #52]	; 0x34
 8001a70:	f89b 1111 	ldrb.w	r1, [fp, #273]	; 0x111
 8001a74:	f89b 0115 	ldrb.w	r0, [fp, #277]	; 0x115
 8001a78:	f88a 1035 	strb.w	r1, [sl, #53]	; 0x35
 8001a7c:	eb03 2302 	add.w	r3, r3, r2, lsl #8
 8001a80:	f89b 1116 	ldrb.w	r1, [fp, #278]	; 0x116
 8001a84:	f89b 2114 	ldrb.w	r2, [fp, #276]	; 0x114
 8001a88:	f88a 0039 	strb.w	r0, [sl, #57]	; 0x39
 8001a8c:	b29b      	uxth	r3, r3
 8001a8e:	f89b 0117 	ldrb.w	r0, [fp, #279]	; 0x117
 8001a92:	f88a 103a 	strb.w	r1, [sl, #58]	; 0x3a
 8001a96:	2c09      	cmp	r4, #9
 8001a98:	f89b 1118 	ldrb.w	r1, [fp, #280]	; 0x118
 8001a9c:	f8aa 3036 	strh.w	r3, [sl, #54]	; 0x36
 8001aa0:	f88a 2038 	strb.w	r2, [sl, #56]	; 0x38
 8001aa4:	f88a 003b 	strb.w	r0, [sl, #59]	; 0x3b
 8001aa8:	f88a 103c 	strb.w	r1, [sl, #60]	; 0x3c
 8001aac:	d90a      	bls.n	8001ac4 <main+0x193c>
 8001aae:	2a01      	cmp	r2, #1
 8001ab0:	f240 82d6 	bls.w	8002060 <main+0x1ed8>
 8001ab4:	f8df c2a0 	ldr.w	ip, [pc, #672]	; 8001d58 <main+0x1bd0>
 8001ab8:	f8df e2a0 	ldr.w	lr, [pc, #672]	; 8001d5c <main+0x1bd4>
 8001abc:	f8ac 8000 	strh.w	r8, [ip]
 8001ac0:	f88e 8000 	strb.w	r8, [lr]
 8001ac4:	48a0      	ldr	r0, [pc, #640]	; (8001d48 <main+0x1bc0>)
 8001ac6:	f8da 3068 	ldr.w	r3, [sl, #104]	; 0x68
 8001aca:	f100 010a 	add.w	r1, r0, #10
 8001ace:	6a5b      	ldr	r3, [r3, #36]	; 0x24
 8001ad0:	f100 0214 	add.w	r2, r0, #20
 8001ad4:	4798      	blx	r3
 8001ad6:	2305      	movs	r3, #5
 8001ad8:	f88a 3002 	strb.w	r3, [sl, #2]
 8001adc:	f7ff bb6a 	b.w	80011b4 <main+0x102c>
 8001ae0:	f89a 3005 	ldrb.w	r3, [sl, #5]
 8001ae4:	4a95      	ldr	r2, [pc, #596]	; (8001d3c <main+0x1bb4>)
 8001ae6:	445b      	add	r3, fp
 8001ae8:	f893 339b 	ldrb.w	r3, [r3, #923]	; 0x39b
 8001aec:	b2db      	uxtb	r3, r3
 8001aee:	2b01      	cmp	r3, #1
 8001af0:	f000 82a1 	beq.w	8002036 <main+0x1eae>
 8001af4:	2b02      	cmp	r3, #2
 8001af6:	f000 8368 	beq.w	80021ca <main+0x2042>
 8001afa:	2b03      	cmp	r3, #3
 8001afc:	f47f ab5a 	bne.w	80011b4 <main+0x102c>
 8001b00:	e05e      	b.n	8001bc0 <main+0x1a38>
 8001b02:	f89a 0005 	ldrb.w	r0, [sl, #5]
 8001b06:	eb0b 0100 	add.w	r1, fp, r0
 8001b0a:	f100 0215 	add.w	r2, r0, #21
 8001b0e:	eb0b 1340 	add.w	r3, fp, r0, lsl #5
 8001b12:	eb0b 1242 	add.w	r2, fp, r2, lsl #5
 8001b16:	f881 839b 	strb.w	r8, [r1, #923]	; 0x39b
 8001b1a:	2501      	movs	r5, #1
 8001b1c:	2102      	movs	r1, #2
 8001b1e:	f883 83ae 	strb.w	r8, [r3, #942]	; 0x3ae
 8001b22:	f8c2 8118 	str.w	r8, [r2, #280]	; 0x118
 8001b26:	f8c3 83bc 	str.w	r8, [r3, #956]	; 0x3bc
 8001b2a:	f883 53c5 	strb.w	r5, [r3, #965]	; 0x3c5
 8001b2e:	f882 1114 	strb.w	r1, [r2, #276]	; 0x114
 8001b32:	f8c3 83c0 	str.w	r8, [r3, #960]	; 0x3c0
 8001b36:	f003 fa1d 	bl	8004f74 <USB_OTG_HC_StartXfer.constprop.106>
 8001b3a:	230a      	movs	r3, #10
 8001b3c:	f88a 301c 	strb.w	r3, [sl, #28]
 8001b40:	f7ff bb38 	b.w	80011b4 <main+0x102c>
 8001b44:	f89a 200e 	ldrb.w	r2, [sl, #14]
 8001b48:	4b7c      	ldr	r3, [pc, #496]	; (8001d3c <main+0x1bb4>)
 8001b4a:	3201      	adds	r2, #1
 8001b4c:	b2d2      	uxtb	r2, r2
 8001b4e:	2a02      	cmp	r2, #2
 8001b50:	f88a 200e 	strb.w	r2, [sl, #14]
 8001b54:	f240 8262 	bls.w	800201c <main+0x1e94>
 8001b58:	2108      	movs	r1, #8
 8001b5a:	785a      	ldrb	r2, [r3, #1]
 8001b5c:	7499      	strb	r1, [r3, #18]
 8001b5e:	701a      	strb	r2, [r3, #0]
 8001b60:	f7ff bb28 	b.w	80011b4 <main+0x102c>
 8001b64:	f89a 2004 	ldrb.w	r2, [sl, #4]
 8001b68:	4b74      	ldr	r3, [pc, #464]	; (8001d3c <main+0x1bb4>)
 8001b6a:	4978      	ldr	r1, [pc, #480]	; (8001d4c <main+0x1bc4>)
 8001b6c:	445a      	add	r2, fp
 8001b6e:	f892 239b 	ldrb.w	r2, [r2, #923]	; 0x39b
 8001b72:	b2d2      	uxtb	r2, r2
 8001b74:	2a01      	cmp	r2, #1
 8001b76:	f000 825e 	beq.w	8002036 <main+0x1eae>
 8001b7a:	2a03      	cmp	r2, #3
 8001b7c:	d020      	beq.n	8001bc0 <main+0x1a38>
 8001b7e:	6949      	ldr	r1, [r1, #20]
 8001b80:	4d73      	ldr	r5, [pc, #460]	; (8001d50 <main+0x1bc8>)
 8001b82:	688c      	ldr	r4, [r1, #8]
 8001b84:	8a18      	ldrh	r0, [r3, #16]
 8001b86:	8829      	ldrh	r1, [r5, #0]
 8001b88:	b2a4      	uxth	r4, r4
 8001b8a:	1a20      	subs	r0, r4, r0
 8001b8c:	4288      	cmp	r0, r1
 8001b8e:	d817      	bhi.n	8001bc0 <main+0x1a38>
 8001b90:	2a04      	cmp	r2, #4
 8001b92:	f47f ab0f 	bne.w	80011b4 <main+0x102c>
 8001b96:	7859      	ldrb	r1, [r3, #1]
 8001b98:	749a      	strb	r2, [r3, #18]
 8001b9a:	7019      	strb	r1, [r3, #0]
 8001b9c:	f7ff bb0a 	b.w	80011b4 <main+0x102c>
 8001ba0:	f89a 3004 	ldrb.w	r3, [sl, #4]
 8001ba4:	4a65      	ldr	r2, [pc, #404]	; (8001d3c <main+0x1bb4>)
 8001ba6:	445b      	add	r3, fp
 8001ba8:	f893 339b 	ldrb.w	r3, [r3, #923]	; 0x39b
 8001bac:	b2db      	uxtb	r3, r3
 8001bae:	2b01      	cmp	r3, #1
 8001bb0:	f000 8171 	beq.w	8001e96 <main+0x1d0e>
 8001bb4:	2b04      	cmp	r3, #4
 8001bb6:	f000 8235 	beq.w	8002024 <main+0x1e9c>
 8001bba:	2b03      	cmp	r3, #3
 8001bbc:	f040 816d 	bne.w	8001e9a <main+0x1d12>
 8001bc0:	230b      	movs	r3, #11
 8001bc2:	f88a 301c 	strb.w	r3, [sl, #28]
 8001bc6:	f7ff baf5 	b.w	80011b4 <main+0x102c>
 8001bca:	f89a 0004 	ldrb.w	r0, [sl, #4]
 8001bce:	f8da 2008 	ldr.w	r2, [sl, #8]
 8001bd2:	eb0b 1340 	add.w	r3, fp, r0, lsl #5
 8001bd6:	f100 0115 	add.w	r1, r0, #21
 8001bda:	eb0b 1141 	add.w	r1, fp, r1, lsl #5
 8001bde:	2401      	movs	r4, #1
 8001be0:	f883 43ae 	strb.w	r4, [r3, #942]	; 0x3ae
 8001be4:	2402      	movs	r4, #2
 8001be6:	f881 4114 	strb.w	r4, [r1, #276]	; 0x114
 8001bea:	f8c1 2118 	str.w	r2, [r1, #280]	; 0x118
 8001bee:	eb0b 0400 	add.w	r4, fp, r0
 8001bf2:	f8ba 200c 	ldrh.w	r2, [sl, #12]
 8001bf6:	f8c3 83c0 	str.w	r8, [r3, #960]	; 0x3c0
 8001bfa:	f8c3 23bc 	str.w	r2, [r3, #956]	; 0x3bc
 8001bfe:	f884 839b 	strb.w	r8, [r4, #923]	; 0x39b
 8001c02:	f003 f9b7 	bl	8004f74 <USB_OTG_HC_StartXfer.constprop.106>
 8001c06:	2304      	movs	r3, #4
 8001c08:	f88a 301c 	strb.w	r3, [sl, #28]
 8001c0c:	f7ff bad2 	b.w	80011b4 <main+0x102c>
 8001c10:	f89a 2005 	ldrb.w	r2, [sl, #5]
 8001c14:	4b49      	ldr	r3, [pc, #292]	; (8001d3c <main+0x1bb4>)
 8001c16:	445a      	add	r2, fp
 8001c18:	f892 239b 	ldrb.w	r2, [r2, #923]	; 0x39b
 8001c1c:	b2d2      	uxtb	r2, r2
 8001c1e:	2a01      	cmp	r2, #1
 8001c20:	f000 81e2 	beq.w	8001fe8 <main+0x1e60>
 8001c24:	2a03      	cmp	r2, #3
 8001c26:	f47f aac5 	bne.w	80011b4 <main+0x102c>
 8001c2a:	210b      	movs	r1, #11
 8001c2c:	2205      	movs	r2, #5
 8001c2e:	7719      	strb	r1, [r3, #28]
 8001c30:	749a      	strb	r2, [r3, #18]
 8001c32:	f7ff babf 	b.w	80011b4 <main+0x102c>
 8001c36:	f89a 0005 	ldrb.w	r0, [sl, #5]
 8001c3a:	4d46      	ldr	r5, [pc, #280]	; (8001d54 <main+0x1bcc>)
 8001c3c:	f100 0215 	add.w	r2, r0, #21
 8001c40:	eb0b 1340 	add.w	r3, fp, r0, lsl #5
 8001c44:	eb0b 1242 	add.w	r2, fp, r2, lsl #5
 8001c48:	2403      	movs	r4, #3
 8001c4a:	f883 83ae 	strb.w	r8, [r3, #942]	; 0x3ae
 8001c4e:	eb0b 0100 	add.w	r1, fp, r0
 8001c52:	f8c2 5118 	str.w	r5, [r2, #280]	; 0x118
 8001c56:	f882 4114 	strb.w	r4, [r2, #276]	; 0x114
 8001c5a:	2208      	movs	r2, #8
 8001c5c:	f8c3 83c0 	str.w	r8, [r3, #960]	; 0x3c0
 8001c60:	f8c3 23bc 	str.w	r2, [r3, #956]	; 0x3bc
 8001c64:	f881 839b 	strb.w	r8, [r1, #923]	; 0x39b
 8001c68:	f003 f984 	bl	8004f74 <USB_OTG_HC_StartXfer.constprop.106>
 8001c6c:	2302      	movs	r3, #2
 8001c6e:	f88a 301c 	strb.w	r3, [sl, #28]
 8001c72:	f7ff ba9f 	b.w	80011b4 <main+0x102c>
 8001c76:	f89a 3005 	ldrb.w	r3, [sl, #5]
 8001c7a:	4a30      	ldr	r2, [pc, #192]	; (8001d3c <main+0x1bb4>)
 8001c7c:	445b      	add	r3, fp
 8001c7e:	f893 339b 	ldrb.w	r3, [r3, #923]	; 0x39b
 8001c82:	b2db      	uxtb	r3, r3
 8001c84:	2b01      	cmp	r3, #1
 8001c86:	f000 8313 	beq.w	80022b0 <main+0x2128>
 8001c8a:	2b04      	cmp	r3, #4
 8001c8c:	f000 81ca 	beq.w	8002024 <main+0x1e9c>
 8001c90:	2b02      	cmp	r3, #2
 8001c92:	f47f af32 	bne.w	8001afa <main+0x1972>
 8001c96:	2305      	movs	r3, #5
 8001c98:	7713      	strb	r3, [r2, #28]
 8001c9a:	f7ff ba8b 	b.w	80011b4 <main+0x102c>
 8001c9e:	f89a 0005 	ldrb.w	r0, [sl, #5]
 8001ca2:	f8ba 400c 	ldrh.w	r4, [sl, #12]
 8001ca6:	9403      	str	r4, [sp, #12]
 8001ca8:	ea4f 1940 	mov.w	r9, r0, lsl #5
 8001cac:	f100 0315 	add.w	r3, r0, #21
 8001cb0:	f100 021e 	add.w	r2, r0, #30
 8001cb4:	eb0b 0509 	add.w	r5, fp, r9
 8001cb8:	eb0b 1e43 	add.w	lr, fp, r3, lsl #5
 8001cbc:	eb0b 1242 	add.w	r2, fp, r2, lsl #5
 8001cc0:	f8da 4008 	ldr.w	r4, [sl, #8]
 8001cc4:	eb0b 1343 	add.w	r3, fp, r3, lsl #5
 8001cc8:	2101      	movs	r1, #1
 8001cca:	44d9      	add	r9, fp
 8001ccc:	7151      	strb	r1, [r2, #5]
 8001cce:	f885 83ae 	strb.w	r8, [r5, #942]	; 0x3ae
 8001cd2:	eb0b 0200 	add.w	r2, fp, r0
 8001cd6:	f8ce 4118 	str.w	r4, [lr, #280]	; 0x118
 8001cda:	2102      	movs	r1, #2
 8001cdc:	9c03      	ldr	r4, [sp, #12]
 8001cde:	f8c5 43bc 	str.w	r4, [r5, #956]	; 0x3bc
 8001ce2:	f883 1114 	strb.w	r1, [r3, #276]	; 0x114
 8001ce6:	f8c9 83c0 	str.w	r8, [r9, #960]	; 0x3c0
 8001cea:	f882 839b 	strb.w	r8, [r2, #923]	; 0x39b
 8001cee:	f003 f941 	bl	8004f74 <USB_OTG_HC_StartXfer.constprop.106>
 8001cf2:	2306      	movs	r3, #6
 8001cf4:	f88a 301c 	strb.w	r3, [sl, #28]
 8001cf8:	f7ff ba5c 	b.w	80011b4 <main+0x102c>
 8001cfc:	f89a 0004 	ldrb.w	r0, [sl, #4]
 8001d00:	eb0b 1340 	add.w	r3, fp, r0, lsl #5
 8001d04:	f100 0215 	add.w	r2, r0, #21
 8001d08:	eb0b 1242 	add.w	r2, fp, r2, lsl #5
 8001d0c:	2401      	movs	r4, #1
 8001d0e:	f883 43ae 	strb.w	r4, [r3, #942]	; 0x3ae
 8001d12:	eb0b 0100 	add.w	r1, fp, r0
 8001d16:	2402      	movs	r4, #2
 8001d18:	f8c2 8118 	str.w	r8, [r2, #280]	; 0x118
 8001d1c:	f882 4114 	strb.w	r4, [r2, #276]	; 0x114
 8001d20:	f8c3 83bc 	str.w	r8, [r3, #956]	; 0x3bc
 8001d24:	f8c3 83c0 	str.w	r8, [r3, #960]	; 0x3c0
 8001d28:	f881 839b 	strb.w	r8, [r1, #923]	; 0x39b
 8001d2c:	f003 f922 	bl	8004f74 <USB_OTG_HC_StartXfer.constprop.106>
 8001d30:	2308      	movs	r3, #8
 8001d32:	f88a 301c 	strb.w	r3, [sl, #28]
 8001d36:	f7ff ba3d 	b.w	80011b4 <main+0x102c>
 8001d3a:	bf00      	nop
 8001d3c:	2000053c 	.word	0x2000053c
 8001d40:	20014aec 	.word	0x20014aec
 8001d44:	20014ea0 	.word	0x20014ea0
 8001d48:	20000570 	.word	0x20000570
 8001d4c:	20014d90 	.word	0x20014d90
 8001d50:	20000526 	.word	0x20000526
 8001d54:	20000550 	.word	0x20000550
 8001d58:	20000528 	.word	0x20000528
 8001d5c:	200004dc 	.word	0x200004dc
 8001d60:	429a      	cmp	r2, r3
 8001d62:	d000      	beq.n	8001d66 <main+0x1bde>
 8001d64:	700b      	strb	r3, [r1, #0]
 8001d66:	f8da 3068 	ldr.w	r3, [sl, #104]	; 0x68
 8001d6a:	691b      	ldr	r3, [r3, #16]
 8001d6c:	4798      	blx	r3
 8001d6e:	f89a 2004 	ldrb.w	r2, [sl, #4]
 8001d72:	f88a 8000 	strb.w	r8, [sl]
 8001d76:	2301      	movs	r3, #1
 8001d78:	f88a 3003 	strb.w	r3, [sl, #3]
 8001d7c:	f88a 301c 	strb.w	r3, [sl, #28]
 8001d80:	f88a 3021 	strb.w	r3, [sl, #33]	; 0x21
 8001d84:	2a07      	cmp	r2, #7
 8001d86:	f04f 0340 	mov.w	r3, #64	; 0x40
 8001d8a:	f88a 8001 	strb.w	r8, [sl, #1]
 8001d8e:	f88a 8002 	strb.w	r8, [sl, #2]
 8001d92:	f88a 8020 	strb.w	r8, [sl, #32]
 8001d96:	f88a 3006 	strb.w	r3, [sl, #6]
 8001d9a:	d807      	bhi.n	8001dac <main+0x1c24>
 8001d9c:	f502 7331 	add.w	r3, r2, #708	; 0x2c4
 8001da0:	eb0b 0343 	add.w	r3, fp, r3, lsl #1
 8001da4:	889a      	ldrh	r2, [r3, #4]
 8001da6:	f3c2 020e 	ubfx	r2, r2, #0, #15
 8001daa:	809a      	strh	r2, [r3, #4]
 8001dac:	f89a 3005 	ldrb.w	r3, [sl, #5]
 8001db0:	2b07      	cmp	r3, #7
 8001db2:	d807      	bhi.n	8001dc4 <main+0x1c3c>
 8001db4:	f503 7331 	add.w	r3, r3, #708	; 0x2c4
 8001db8:	eb0b 0343 	add.w	r3, fp, r3, lsl #1
 8001dbc:	889a      	ldrh	r2, [r3, #4]
 8001dbe:	f3c2 020e 	ubfx	r2, r2, #0, #15
 8001dc2:	809a      	strh	r2, [r3, #4]
 8001dc4:	f8da 3068 	ldr.w	r3, [sl, #104]	; 0x68
 8001dc8:	685b      	ldr	r3, [r3, #4]
 8001dca:	4798      	blx	r3
 8001dcc:	f8da 3064 	ldr.w	r3, [sl, #100]	; 0x64
 8001dd0:	489d      	ldr	r0, [pc, #628]	; (8002048 <main+0x1ec0>)
 8001dd2:	685b      	ldr	r3, [r3, #4]
 8001dd4:	499d      	ldr	r1, [pc, #628]	; (800204c <main+0x1ec4>)
 8001dd6:	4798      	blx	r3
 8001dd8:	f8ab 8590 	strh.w	r8, [fp, #1424]	; 0x590
 8001ddc:	f8ab 8592 	strh.w	r8, [fp, #1426]	; 0x592
 8001de0:	f8ab 8594 	strh.w	r8, [fp, #1428]	; 0x594
 8001de4:	f8ab 8596 	strh.w	r8, [fp, #1430]	; 0x596
 8001de8:	f8ab 8598 	strh.w	r8, [fp, #1432]	; 0x598
 8001dec:	f8ab 859a 	strh.w	r8, [fp, #1434]	; 0x59a
 8001df0:	f88a 8000 	strb.w	r8, [sl]
 8001df4:	f7ff b9de 	b.w	80011b4 <main+0x102c>
 8001df8:	f04f 4380 	mov.w	r3, #1073741824	; 0x40000000
 8001dfc:	2264      	movs	r2, #100	; 0x64
 8001dfe:	603a      	str	r2, [r7, #0]
 8001e00:	881a      	ldrh	r2, [r3, #0]
 8001e02:	f022 0201 	bic.w	r2, r2, #1
 8001e06:	0412      	lsls	r2, r2, #16
 8001e08:	2101      	movs	r1, #1
 8001e0a:	0c12      	lsrs	r2, r2, #16
 8001e0c:	f88a 1000 	strb.w	r1, [sl]
 8001e10:	801a      	strh	r2, [r3, #0]
 8001e12:	899a      	ldrh	r2, [r3, #12]
 8001e14:	f022 0201 	bic.w	r2, r2, #1
 8001e18:	0412      	lsls	r2, r2, #16
 8001e1a:	0c12      	lsrs	r2, r2, #16
 8001e1c:	819a      	strh	r2, [r3, #12]
 8001e1e:	881a      	ldrh	r2, [r3, #0]
 8001e20:	f422 725c 	bic.w	r2, r2, #880	; 0x370
 8001e24:	0412      	lsls	r2, r2, #16
 8001e26:	0c12      	lsrs	r2, r2, #16
 8001e28:	801a      	strh	r2, [r3, #0]
 8001e2a:	f642 64df 	movw	r4, #11999	; 0x2edf
 8001e2e:	f64f 72fe 	movw	r2, #65534	; 0xfffe
 8001e32:	2005      	movs	r0, #5
 8001e34:	62dc      	str	r4, [r3, #44]	; 0x2c
 8001e36:	8518      	strh	r0, [r3, #40]	; 0x28
 8001e38:	8299      	strh	r1, [r3, #20]
 8001e3a:	821a      	strh	r2, [r3, #16]
 8001e3c:	881a      	ldrh	r2, [r3, #0]
 8001e3e:	b292      	uxth	r2, r2
 8001e40:	f042 0280 	orr.w	r2, r2, #128	; 0x80
 8001e44:	801a      	strh	r2, [r3, #0]
 8001e46:	899a      	ldrh	r2, [r3, #12]
 8001e48:	b292      	uxth	r2, r2
 8001e4a:	430a      	orrs	r2, r1
 8001e4c:	819a      	strh	r2, [r3, #12]
 8001e4e:	881a      	ldrh	r2, [r3, #0]
 8001e50:	b292      	uxth	r2, r2
 8001e52:	430a      	orrs	r2, r1
 8001e54:	801a      	strh	r2, [r3, #0]
 8001e56:	683b      	ldr	r3, [r7, #0]
 8001e58:	2b00      	cmp	r3, #0
 8001e5a:	d1fc      	bne.n	8001e56 <main+0x1cce>
 8001e5c:	f04f 4280 	mov.w	r2, #1073741824	; 0x40000000
 8001e60:	8813      	ldrh	r3, [r2, #0]
 8001e62:	f023 0301 	bic.w	r3, r3, #1
 8001e66:	041b      	lsls	r3, r3, #16
 8001e68:	0c1b      	lsrs	r3, r3, #16
 8001e6a:	8013      	strh	r3, [r2, #0]
 8001e6c:	f7ff b9a2 	b.w	80011b4 <main+0x102c>
 8001e70:	6ea3      	ldr	r3, [r4, #104]	; 0x68
 8001e72:	6c5b      	ldr	r3, [r3, #68]	; 0x44
 8001e74:	4798      	blx	r3
 8001e76:	230a      	movs	r3, #10
 8001e78:	7023      	strb	r3, [r4, #0]
 8001e7a:	f7ff b99b 	b.w	80011b4 <main+0x102c>
 8001e7e:	4d74      	ldr	r5, [pc, #464]	; (8002050 <main+0x1ec8>)
 8001e80:	60a5      	str	r5, [r4, #8]
 8001e82:	2104      	movs	r1, #4
 8001e84:	81a2      	strh	r2, [r4, #12]
 8001e86:	7723      	strb	r3, [r4, #28]
 8001e88:	2207      	movs	r2, #7
 8001e8a:	2302      	movs	r3, #2
 8001e8c:	7061      	strb	r1, [r4, #1]
 8001e8e:	7022      	strb	r2, [r4, #0]
 8001e90:	70e3      	strb	r3, [r4, #3]
 8001e92:	f7ff b98f 	b.w	80011b4 <main+0x102c>
 8001e96:	2309      	movs	r3, #9
 8001e98:	7713      	strb	r3, [r2, #28]
 8001e9a:	f8db 3014 	ldr.w	r3, [fp, #20]
 8001e9e:	f8ba 1010 	ldrh.w	r1, [sl, #16]
 8001ea2:	6898      	ldr	r0, [r3, #8]
 8001ea4:	4b6b      	ldr	r3, [pc, #428]	; (8002054 <main+0x1ecc>)
 8001ea6:	b280      	uxth	r0, r0
 8001ea8:	881a      	ldrh	r2, [r3, #0]
 8001eaa:	4b6b      	ldr	r3, [pc, #428]	; (8002058 <main+0x1ed0>)
 8001eac:	1a41      	subs	r1, r0, r1
 8001eae:	4291      	cmp	r1, r2
 8001eb0:	f67f a980 	bls.w	80011b4 <main+0x102c>
 8001eb4:	220b      	movs	r2, #11
 8001eb6:	771a      	strb	r2, [r3, #28]
 8001eb8:	f7ff b97c 	b.w	80011b4 <main+0x102c>
 8001ebc:	2303      	movs	r3, #3
 8001ebe:	461a      	mov	r2, r3
 8001ec0:	eb0b 0242 	add.w	r2, fp, r2, lsl #1
 8001ec4:	f248 0180 	movw	r1, #32896	; 0x8080
 8001ec8:	f8a2 158c 	strh.w	r1, [r2, #1420]	; 0x58c
 8001ecc:	f7ff bafb 	b.w	80014c6 <main+0x133e>
 8001ed0:	2302      	movs	r3, #2
 8001ed2:	461a      	mov	r2, r3
 8001ed4:	e7f4      	b.n	8001ec0 <main+0x1d38>
 8001ed6:	2301      	movs	r3, #1
 8001ed8:	461a      	mov	r2, r3
 8001eda:	e7f1      	b.n	8001ec0 <main+0x1d38>
 8001edc:	485c      	ldr	r0, [pc, #368]	; (8002050 <main+0x1ec8>)
 8001ede:	60a0      	str	r0, [r4, #8]
 8001ee0:	2104      	movs	r1, #4
 8001ee2:	e7cf      	b.n	8001e84 <main+0x1cfc>
 8001ee4:	2303      	movs	r3, #3
 8001ee6:	461a      	mov	r2, r3
 8001ee8:	eb0b 0242 	add.w	r2, fp, r2, lsl #1
 8001eec:	f44f 4100 	mov.w	r1, #32768	; 0x8000
 8001ef0:	f8a2 158c 	strh.w	r1, [r2, #1420]	; 0x58c
 8001ef4:	f8bb 258c 	ldrh.w	r2, [fp, #1420]	; 0x58c
 8001ef8:	f88a 3005 	strb.w	r3, [sl, #5]
 8001efc:	0413      	lsls	r3, r2, #16
 8001efe:	f53f aabc 	bmi.w	800147a <main+0x12f2>
 8001f02:	2300      	movs	r3, #0
 8001f04:	461a      	mov	r2, r3
 8001f06:	e7db      	b.n	8001ec0 <main+0x1d38>
 8001f08:	2302      	movs	r3, #2
 8001f0a:	461a      	mov	r2, r3
 8001f0c:	e7ec      	b.n	8001ee8 <main+0x1d60>
 8001f0e:	2301      	movs	r3, #1
 8001f10:	461a      	mov	r2, r3
 8001f12:	e7e9      	b.n	8001ee8 <main+0x1d60>
 8001f14:	2300      	movs	r3, #0
 8001f16:	461a      	mov	r2, r3
 8001f18:	e7e6      	b.n	8001ee8 <main+0x1d60>
 8001f1a:	6ea3      	ldr	r3, [r4, #104]	; 0x68
 8001f1c:	484f      	ldr	r0, [pc, #316]	; (800205c <main+0x1ed4>)
 8001f1e:	6b1b      	ldr	r3, [r3, #48]	; 0x30
 8001f20:	4798      	blx	r3
 8001f22:	2308      	movs	r3, #8
 8001f24:	70a3      	strb	r3, [r4, #2]
 8001f26:	f7ff b945 	b.w	80011b4 <main+0x102c>
 8001f2a:	2307      	movs	r3, #7
 8001f2c:	461a      	mov	r2, r3
 8001f2e:	e7c7      	b.n	8001ec0 <main+0x1d38>
 8001f30:	2306      	movs	r3, #6
 8001f32:	461a      	mov	r2, r3
 8001f34:	e7c4      	b.n	8001ec0 <main+0x1d38>
 8001f36:	2305      	movs	r3, #5
 8001f38:	461a      	mov	r2, r3
 8001f3a:	e7c1      	b.n	8001ec0 <main+0x1d38>
 8001f3c:	2307      	movs	r3, #7
 8001f3e:	461a      	mov	r2, r3
 8001f40:	e7d2      	b.n	8001ee8 <main+0x1d60>
 8001f42:	2306      	movs	r3, #6
 8001f44:	461a      	mov	r2, r3
 8001f46:	e7cf      	b.n	8001ee8 <main+0x1d60>
 8001f48:	2305      	movs	r3, #5
 8001f4a:	461a      	mov	r2, r3
 8001f4c:	e7cc      	b.n	8001ee8 <main+0x1d60>
 8001f4e:	2304      	movs	r3, #4
 8001f50:	461a      	mov	r2, r3
 8001f52:	e7c9      	b.n	8001ee8 <main+0x1d60>
 8001f54:	2304      	movs	r3, #4
 8001f56:	461a      	mov	r2, r3
 8001f58:	e7b2      	b.n	8001ec0 <main+0x1d38>
 8001f5a:	2104      	movs	r1, #4
 8001f5c:	483c      	ldr	r0, [pc, #240]	; (8002050 <main+0x1ec8>)
 8001f5e:	81a3      	strh	r3, [r4, #12]
 8001f60:	2207      	movs	r2, #7
 8001f62:	2302      	movs	r3, #2
 8001f64:	60a0      	str	r0, [r4, #8]
 8001f66:	7725      	strb	r5, [r4, #28]
 8001f68:	7061      	strb	r1, [r4, #1]
 8001f6a:	7022      	strb	r2, [r4, #0]
 8001f6c:	70e3      	strb	r3, [r4, #3]
 8001f6e:	f7ff b921 	b.w	80011b4 <main+0x102c>
 8001f72:	4d37      	ldr	r5, [pc, #220]	; (8002050 <main+0x1ec8>)
 8001f74:	609d      	str	r5, [r3, #8]
 8001f76:	2004      	movs	r0, #4
 8001f78:	819c      	strh	r4, [r3, #12]
 8001f7a:	2107      	movs	r1, #7
 8001f7c:	771a      	strb	r2, [r3, #28]
 8001f7e:	2202      	movs	r2, #2
 8001f80:	7058      	strb	r0, [r3, #1]
 8001f82:	7019      	strb	r1, [r3, #0]
 8001f84:	70da      	strb	r2, [r3, #3]
 8001f86:	f7ff b915 	b.w	80011b4 <main+0x102c>
 8001f8a:	4c31      	ldr	r4, [pc, #196]	; (8002050 <main+0x1ec8>)
 8001f8c:	609c      	str	r4, [r3, #8]
 8001f8e:	2004      	movs	r0, #4
 8001f90:	8199      	strh	r1, [r3, #12]
 8001f92:	e7f2      	b.n	8001f7a <main+0x1df2>
 8001f94:	6ea3      	ldr	r3, [r4, #104]	; 0x68
 8001f96:	4831      	ldr	r0, [pc, #196]	; (800205c <main+0x1ed4>)
 8001f98:	6adb      	ldr	r3, [r3, #44]	; 0x2c
 8001f9a:	4798      	blx	r3
 8001f9c:	2307      	movs	r3, #7
 8001f9e:	70a3      	strb	r3, [r4, #2]
 8001fa0:	f7ff b908 	b.w	80011b4 <main+0x102c>
 8001fa4:	6ea3      	ldr	r3, [r4, #104]	; 0x68
 8001fa6:	482d      	ldr	r0, [pc, #180]	; (800205c <main+0x1ed4>)
 8001fa8:	6a9b      	ldr	r3, [r3, #40]	; 0x28
 8001faa:	4798      	blx	r3
 8001fac:	2306      	movs	r3, #6
 8001fae:	70a3      	strb	r3, [r4, #2]
 8001fb0:	f7ff b900 	b.w	80011b4 <main+0x102c>
 8001fb4:	2004      	movs	r0, #4
 8001fb6:	771a      	strb	r2, [r3, #28]
 8001fb8:	2107      	movs	r1, #7
 8001fba:	2202      	movs	r2, #2
 8001fbc:	f8c3 8008 	str.w	r8, [r3, #8]
 8001fc0:	f8a3 800c 	strh.w	r8, [r3, #12]
 8001fc4:	7058      	strb	r0, [r3, #1]
 8001fc6:	7019      	strb	r1, [r3, #0]
 8001fc8:	70da      	strb	r2, [r3, #3]
 8001fca:	f7ff b8f3 	b.w	80011b4 <main+0x102c>
 8001fce:	2304      	movs	r3, #4
 8001fd0:	7711      	strb	r1, [r2, #28]
 8001fd2:	7053      	strb	r3, [r2, #1]
 8001fd4:	2107      	movs	r1, #7
 8001fd6:	2302      	movs	r3, #2
 8001fd8:	f8c2 8008 	str.w	r8, [r2, #8]
 8001fdc:	f8a2 800c 	strh.w	r8, [r2, #12]
 8001fe0:	7011      	strb	r1, [r2, #0]
 8001fe2:	70d3      	strb	r3, [r2, #3]
 8001fe4:	f7ff b8e6 	b.w	80011b4 <main+0x102c>
 8001fe8:	7d1a      	ldrb	r2, [r3, #20]
 8001fea:	8b59      	ldrh	r1, [r3, #26]
 8001fec:	f022 027f 	bic.w	r2, r2, #127	; 0x7f
 8001ff0:	b2d2      	uxtb	r2, r2
 8001ff2:	2900      	cmp	r1, #0
 8001ff4:	f000 80ed 	beq.w	80021d2 <main+0x204a>
 8001ff8:	f8df c058 	ldr.w	ip, [pc, #88]	; 8002054 <main+0x1ecc>
 8001ffc:	f241 3188 	movw	r1, #5000	; 0x1388
 8002000:	f8ac 1000 	strh.w	r1, [ip]
 8002004:	2a00      	cmp	r2, #0
 8002006:	f040 81ba 	bne.w	800237e <main+0x21f6>
 800200a:	2205      	movs	r2, #5
 800200c:	771a      	strb	r2, [r3, #28]
 800200e:	f8db 3014 	ldr.w	r3, [fp, #20]
 8002012:	689b      	ldr	r3, [r3, #8]
 8002014:	f8aa 3010 	strh.w	r3, [sl, #16]
 8002018:	f7ff b8cc 	b.w	80011b4 <main+0x102c>
 800201c:	2201      	movs	r2, #1
 800201e:	771a      	strb	r2, [r3, #28]
 8002020:	f7ff b8c8 	b.w	80011b4 <main+0x102c>
 8002024:	f89a 3001 	ldrb.w	r3, [sl, #1]
 8002028:	f88a 3000 	strb.w	r3, [sl]
 800202c:	230c      	movs	r3, #12
 800202e:	f88a 301c 	strb.w	r3, [sl, #28]
 8002032:	f7ff b8bf 	b.w	80011b4 <main+0x102c>
 8002036:	f89a 3001 	ldrb.w	r3, [sl, #1]
 800203a:	f88a 3000 	strb.w	r3, [sl]
 800203e:	230d      	movs	r3, #13
 8002040:	f88a 301c 	strb.w	r3, [sl, #28]
 8002044:	f7ff b8b6 	b.w	80011b4 <main+0x102c>
 8002048:	20014d90 	.word	0x20014d90
 800204c:	2000055c 	.word	0x2000055c
 8002050:	20014ea0 	.word	0x20014ea0
 8002054:	20000526 	.word	0x20000526
 8002058:	2000053c 	.word	0x2000053c
 800205c:	0800c4d8 	.word	0x0800c4d8
 8002060:	48bd      	ldr	r0, [pc, #756]	; (8002358 <main+0x21d0>)
 8002062:	49be      	ldr	r1, [pc, #760]	; (800235c <main+0x21d4>)
 8002064:	7800      	ldrb	r0, [r0, #0]
 8002066:	900c      	str	r0, [sp, #48]	; 0x30
 8002068:	8809      	ldrh	r1, [r1, #0]
 800206a:	48bd      	ldr	r0, [pc, #756]	; (8002360 <main+0x21d8>)
 800206c:	910b      	str	r1, [sp, #44]	; 0x2c
 800206e:	2509      	movs	r5, #9
 8002070:	f8cd b03c 	str.w	fp, [sp, #60]	; 0x3c
 8002074:	42ab      	cmp	r3, r5
 8002076:	f240 8089 	bls.w	800218c <main+0x2004>
 800207a:	7802      	ldrb	r2, [r0, #0]
 800207c:	4410      	add	r0, r2
 800207e:	4415      	add	r5, r2
 8002080:	7841      	ldrb	r1, [r0, #1]
 8002082:	2904      	cmp	r1, #4
 8002084:	b2ad      	uxth	r5, r5
 8002086:	d1f5      	bne.n	8002074 <main+0x1eec>
 8002088:	78c2      	ldrb	r2, [r0, #3]
 800208a:	7884      	ldrb	r4, [r0, #2]
 800208c:	9204      	str	r2, [sp, #16]
 800208e:	2a02      	cmp	r2, #2
 8002090:	9403      	str	r4, [sp, #12]
 8002092:	d8ef      	bhi.n	8002074 <main+0x1eec>
 8002094:	7901      	ldrb	r1, [r0, #4]
 8002096:	f890 c000 	ldrb.w	ip, [r0]
 800209a:	f8cd c014 	str.w	ip, [sp, #20]
 800209e:	f890 e005 	ldrb.w	lr, [r0, #5]
 80020a2:	7982      	ldrb	r2, [r0, #6]
 80020a4:	79c4      	ldrb	r4, [r0, #7]
 80020a6:	f890 c008 	ldrb.w	ip, [r0, #8]
 80020aa:	f8cd e018 	str.w	lr, [sp, #24]
 80020ae:	2902      	cmp	r1, #2
 80020b0:	9207      	str	r2, [sp, #28]
 80020b2:	9408      	str	r4, [sp, #32]
 80020b4:	f8cd c024 	str.w	ip, [sp, #36]	; 0x24
 80020b8:	d8dc      	bhi.n	8002074 <main+0x1eec>
 80020ba:	f8dd e00c 	ldr.w	lr, [sp, #12]
 80020be:	4ca9      	ldr	r4, [pc, #676]	; (8002364 <main+0x21dc>)
 80020c0:	fa4f fe8e 	sxtb.w	lr, lr
 80020c4:	fa0f f28e 	sxth.w	r2, lr
 80020c8:	f104 0c0a 	add.w	ip, r4, #10
 80020cc:	eb02 03c2 	add.w	r3, r2, r2, lsl #3
 80020d0:	f04f 0b00 	mov.w	fp, #0
 80020d4:	eb0c 1202 	add.w	r2, ip, r2, lsl #4
 80020d8:	4423      	add	r3, r4
 80020da:	f8cd e034 	str.w	lr, [sp, #52]	; 0x34
 80020de:	920a      	str	r2, [sp, #40]	; 0x28
 80020e0:	465c      	mov	r4, fp
 80020e2:	46a9      	mov	r9, r5
 80020e4:	42a1      	cmp	r1, r4
 80020e6:	dd4b      	ble.n	8002180 <main+0x1ff8>
 80020e8:	7802      	ldrb	r2, [r0, #0]
 80020ea:	4410      	add	r0, r2
 80020ec:	444a      	add	r2, r9
 80020ee:	7845      	ldrb	r5, [r0, #1]
 80020f0:	2d05      	cmp	r5, #5
 80020f2:	fa1f f982 	uxth.w	r9, r2
 80020f6:	d1f5      	bne.n	80020e4 <main+0x1f5c>
 80020f8:	9a0a      	ldr	r2, [sp, #40]	; 0x28
 80020fa:	f8dd e030 	ldr.w	lr, [sp, #48]	; 0x30
 80020fe:	00e4      	lsls	r4, r4, #3
 8002100:	9400      	str	r4, [sp, #0]
 8002102:	4422      	add	r2, r4
 8002104:	9c0d      	ldr	r4, [sp, #52]	; 0x34
 8002106:	45a6      	cmp	lr, r4
 8002108:	d043      	beq.n	8002192 <main+0x200a>
 800210a:	9d05      	ldr	r5, [sp, #20]
 800210c:	701d      	strb	r5, [r3, #0]
 800210e:	f04f 0404 	mov.w	r4, #4
 8002112:	705c      	strb	r4, [r3, #1]
 8002114:	9d03      	ldr	r5, [sp, #12]
 8002116:	9c04      	ldr	r4, [sp, #16]
 8002118:	709d      	strb	r5, [r3, #2]
 800211a:	70dc      	strb	r4, [r3, #3]
 800211c:	9d06      	ldr	r5, [sp, #24]
 800211e:	9c07      	ldr	r4, [sp, #28]
 8002120:	715d      	strb	r5, [r3, #5]
 8002122:	719c      	strb	r4, [r3, #6]
 8002124:	9d08      	ldr	r5, [sp, #32]
 8002126:	9c09      	ldr	r4, [sp, #36]	; 0x24
 8002128:	71dd      	strb	r5, [r3, #7]
 800212a:	7119      	strb	r1, [r3, #4]
 800212c:	721c      	strb	r4, [r3, #8]
 800212e:	9d03      	ldr	r5, [sp, #12]
 8002130:	950c      	str	r5, [sp, #48]	; 0x30
 8002132:	f890 e005 	ldrb.w	lr, [r0, #5]
 8002136:	7905      	ldrb	r5, [r0, #4]
 8002138:	f890 c001 	ldrb.w	ip, [r0, #1]
 800213c:	f8cd c038 	str.w	ip, [sp, #56]	; 0x38
 8002140:	9c00      	ldr	r4, [sp, #0]
 8002142:	f8dd c028 	ldr.w	ip, [sp, #40]	; 0x28
 8002146:	eb05 250e 	add.w	r5, r5, lr, lsl #8
 800214a:	f890 e000 	ldrb.w	lr, [r0]
 800214e:	f80c e004 	strb.w	lr, [ip, r4]
 8002152:	f10b 0b01 	add.w	fp, fp, #1
 8002156:	f890 c002 	ldrb.w	ip, [r0, #2]
 800215a:	f890 e003 	ldrb.w	lr, [r0, #3]
 800215e:	8095      	strh	r5, [r2, #4]
 8002160:	b2ad      	uxth	r5, r5
 8002162:	fa5f fb8b 	uxtb.w	fp, fp
 8002166:	950b      	str	r5, [sp, #44]	; 0x2c
 8002168:	9d0e      	ldr	r5, [sp, #56]	; 0x38
 800216a:	7055      	strb	r5, [r2, #1]
 800216c:	fa4f f48b 	sxtb.w	r4, fp
 8002170:	7985      	ldrb	r5, [r0, #6]
 8002172:	7195      	strb	r5, [r2, #6]
 8002174:	42a1      	cmp	r1, r4
 8002176:	f882 c002 	strb.w	ip, [r2, #2]
 800217a:	f882 e003 	strb.w	lr, [r2, #3]
 800217e:	dcb3      	bgt.n	80020e8 <main+0x1f60>
 8002180:	f8ba 3036 	ldrh.w	r3, [sl, #54]	; 0x36
 8002184:	464d      	mov	r5, r9
 8002186:	42ab      	cmp	r3, r5
 8002188:	f63f af77 	bhi.w	800207a <main+0x1ef2>
 800218c:	f8dd b03c 	ldr.w	fp, [sp, #60]	; 0x3c
 8002190:	e490      	b.n	8001ab4 <main+0x192c>
 8002192:	7905      	ldrb	r5, [r0, #4]
 8002194:	f890 e005 	ldrb.w	lr, [r0, #5]
 8002198:	f8dd c02c 	ldr.w	ip, [sp, #44]	; 0x2c
 800219c:	eb05 240e 	add.w	r4, r5, lr, lsl #8
 80021a0:	45a4      	cmp	ip, r4
 80021a2:	dced      	bgt.n	8002180 <main+0x1ff8>
 80021a4:	9c05      	ldr	r4, [sp, #20]
 80021a6:	701c      	strb	r4, [r3, #0]
 80021a8:	f04f 0404 	mov.w	r4, #4
 80021ac:	705c      	strb	r4, [r3, #1]
 80021ae:	9c03      	ldr	r4, [sp, #12]
 80021b0:	709c      	strb	r4, [r3, #2]
 80021b2:	9c04      	ldr	r4, [sp, #16]
 80021b4:	70dc      	strb	r4, [r3, #3]
 80021b6:	9c06      	ldr	r4, [sp, #24]
 80021b8:	715c      	strb	r4, [r3, #5]
 80021ba:	9c07      	ldr	r4, [sp, #28]
 80021bc:	719c      	strb	r4, [r3, #6]
 80021be:	9c08      	ldr	r4, [sp, #32]
 80021c0:	71dc      	strb	r4, [r3, #7]
 80021c2:	9c09      	ldr	r4, [sp, #36]	; 0x24
 80021c4:	7119      	strb	r1, [r3, #4]
 80021c6:	721c      	strb	r4, [r3, #8]
 80021c8:	e7b6      	b.n	8002138 <main+0x1fb0>
 80021ca:	2309      	movs	r3, #9
 80021cc:	7713      	strb	r3, [r2, #28]
 80021ce:	f7fe bff1 	b.w	80011b4 <main+0x102c>
 80021d2:	f8df e19c 	ldr.w	lr, [pc, #412]	; 8002370 <main+0x21e8>
 80021d6:	2132      	movs	r1, #50	; 0x32
 80021d8:	f8ae 1000 	strh.w	r1, [lr]
 80021dc:	2a00      	cmp	r2, #0
 80021de:	d16b      	bne.n	80022b8 <main+0x2130>
 80021e0:	2207      	movs	r2, #7
 80021e2:	771a      	strb	r2, [r3, #28]
 80021e4:	e713      	b.n	800200e <main+0x1e86>
 80021e6:	f04f 4380 	mov.w	r3, #1073741824	; 0x40000000
 80021ea:	6039      	str	r1, [r7, #0]
 80021ec:	8819      	ldrh	r1, [r3, #0]
 80021ee:	70d0      	strb	r0, [r2, #3]
 80021f0:	f021 0101 	bic.w	r1, r1, #1
 80021f4:	0409      	lsls	r1, r1, #16
 80021f6:	0c09      	lsrs	r1, r1, #16
 80021f8:	8019      	strh	r1, [r3, #0]
 80021fa:	8999      	ldrh	r1, [r3, #12]
 80021fc:	f882 801c 	strb.w	r8, [r2, #28]
 8002200:	f021 0201 	bic.w	r2, r1, #1
 8002204:	0412      	lsls	r2, r2, #16
 8002206:	0c12      	lsrs	r2, r2, #16
 8002208:	819a      	strh	r2, [r3, #12]
 800220a:	881a      	ldrh	r2, [r3, #0]
 800220c:	f422 725c 	bic.w	r2, r2, #880	; 0x370
 8002210:	0412      	lsls	r2, r2, #16
 8002212:	0c12      	lsrs	r2, r2, #16
 8002214:	801a      	strh	r2, [r3, #0]
 8002216:	f642 61df 	movw	r1, #11999	; 0x2edf
 800221a:	f64f 72fe 	movw	r2, #65534	; 0xfffe
 800221e:	62d9      	str	r1, [r3, #44]	; 0x2c
 8002220:	851c      	strh	r4, [r3, #40]	; 0x28
 8002222:	8298      	strh	r0, [r3, #20]
 8002224:	821a      	strh	r2, [r3, #16]
 8002226:	881a      	ldrh	r2, [r3, #0]
 8002228:	b292      	uxth	r2, r2
 800222a:	f042 0280 	orr.w	r2, r2, #128	; 0x80
 800222e:	801a      	strh	r2, [r3, #0]
 8002230:	899a      	ldrh	r2, [r3, #12]
 8002232:	b292      	uxth	r2, r2
 8002234:	f042 0201 	orr.w	r2, r2, #1
 8002238:	819a      	strh	r2, [r3, #12]
 800223a:	881a      	ldrh	r2, [r3, #0]
 800223c:	b292      	uxth	r2, r2
 800223e:	f042 0201 	orr.w	r2, r2, #1
 8002242:	801a      	strh	r2, [r3, #0]
 8002244:	683b      	ldr	r3, [r7, #0]
 8002246:	2b00      	cmp	r3, #0
 8002248:	d1fc      	bne.n	8002244 <main+0x20bc>
 800224a:	f04f 4280 	mov.w	r2, #1073741824	; 0x40000000
 800224e:	2101      	movs	r1, #1
 8002250:	8813      	ldrh	r3, [r2, #0]
 8002252:	f88a 1020 	strb.w	r1, [sl, #32]
 8002256:	f023 0301 	bic.w	r3, r3, #1
 800225a:	f8da 1068 	ldr.w	r1, [sl, #104]	; 0x68
 800225e:	041b      	lsls	r3, r3, #16
 8002260:	0c1b      	lsrs	r3, r3, #16
 8002262:	8013      	strh	r3, [r2, #0]
 8002264:	6a0b      	ldr	r3, [r1, #32]
 8002266:	4798      	blx	r3
 8002268:	f89a 3020 	ldrb.w	r3, [sl, #32]
 800226c:	f89a 1004 	ldrb.w	r1, [sl, #4]
 8002270:	2203      	movs	r2, #3
 8002272:	f88a 2002 	strb.w	r2, [sl, #2]
 8002276:	b11b      	cbz	r3, 8002280 <main+0x20f8>
 8002278:	eb0b 1241 	add.w	r2, fp, r1, lsl #5
 800227c:	f882 33ac 	strb.w	r3, [r2, #940]	; 0x3ac
 8002280:	4c39      	ldr	r4, [pc, #228]	; (8002368 <main+0x21e0>)
 8002282:	4620      	mov	r0, r4
 8002284:	f003 f844 	bl	8005310 <USB_OTG_HC_Init>
 8002288:	f89a 3020 	ldrb.w	r3, [sl, #32]
 800228c:	f89a 1005 	ldrb.w	r1, [sl, #5]
 8002290:	2b00      	cmp	r3, #0
 8002292:	f43f a98a 	beq.w	80015aa <main+0x1422>
 8002296:	eb04 1441 	add.w	r4, r4, r1, lsl #5
 800229a:	f884 33ac 	strb.w	r3, [r4, #940]	; 0x3ac
 800229e:	f7ff b984 	b.w	80015aa <main+0x1422>
 80022a2:	2201      	movs	r2, #1
 80022a4:	f883 801c 	strb.w	r8, [r3, #28]
 80022a8:	7099      	strb	r1, [r3, #2]
 80022aa:	70da      	strb	r2, [r3, #3]
 80022ac:	f7fe bf82 	b.w	80011b4 <main+0x102c>
 80022b0:	2307      	movs	r3, #7
 80022b2:	7713      	strb	r3, [r2, #28]
 80022b4:	f7fe bf7e 	b.w	80011b4 <main+0x102c>
 80022b8:	2209      	movs	r2, #9
 80022ba:	771a      	strb	r2, [r3, #28]
 80022bc:	e6a7      	b.n	800200e <main+0x1e86>
 80022be:	f89b 2111 	ldrb.w	r2, [fp, #273]	; 0x111
 80022c2:	f884 801c 	strb.w	r8, [r4, #28]
 80022c6:	2301      	movs	r3, #1
 80022c8:	2a03      	cmp	r2, #3
 80022ca:	70e3      	strb	r3, [r4, #3]
 80022cc:	4b26      	ldr	r3, [pc, #152]	; (8002368 <main+0x21e0>)
 80022ce:	d009      	beq.n	80022e4 <main+0x215c>
 80022d0:	f8da 3068 	ldr.w	r3, [sl, #104]	; 0x68
 80022d4:	9802      	ldr	r0, [sp, #8]
 80022d6:	6b1b      	ldr	r3, [r3, #48]	; 0x30
 80022d8:	4798      	blx	r3
 80022da:	2308      	movs	r3, #8
 80022dc:	f88a 3002 	strb.w	r3, [sl, #2]
 80022e0:	f7fe bf68 	b.w	80011b4 <main+0x102c>
 80022e4:	f893 3110 	ldrb.w	r3, [r3, #272]	; 0x110
 80022e8:	3b02      	subs	r3, #2
 80022ea:	2bff      	cmp	r3, #255	; 0xff
 80022ec:	bfa8      	it	ge
 80022ee:	23ff      	movge	r3, #255	; 0xff
 80022f0:	b298      	uxth	r0, r3
 80022f2:	b180      	cbz	r0, 8002316 <main+0x218e>
 80022f4:	f10d 0251 	add.w	r2, sp, #81	; 0x51
 80022f8:	2300      	movs	r3, #0
 80022fa:	4c1c      	ldr	r4, [pc, #112]	; (800236c <main+0x21e4>)
 80022fc:	1c99      	adds	r1, r3, #2
 80022fe:	5ce3      	ldrb	r3, [r4, r3]
 8002300:	f802 3c01 	strb.w	r3, [r2, #-1]
 8002304:	b28b      	uxth	r3, r1
 8002306:	4298      	cmp	r0, r3
 8002308:	4611      	mov	r1, r2
 800230a:	f102 0201 	add.w	r2, r2, #1
 800230e:	d8f4      	bhi.n	80022fa <main+0x2172>
 8002310:	f881 8000 	strb.w	r8, [r1]
 8002314:	e7dc      	b.n	80022d0 <main+0x2148>
 8002316:	9902      	ldr	r1, [sp, #8]
 8002318:	f881 8000 	strb.w	r8, [r1]
 800231c:	e7d8      	b.n	80022d0 <main+0x2148>
 800231e:	f893 3110 	ldrb.w	r3, [r3, #272]	; 0x110
 8002322:	3b02      	subs	r3, #2
 8002324:	2bff      	cmp	r3, #255	; 0xff
 8002326:	bfa8      	it	ge
 8002328:	23ff      	movge	r3, #255	; 0xff
 800232a:	b298      	uxth	r0, r3
 800232c:	b310      	cbz	r0, 8002374 <main+0x21ec>
 800232e:	f10d 0251 	add.w	r2, sp, #81	; 0x51
 8002332:	2300      	movs	r3, #0
 8002334:	f8df c034 	ldr.w	ip, [pc, #52]	; 800236c <main+0x21e4>
 8002338:	1c99      	adds	r1, r3, #2
 800233a:	f81c 3003 	ldrb.w	r3, [ip, r3]
 800233e:	f802 3c01 	strb.w	r3, [r2, #-1]
 8002342:	b28b      	uxth	r3, r1
 8002344:	4298      	cmp	r0, r3
 8002346:	4611      	mov	r1, r2
 8002348:	f102 0201 	add.w	r2, r2, #1
 800234c:	d8f2      	bhi.n	8002334 <main+0x21ac>
 800234e:	f881 8000 	strb.w	r8, [r1]
 8002352:	f7ff b9e0 	b.w	8001716 <main+0x158e>
 8002356:	bf00      	nop
 8002358:	200004dc 	.word	0x200004dc
 800235c:	20000528 	.word	0x20000528
 8002360:	20014ea0 	.word	0x20014ea0
 8002364:	2000057a 	.word	0x2000057a
 8002368:	20014d90 	.word	0x20014d90
 800236c:	20014ea2 	.word	0x20014ea2
 8002370:	20000526 	.word	0x20000526
 8002374:	9902      	ldr	r1, [sp, #8]
 8002376:	f881 8000 	strb.w	r8, [r1]
 800237a:	f7ff b9cc 	b.w	8001716 <main+0x158e>
 800237e:	2203      	movs	r2, #3
 8002380:	771a      	strb	r2, [r3, #28]
 8002382:	e644      	b.n	800200e <main+0x1e86>
 8002384:	f893 3110 	ldrb.w	r3, [r3, #272]	; 0x110
 8002388:	3b02      	subs	r3, #2
 800238a:	2bff      	cmp	r3, #255	; 0xff
 800238c:	bfa8      	it	ge
 800238e:	23ff      	movge	r3, #255	; 0xff
 8002390:	b298      	uxth	r0, r3
 8002392:	b188      	cbz	r0, 80023b8 <main+0x2230>
 8002394:	f10d 0251 	add.w	r2, sp, #81	; 0x51
 8002398:	2300      	movs	r3, #0
 800239a:	4c3e      	ldr	r4, [pc, #248]	; (8002494 <main+0x230c>)
 800239c:	1c99      	adds	r1, r3, #2
 800239e:	5ce3      	ldrb	r3, [r4, r3]
 80023a0:	f802 3c01 	strb.w	r3, [r2, #-1]
 80023a4:	b28b      	uxth	r3, r1
 80023a6:	4298      	cmp	r0, r3
 80023a8:	4611      	mov	r1, r2
 80023aa:	f102 0201 	add.w	r2, r2, #1
 80023ae:	d8f4      	bhi.n	800239a <main+0x2212>
 80023b0:	f881 8000 	strb.w	r8, [r1]
 80023b4:	f7ff bafe 	b.w	80019b4 <main+0x182c>
 80023b8:	9902      	ldr	r1, [sp, #8]
 80023ba:	f881 8000 	strb.w	r8, [r1]
 80023be:	f7ff baf9 	b.w	80019b4 <main+0x182c>
 80023c2:	4c35      	ldr	r4, [pc, #212]	; (8002498 <main+0x2310>)
 80023c4:	f7fe ba6d 	b.w	80008a2 <main+0x71a>
 80023c8:	4c34      	ldr	r4, [pc, #208]	; (800249c <main+0x2314>)
 80023ca:	f7fe ba6a 	b.w	80008a2 <main+0x71a>
 80023ce:	4b34      	ldr	r3, [pc, #208]	; (80024a0 <main+0x2318>)
 80023d0:	889a      	ldrh	r2, [r3, #4]
 80023d2:	b292      	uxth	r2, r2
 80023d4:	f042 0202 	orr.w	r2, r2, #2
 80023d8:	809a      	strh	r2, [r3, #4]
 80023da:	f10d 0848 	add.w	r8, sp, #72	; 0x48
 80023de:	f7fe bb92 	b.w	8000b06 <main+0x97e>
 80023e2:	4b30      	ldr	r3, [pc, #192]	; (80024a4 <main+0x231c>)
 80023e4:	4d30      	ldr	r5, [pc, #192]	; (80024a8 <main+0x2320>)
 80023e6:	6b19      	ldr	r1, [r3, #48]	; 0x30
 80023e8:	4c30      	ldr	r4, [pc, #192]	; (80024ac <main+0x2324>)
 80023ea:	4a31      	ldr	r2, [pc, #196]	; (80024b0 <main+0x2328>)
 80023ec:	f8df 90c4 	ldr.w	r9, [pc, #196]	; 80024b4 <main+0x232c>
 80023f0:	f441 1100 	orr.w	r1, r1, #2097152	; 0x200000
 80023f4:	6319      	str	r1, [r3, #48]	; 0x30
 80023f6:	682b      	ldr	r3, [r5, #0]
 80023f8:	f023 0301 	bic.w	r3, r3, #1
 80023fc:	602b      	str	r3, [r5, #0]
 80023fe:	6828      	ldr	r0, [r5, #0]
 8002400:	2121      	movs	r1, #33	; 0x21
 8002402:	f020 0001 	bic.w	r0, r0, #1
 8002406:	f04f 533d 	mov.w	r3, #792723456	; 0x2f400000
 800240a:	6028      	str	r0, [r5, #0]
 800240c:	f64f 7cfe 	movw	ip, #65534	; 0xfffe
 8002410:	602e      	str	r6, [r5, #0]
 8002412:	4628      	mov	r0, r5
 8002414:	606e      	str	r6, [r5, #4]
 8002416:	f44f 6e80 	mov.w	lr, #1024	; 0x400
 800241a:	60ae      	str	r6, [r5, #8]
 800241c:	f04f 0a40 	mov.w	sl, #64	; 0x40
 8002420:	60ee      	str	r6, [r5, #12]
 8002422:	612e      	str	r6, [r5, #16]
 8002424:	6169      	str	r1, [r5, #20]
 8002426:	60d3      	str	r3, [r2, #12]
 8002428:	f44f 6100 	mov.w	r1, #2048	; 0x800
 800242c:	f44f 5200 	mov.w	r2, #8192	; 0x2000
 8002430:	f44f 7380 	mov.w	r3, #256	; 0x100
 8002434:	6026      	str	r6, [r4, #0]
 8002436:	60a6      	str	r6, [r4, #8]
 8002438:	6166      	str	r6, [r4, #20]
 800243a:	62e6      	str	r6, [r4, #44]	; 0x2c
 800243c:	6326      	str	r6, [r4, #48]	; 0x30
 800243e:	6366      	str	r6, [r4, #52]	; 0x34
 8002440:	63a6      	str	r6, [r4, #56]	; 0x38
 8002442:	f44f 3640 	mov.w	r6, #196608	; 0x30000
 8002446:	6222      	str	r2, [r4, #32]
 8002448:	6263      	str	r3, [r4, #36]	; 0x24
 800244a:	62a6      	str	r6, [r4, #40]	; 0x28
 800244c:	f8c4 9004 	str.w	r9, [r4, #4]
 8002450:	f8c4 a00c 	str.w	sl, [r4, #12]
 8002454:	f8c4 c010 	str.w	ip, [r4, #16]
 8002458:	f8c4 e018 	str.w	lr, [r4, #24]
 800245c:	61e1      	str	r1, [r4, #28]
 800245e:	f002 fe23 	bl	80050a8 <DMA_Init.constprop.46>
 8002462:	682b      	ldr	r3, [r5, #0]
 8002464:	f043 0310 	orr.w	r3, r3, #16
 8002468:	602b      	str	r3, [r5, #0]
 800246a:	682b      	ldr	r3, [r5, #0]
 800246c:	ae11      	add	r6, sp, #68	; 0x44
 800246e:	f043 0308 	orr.w	r3, r3, #8
 8002472:	602b      	str	r3, [r5, #0]
 8002474:	222f      	movs	r2, #47	; 0x2f
 8002476:	2303      	movs	r3, #3
 8002478:	4630      	mov	r0, r6
 800247a:	f88d 8047 	strb.w	r8, [sp, #71]	; 0x47
 800247e:	f88d 2044 	strb.w	r2, [sp, #68]	; 0x44
 8002482:	f88d 3045 	strb.w	r3, [sp, #69]	; 0x45
 8002486:	f88d 3046 	strb.w	r3, [sp, #70]	; 0x46
 800248a:	f002 ff07 	bl	800529c <NVIC_Init>
 800248e:	f7fe bef5 	b.w	800127c <main+0x10f4>
 8002492:	bf00      	nop
 8002494:	20014ea2 	.word	0x20014ea2
 8002498:	00f42400 	.word	0x00f42400
 800249c:	007a1200 	.word	0x007a1200
 80024a0:	40003c00 	.word	0x40003c00
 80024a4:	40023800 	.word	0x40023800
 80024a8:	400260b8 	.word	0x400260b8
 80024ac:	20014ab0 	.word	0x20014ab0
 80024b0:	40026000 	.word	0x40026000
 80024b4:	40003c0c 	.word	0x40003c0c

080024b8 <make_sound.constprop.52>:
make_sound.constprop.52():
 80024b8:	e92d 4ff0 	stmdb	sp!, {r4, r5, r6, r7, r8, r9, sl, fp, lr}
 80024bc:	ed2d 8b08 	vpush	{d8-d11}
 80024c0:	b085      	sub	sp, #20
 80024c2:	f100 0904 	add.w	r9, r0, #4
 80024c6:	f8df 833c 	ldr.w	r8, [pc, #828]	; 8002804 <make_sound.constprop.52+0x34c>
 80024ca:	4ec7      	ldr	r6, [pc, #796]	; (80027e8 <make_sound.constprop.52+0x330>)
 80024cc:	4dc7      	ldr	r5, [pc, #796]	; (80027ec <make_sound.constprop.52+0x334>)
 80024ce:	4fc8      	ldr	r7, [pc, #800]	; (80027f0 <make_sound.constprop.52+0x338>)
 80024d0:	4cc8      	ldr	r4, [pc, #800]	; (80027f4 <make_sound.constprop.52+0x33c>)
 80024d2:	ed9f 9ac9 	vldr	s18, [pc, #804]	; 80027f8 <make_sound.constprop.52+0x340>
 80024d6:	eddf 9ac9 	vldr	s19, [pc, #804]	; 80027fc <make_sound.constprop.52+0x344>
 80024da:	ed9f 8ac9 	vldr	s16, [pc, #804]	; 8002800 <make_sound.constprop.52+0x348>
 80024de:	f200 6044 	addw	r0, r0, #1604	; 0x644
 80024e2:	9003      	str	r0, [sp, #12]
 80024e4:	f8d8 3028 	ldr.w	r3, [r8, #40]	; 0x28
 80024e8:	49c6      	ldr	r1, [pc, #792]	; (8002804 <make_sound.constprop.52+0x34c>)
 80024ea:	1e5a      	subs	r2, r3, #1
 80024ec:	2b00      	cmp	r3, #0
 80024ee:	f8c8 2028 	str.w	r2, [r8, #40]	; 0x28
 80024f2:	f341 8267 	ble.w	80039c4 <make_sound.constprop.52+0x150c>
 80024f6:	edd5 7a03 	vldr	s15, [r5, #12]
 80024fa:	eef5 7ac0 	vcmpe.f32	s15, #0.0
 80024fe:	eef1 fa10 	vmrs	APSR_nzcv, fpscr
 8002502:	d508      	bpl.n	8002516 <make_sound.constprop.52+0x5e>
 8002504:	ee77 7a88 	vadd.f32	s15, s15, s16
 8002508:	eef5 7ac0 	vcmpe.f32	s15, #0.0
 800250c:	eef1 fa10 	vmrs	APSR_nzcv, fpscr
 8002510:	d4f8      	bmi.n	8002504 <make_sound.constprop.52+0x4c>
 8002512:	edc5 7a03 	vstr	s15, [r5, #12]
 8002516:	eef4 7ac8 	vcmpe.f32	s15, s16
 800251a:	eef1 fa10 	vmrs	APSR_nzcv, fpscr
 800251e:	db08      	blt.n	8002532 <make_sound.constprop.52+0x7a>
 8002520:	ee77 7ac8 	vsub.f32	s15, s15, s16
 8002524:	eef4 7ac8 	vcmpe.f32	s15, s16
 8002528:	eef1 fa10 	vmrs	APSR_nzcv, fpscr
 800252c:	daf8      	bge.n	8002520 <make_sound.constprop.52+0x68>
 800252e:	edc5 7a03 	vstr	s15, [r5, #12]
 8002532:	ed9f 0ab5 	vldr	s0, [pc, #724]	; 8002808 <make_sound.constprop.52+0x350>
 8002536:	ed95 aa00 	vldr	s20, [r5]
 800253a:	ee27 0a80 	vmul.f32	s0, s15, s0
 800253e:	f007 fecb 	bl	800a2d8 <lrintf>
 8002542:	49b2      	ldr	r1, [pc, #712]	; (800280c <make_sound.constprop.52+0x354>)
 8002544:	edd5 7a03 	vldr	s15, [r5, #12]
 8002548:	edd5 5a02 	vldr	s11, [r5, #8]
 800254c:	ed9f 6ab8 	vldr	s12, [pc, #736]	; 8002830 <make_sound.constprop.52+0x378>
 8002550:	4aaf      	ldr	r2, [pc, #700]	; (8002810 <make_sound.constprop.52+0x358>)
 8002552:	f8df e2d8 	ldr.w	lr, [pc, #728]	; 800282c <make_sound.constprop.52+0x374>
 8002556:	edd2 6a00 	vldr	s13, [r2]
 800255a:	f89e 3000 	ldrb.w	r3, [lr]
 800255e:	eb01 0080 	add.w	r0, r1, r0, lsl #2
 8002562:	ed90 7a00 	vldr	s14, [r0]
 8002566:	ee2a 7a07 	vmul.f32	s14, s20, s14
 800256a:	eef7 8a00 	vmov.f32	s17, #112	; 0x70
 800256e:	ee77 8a28 	vadd.f32	s17, s14, s17
 8002572:	eee5 7a86 	vfma.f32	s15, s11, s12
 8002576:	ee68 8aa6 	vmul.f32	s17, s17, s13
 800257a:	ed85 7a07 	vstr	s14, [r5, #28]
 800257e:	edc7 8a02 	vstr	s17, [r7, #8]
 8002582:	edc5 7a03 	vstr	s15, [r5, #12]
 8002586:	2b10      	cmp	r3, #16
 8002588:	f201 81de 	bhi.w	8003948 <make_sound.constprop.52+0x1490>
 800258c:	e8df f013 	tbh	[pc, r3, lsl #1]
 8002590:	02f700e1 	.word	0x02f700e1
 8002594:	00a2007a 	.word	0x00a2007a
 8002598:	09dc018c 	.word	0x09dc018c
 800259c:	015209dc 	.word	0x015209dc
 80025a0:	00110044 	.word	0x00110044
 80025a4:	06fc0910 	.word	0x06fc0910
 80025a8:	037f0485 	.word	0x037f0485
 80025ac:	056e07af 	.word	0x056e07af
 80025b0:	01d9      	.short	0x01d9
 80025b2:	edd7 7a03 	vldr	s15, [r7, #12]
 80025b6:	eef5 7ac0 	vcmpe.f32	s15, #0.0
 80025ba:	eef1 fa10 	vmrs	APSR_nzcv, fpscr
 80025be:	d50d      	bpl.n	80025dc <make_sound.constprop.52+0x124>
 80025c0:	ee77 7a88 	vadd.f32	s15, s15, s16
 80025c4:	eef5 7ac0 	vcmpe.f32	s15, #0.0
 80025c8:	eef1 fa10 	vmrs	APSR_nzcv, fpscr
 80025cc:	d4f8      	bmi.n	80025c0 <make_sound.constprop.52+0x108>
 80025ce:	eef4 7ac8 	vcmpe.f32	s15, s16
 80025d2:	eef1 fa10 	vmrs	APSR_nzcv, fpscr
 80025d6:	db06      	blt.n	80025e6 <make_sound.constprop.52+0x12e>
 80025d8:	ee77 7ac8 	vsub.f32	s15, s15, s16
 80025dc:	eef4 7ac8 	vcmpe.f32	s15, s16
 80025e0:	eef1 fa10 	vmrs	APSR_nzcv, fpscr
 80025e4:	daf8      	bge.n	80025d8 <make_sound.constprop.52+0x120>
 80025e6:	ed9f 7a8b 	vldr	s14, [pc, #556]	; 8002814 <make_sound.constprop.52+0x35c>
 80025ea:	eddf 6a91 	vldr	s13, [pc, #580]	; 8002830 <make_sound.constprop.52+0x378>
 80025ee:	eddf aa8a 	vldr	s21, [pc, #552]	; 8002818 <make_sound.constprop.52+0x360>
 80025f2:	eef4 7ac7 	vcmpe.f32	s15, s14
 80025f6:	eee8 7aa6 	vfma.f32	s15, s17, s13
 80025fa:	ed97 7a00 	vldr	s14, [r7]
 80025fe:	edc7 7a03 	vstr	s15, [r7, #12]
 8002602:	eef1 fa10 	vmrs	APSR_nzcv, fpscr
 8002606:	bf58      	it	pl
 8002608:	eeb1 7a47 	vnegpl.f32	s14, s14
 800260c:	ed87 7a07 	vstr	s14, [r7, #28]
 8002610:	ee67 aa2a 	vmul.f32	s21, s14, s21
 8002614:	f001 b8de 	b.w	80037d4 <make_sound.constprop.52+0x131c>
 8002618:	edd7 7a03 	vldr	s15, [r7, #12]
 800261c:	eef5 7ac0 	vcmpe.f32	s15, #0.0
 8002620:	eef1 fa10 	vmrs	APSR_nzcv, fpscr
 8002624:	d50d      	bpl.n	8002642 <make_sound.constprop.52+0x18a>
 8002626:	ee77 7a88 	vadd.f32	s15, s15, s16
 800262a:	eef5 7ac0 	vcmpe.f32	s15, #0.0
 800262e:	eef1 fa10 	vmrs	APSR_nzcv, fpscr
 8002632:	d4f8      	bmi.n	8002626 <make_sound.constprop.52+0x16e>
 8002634:	eef4 7ac8 	vcmpe.f32	s15, s16
 8002638:	eef1 fa10 	vmrs	APSR_nzcv, fpscr
 800263c:	db06      	blt.n	800264c <make_sound.constprop.52+0x194>
 800263e:	ee77 7ac8 	vsub.f32	s15, s15, s16
 8002642:	eef4 7ac8 	vcmpe.f32	s15, s16
 8002646:	eef1 fa10 	vmrs	APSR_nzcv, fpscr
 800264a:	daf8      	bge.n	800263e <make_sound.constprop.52+0x186>
 800264c:	ed9f 7a71 	vldr	s14, [pc, #452]	; 8002814 <make_sound.constprop.52+0x35c>
 8002650:	eef4 7ac7 	vcmpe.f32	s15, s14
 8002654:	eef1 fa10 	vmrs	APSR_nzcv, fpscr
 8002658:	f100 830e 	bmi.w	8002c78 <make_sound.constprop.52+0x7c0>
 800265c:	eddf 6a6f 	vldr	s13, [pc, #444]	; 800281c <make_sound.constprop.52+0x364>
 8002660:	edd7 aa00 	vldr	s21, [r7]
 8002664:	eeb8 7a08 	vmov.f32	s14, #136	; 0x88
 8002668:	eea7 7aa6 	vfma.f32	s14, s15, s13
 800266c:	ee67 aa2a 	vmul.f32	s21, s14, s21
 8002670:	ed9f 7a6f 	vldr	s14, [pc, #444]	; 8002830 <make_sound.constprop.52+0x378>
 8002674:	edc7 aa07 	vstr	s21, [r7, #28]
 8002678:	eee8 7a87 	vfma.f32	s15, s17, s14
 800267c:	edc7 7a03 	vstr	s15, [r7, #12]
 8002680:	f001 b8a8 	b.w	80037d4 <make_sound.constprop.52+0x131c>
 8002684:	ed97 0a03 	vldr	s0, [r7, #12]
 8002688:	eeb4 0ac8 	vcmpe.f32	s0, s16
 800268c:	eef1 fa10 	vmrs	APSR_nzcv, fpscr
 8002690:	db08      	blt.n	80026a4 <make_sound.constprop.52+0x1ec>
 8002692:	ee30 0a48 	vsub.f32	s0, s0, s16
 8002696:	eeb4 0ac8 	vcmpe.f32	s0, s16
 800269a:	eef1 fa10 	vmrs	APSR_nzcv, fpscr
 800269e:	daf8      	bge.n	8002692 <make_sound.constprop.52+0x1da>
 80026a0:	ed87 0a03 	vstr	s0, [r7, #12]
 80026a4:	f007 feca 	bl	800a43c <sinf>
 80026a8:	edd7 7a03 	vldr	s15, [r7, #12]
 80026ac:	ed97 6a02 	vldr	s12, [r7, #8]
 80026b0:	eddf 6a5f 	vldr	s13, [pc, #380]	; 8002830 <make_sound.constprop.52+0x378>
 80026b4:	ed97 7a00 	vldr	s14, [r7]
 80026b8:	eddf aa59 	vldr	s21, [pc, #356]	; 8002820 <make_sound.constprop.52+0x368>
 80026bc:	eee6 7a26 	vfma.f32	s15, s12, s13
 80026c0:	ee20 0a07 	vmul.f32	s0, s0, s14
 80026c4:	edc7 7a03 	vstr	s15, [r7, #12]
 80026c8:	ed87 0a07 	vstr	s0, [r7, #28]
 80026cc:	ee60 aa2a 	vmul.f32	s21, s0, s21
 80026d0:	f001 b880 	b.w	80037d4 <make_sound.constprop.52+0x131c>
 80026d4:	edd7 7a03 	vldr	s15, [r7, #12]
 80026d8:	eef5 7ac0 	vcmpe.f32	s15, #0.0
 80026dc:	eef1 fa10 	vmrs	APSR_nzcv, fpscr
 80026e0:	d508      	bpl.n	80026f4 <make_sound.constprop.52+0x23c>
 80026e2:	ee77 7a88 	vadd.f32	s15, s15, s16
 80026e6:	eef5 7ac0 	vcmpe.f32	s15, #0.0
 80026ea:	eef1 fa10 	vmrs	APSR_nzcv, fpscr
 80026ee:	d4f8      	bmi.n	80026e2 <make_sound.constprop.52+0x22a>
 80026f0:	edc7 7a03 	vstr	s15, [r7, #12]
 80026f4:	eef4 7ac8 	vcmpe.f32	s15, s16
 80026f8:	eef1 fa10 	vmrs	APSR_nzcv, fpscr
 80026fc:	db08      	blt.n	8002710 <make_sound.constprop.52+0x258>
 80026fe:	ee77 7ac8 	vsub.f32	s15, s15, s16
 8002702:	eef4 7ac8 	vcmpe.f32	s15, s16
 8002706:	eef1 fa10 	vmrs	APSR_nzcv, fpscr
 800270a:	daf8      	bge.n	80026fe <make_sound.constprop.52+0x246>
 800270c:	edc7 7a03 	vstr	s15, [r7, #12]
 8002710:	ed9f 0a3d 	vldr	s0, [pc, #244]	; 8002808 <make_sound.constprop.52+0x350>
 8002714:	edd7 8a00 	vldr	s17, [r7]
 8002718:	eddf aa41 	vldr	s21, [pc, #260]	; 8002820 <make_sound.constprop.52+0x368>
 800271c:	ee27 0a80 	vmul.f32	s0, s15, s0
 8002720:	f007 fdda 	bl	800a2d8 <lrintf>
 8002724:	4939      	ldr	r1, [pc, #228]	; (800280c <make_sound.constprop.52+0x354>)
 8002726:	edd7 7a03 	vldr	s15, [r7, #12]
 800272a:	ed97 6a02 	vldr	s12, [r7, #8]
 800272e:	eddf 6a40 	vldr	s13, [pc, #256]	; 8002830 <make_sound.constprop.52+0x378>
 8002732:	eb01 0080 	add.w	r0, r1, r0, lsl #2
 8002736:	ed90 7a00 	vldr	s14, [r0]
 800273a:	eee6 7a26 	vfma.f32	s15, s12, s13
 800273e:	ee28 7a87 	vmul.f32	s14, s17, s14
 8002742:	edc7 7a03 	vstr	s15, [r7, #12]
 8002746:	ed87 7a07 	vstr	s14, [r7, #28]
 800274a:	ee67 aa2a 	vmul.f32	s21, s14, s21
 800274e:	f001 b841 	b.w	80037d4 <make_sound.constprop.52+0x131c>
 8002752:	edd7 7a03 	vldr	s15, [r7, #12]
 8002756:	eef5 7ac0 	vcmpe.f32	s15, #0.0
 800275a:	eef1 fa10 	vmrs	APSR_nzcv, fpscr
 800275e:	d50d      	bpl.n	800277c <make_sound.constprop.52+0x2c4>
 8002760:	ee77 7a88 	vadd.f32	s15, s15, s16
 8002764:	eef5 7ac0 	vcmpe.f32	s15, #0.0
 8002768:	eef1 fa10 	vmrs	APSR_nzcv, fpscr
 800276c:	d4f8      	bmi.n	8002760 <make_sound.constprop.52+0x2a8>
 800276e:	eef4 7ac8 	vcmpe.f32	s15, s16
 8002772:	eef1 fa10 	vmrs	APSR_nzcv, fpscr
 8002776:	db06      	blt.n	8002786 <make_sound.constprop.52+0x2ce>
 8002778:	ee77 7ac8 	vsub.f32	s15, s15, s16
 800277c:	eef4 7ac8 	vcmpe.f32	s15, s16
 8002780:	eef1 fa10 	vmrs	APSR_nzcv, fpscr
 8002784:	daf8      	bge.n	8002778 <make_sound.constprop.52+0x2c0>
 8002786:	ed9f 7a27 	vldr	s14, [pc, #156]	; 8002824 <make_sound.constprop.52+0x36c>
 800278a:	eef4 8ac7 	vcmpe.f32	s17, s14
 800278e:	eef1 fa10 	vmrs	APSR_nzcv, fpscr
 8002792:	f101 8494 	bmi.w	80040be <make_sound.constprop.52+0x1c06>
 8002796:	ed9f 7a1f 	vldr	s14, [pc, #124]	; 8002814 <make_sound.constprop.52+0x35c>
 800279a:	eef4 7ac7 	vcmpe.f32	s15, s14
 800279e:	eef1 fa10 	vmrs	APSR_nzcv, fpscr
 80027a2:	ed87 7a04 	vstr	s14, [r7, #16]
 80027a6:	f101 84a0 	bmi.w	80040ea <make_sound.constprop.52+0x1c32>
 80027aa:	eddf 6a1f 	vldr	s13, [pc, #124]	; 8002828 <make_sound.constprop.52+0x370>
 80027ae:	edd7 5a00 	vldr	s11, [r7]
 80027b2:	eeb0 6a00 	vmov.f32	s12, #0
 80027b6:	eee7 6a86 	vfma.f32	s13, s15, s12
 80027ba:	ee38 6a47 	vsub.f32	s12, s16, s14
 80027be:	ee36 7ac7 	vsub.f32	s14, s13, s14
 80027c2:	ee27 7a25 	vmul.f32	s14, s14, s11
 80027c6:	ee87 7a06 	vdiv.f32	s14, s14, s12
 80027ca:	eddf 6a19 	vldr	s13, [pc, #100]	; 8002830 <make_sound.constprop.52+0x378>
 80027ce:	eddf aa14 	vldr	s21, [pc, #80]	; 8002820 <make_sound.constprop.52+0x368>
 80027d2:	ed87 7a07 	vstr	s14, [r7, #28]
 80027d6:	eee8 7aa6 	vfma.f32	s15, s17, s13
 80027da:	ee67 aa2a 	vmul.f32	s21, s14, s21
 80027de:	edc7 7a03 	vstr	s15, [r7, #12]
 80027e2:	f000 bff7 	b.w	80037d4 <make_sound.constprop.52+0x131c>
 80027e6:	bf00      	nop
 80027e8:	20014cf4 	.word	0x20014cf4
 80027ec:	10002d8c 	.word	0x10002d8c
 80027f0:	10002d0c 	.word	0x10002d0c
 80027f4:	10002dec 	.word	0x10002dec
 80027f8:	30000000 	.word	0x30000000
 80027fc:	3ecccccd 	.word	0x3ecccccd
 8002800:	40c90fdb 	.word	0x40c90fdb
 8002804:	200004f0 	.word	0x200004f0
 8002808:	4322f983 	.word	0x4322f983
 800280c:	0800c50c 	.word	0x0800c50c
 8002810:	10002e38 	.word	0x10002e38
 8002814:	40490fdb 	.word	0x40490fdb
 8002818:	3f19999a 	.word	0x3f19999a
 800281c:	3f22f983 	.word	0x3f22f983
 8002820:	3f4ccccd 	.word	0x3f4ccccd
 8002824:	45fa0000 	.word	0x45fa0000
 8002828:	c0c90fdb 	.word	0xc0c90fdb
 800282c:	10000034 	.word	0x10000034
 8002830:	3909421f 	.word	0x3909421f
 8002834:	ed97 0a03 	vldr	s0, [r7, #12]
 8002838:	eeb5 0ac0 	vcmpe.f32	s0, #0.0
 800283c:	eef1 fa10 	vmrs	APSR_nzcv, fpscr
 8002840:	d508      	bpl.n	8002854 <make_sound.constprop.52+0x39c>
 8002842:	ee30 0a08 	vadd.f32	s0, s0, s16
 8002846:	eeb5 0ac0 	vcmpe.f32	s0, #0.0
 800284a:	eef1 fa10 	vmrs	APSR_nzcv, fpscr
 800284e:	d4f8      	bmi.n	8002842 <make_sound.constprop.52+0x38a>
 8002850:	ed87 0a03 	vstr	s0, [r7, #12]
 8002854:	eeb4 0ac8 	vcmpe.f32	s0, s16
 8002858:	eef1 fa10 	vmrs	APSR_nzcv, fpscr
 800285c:	db08      	blt.n	8002870 <make_sound.constprop.52+0x3b8>
 800285e:	ee30 0a48 	vsub.f32	s0, s0, s16
 8002862:	eeb4 0ac8 	vcmpe.f32	s0, s16
 8002866:	eef1 fa10 	vmrs	APSR_nzcv, fpscr
 800286a:	daf8      	bge.n	800285e <make_sound.constprop.52+0x3a6>
 800286c:	ed87 0a03 	vstr	s0, [r7, #12]
 8002870:	f007 fde4 	bl	800a43c <sinf>
 8002874:	edd7 aa00 	vldr	s21, [r7]
 8002878:	edd7 7a03 	vldr	s15, [r7, #12]
 800287c:	edd7 6a02 	vldr	s13, [r7, #8]
 8002880:	ed1f 7a15 	vldr	s14, [pc, #-84]	; 8002830 <make_sound.constprop.52+0x378>
 8002884:	ee60 aa2a 	vmul.f32	s21, s0, s21
 8002888:	eee6 7a87 	vfma.f32	s15, s13, s14
 800288c:	ee60 aa2a 	vmul.f32	s21, s0, s21
 8002890:	edc7 7a03 	vstr	s15, [r7, #12]
 8002894:	ee60 aa2a 	vmul.f32	s21, s0, s21
 8002898:	ee60 aa2a 	vmul.f32	s21, s0, s21
 800289c:	ee60 aa2a 	vmul.f32	s21, s0, s21
 80028a0:	edc7 aa07 	vstr	s21, [r7, #28]
 80028a4:	f000 bf96 	b.w	80037d4 <make_sound.constprop.52+0x131c>
 80028a8:	49d5      	ldr	r1, [pc, #852]	; (8002c00 <make_sound.constprop.52+0x748>)
 80028aa:	4ad6      	ldr	r2, [pc, #856]	; (8002c04 <make_sound.constprop.52+0x74c>)
 80028ac:	eddf 6ad6 	vldr	s13, [pc, #856]	; 8002c08 <make_sound.constprop.52+0x750>
 80028b0:	eddf 5ad6 	vldr	s11, [pc, #856]	; 8002c0c <make_sound.constprop.52+0x754>
 80028b4:	eddf 4ad6 	vldr	s9, [pc, #856]	; 8002c10 <make_sound.constprop.52+0x758>
 80028b8:	ed9f 5ad6 	vldr	s10, [pc, #856]	; 8002c14 <make_sound.constprop.52+0x75c>
 80028bc:	2301      	movs	r3, #1
 80028be:	ee06 3a10 	vmov	s12, r3
 80028c2:	eeb8 7ac6 	vcvt.f32.s32	s14, s12
 80028c6:	ee68 7a87 	vmul.f32	s15, s17, s14
 80028ca:	eef4 7ae5 	vcmpe.f32	s15, s11
 80028ce:	eef1 fa10 	vmrs	APSR_nzcv, fpscr
 80028d2:	d529      	bpl.n	8002928 <make_sound.constprop.52+0x470>
 80028d4:	ecf2 7a01 	vldmia	r2!, {s15}
 80028d8:	eef4 7ac8 	vcmpe.f32	s15, s16
 80028dc:	eef1 fa10 	vmrs	APSR_nzcv, fpscr
 80028e0:	db08      	blt.n	80028f4 <make_sound.constprop.52+0x43c>
 80028e2:	ee77 7ac8 	vsub.f32	s15, s15, s16
 80028e6:	eef4 7ac8 	vcmpe.f32	s15, s16
 80028ea:	eef1 fa10 	vmrs	APSR_nzcv, fpscr
 80028ee:	daf8      	bge.n	80028e2 <make_sound.constprop.52+0x42a>
 80028f0:	ed42 7a01 	vstr	s15, [r2, #-4]
 80028f4:	ee27 6aa4 	vmul.f32	s12, s15, s9
 80028f8:	ee27 7a05 	vmul.f32	s14, s14, s10
 80028fc:	eebc 6ac6 	vcvt.u32.f32	s12, s12
 8002900:	f8df e31c 	ldr.w	lr, [pc, #796]	; 8002c20 <make_sound.constprop.52+0x768>
 8002904:	ee16 0a10 	vmov	r0, s12
 8002908:	eee8 7a87 	vfma.f32	s15, s17, s14
 800290c:	b280      	uxth	r0, r0
 800290e:	eb0e 0080 	add.w	r0, lr, r0, lsl #2
 8002912:	ed90 7a00 	vldr	s14, [r0]
 8002916:	ecb1 6a01 	vldmia	r1!, {s12}
 800291a:	ed42 7a01 	vstr	s15, [r2, #-4]
 800291e:	3301      	adds	r3, #1
 8002920:	2b0b      	cmp	r3, #11
 8002922:	eee6 6a07 	vfma.f32	s13, s12, s14
 8002926:	d1ca      	bne.n	80028be <make_sound.constprop.52+0x406>
 8002928:	4bbb      	ldr	r3, [pc, #748]	; (8002c18 <make_sound.constprop.52+0x760>)
 800292a:	edd7 7a00 	vldr	s15, [r7]
 800292e:	ed93 7a00 	vldr	s14, [r3]
 8002932:	ee66 6a87 	vmul.f32	s13, s13, s14
 8002936:	ee66 aaa7 	vmul.f32	s21, s13, s15
 800293a:	edc7 aa07 	vstr	s21, [r7, #28]
 800293e:	f000 bf49 	b.w	80037d4 <make_sound.constprop.52+0x131c>
 8002942:	f8df a2e8 	ldr.w	sl, [pc, #744]	; 8002c2c <make_sound.constprop.52+0x774>
 8002946:	eddf 7ab0 	vldr	s15, [pc, #704]	; 8002c08 <make_sound.constprop.52+0x750>
 800294a:	ed9a 7a06 	vldr	s14, [sl, #24]
 800294e:	edda 4a05 	vldr	s9, [sl, #20]
 8002952:	ed9f 5ab0 	vldr	s10, [pc, #704]	; 8002c14 <make_sound.constprop.52+0x75c>
 8002956:	f8df b2d8 	ldr.w	fp, [pc, #728]	; 8002c30 <make_sound.constprop.52+0x778>
 800295a:	4bb0      	ldr	r3, [pc, #704]	; (8002c1c <make_sound.constprop.52+0x764>)
 800295c:	ed9a 6a03 	vldr	s12, [sl, #12]
 8002960:	eddb 6a06 	vldr	s13, [fp, #24]
 8002964:	edd3 5a06 	vldr	s11, [r3, #24]
 8002968:	ee28 7a87 	vmul.f32	s14, s17, s14
 800296c:	ee64 7aa7 	vmul.f32	s15, s9, s15
 8002970:	ee68 6aa6 	vmul.f32	s13, s17, s13
 8002974:	eee7 7a05 	vfma.f32	s15, s14, s10
 8002978:	ee68 8aa5 	vmul.f32	s17, s17, s11
 800297c:	ee77 7a86 	vadd.f32	s15, s15, s12
 8002980:	ed8a 7a02 	vstr	s14, [sl, #8]
 8002984:	eef5 7ac0 	vcmpe.f32	s15, #0.0
 8002988:	eef1 fa10 	vmrs	APSR_nzcv, fpscr
 800298c:	edca 7a03 	vstr	s15, [sl, #12]
 8002990:	edcb 6a02 	vstr	s13, [fp, #8]
 8002994:	edc3 8a02 	vstr	s17, [r3, #8]
 8002998:	d508      	bpl.n	80029ac <make_sound.constprop.52+0x4f4>
 800299a:	ee77 7a88 	vadd.f32	s15, s15, s16
 800299e:	eef5 7ac0 	vcmpe.f32	s15, #0.0
 80029a2:	eef1 fa10 	vmrs	APSR_nzcv, fpscr
 80029a6:	d4f8      	bmi.n	800299a <make_sound.constprop.52+0x4e2>
 80029a8:	edca 7a03 	vstr	s15, [sl, #12]
 80029ac:	eef4 7ac8 	vcmpe.f32	s15, s16
 80029b0:	eef1 fa10 	vmrs	APSR_nzcv, fpscr
 80029b4:	db08      	blt.n	80029c8 <make_sound.constprop.52+0x510>
 80029b6:	ee77 7ac8 	vsub.f32	s15, s15, s16
 80029ba:	eef4 7ac8 	vcmpe.f32	s15, s16
 80029be:	eef1 fa10 	vmrs	APSR_nzcv, fpscr
 80029c2:	daf8      	bge.n	80029b6 <make_sound.constprop.52+0x4fe>
 80029c4:	edca 7a03 	vstr	s15, [sl, #12]
 80029c8:	ed9f 0a91 	vldr	s0, [pc, #580]	; 8002c10 <make_sound.constprop.52+0x758>
 80029cc:	edda 8a00 	vldr	s17, [sl]
 80029d0:	9301      	str	r3, [sp, #4]
 80029d2:	ee27 0a80 	vmul.f32	s0, s15, s0
 80029d6:	f007 fc7f 	bl	800a2d8 <lrintf>
 80029da:	4991      	ldr	r1, [pc, #580]	; (8002c20 <make_sound.constprop.52+0x768>)
 80029dc:	edd7 7a05 	vldr	s15, [r7, #20]
 80029e0:	edd7 5a02 	vldr	s11, [r7, #8]
 80029e4:	ed9f 6a8b 	vldr	s12, [pc, #556]	; 8002c14 <make_sound.constprop.52+0x75c>
 80029e8:	edd7 6a03 	vldr	s13, [r7, #12]
 80029ec:	9b01      	ldr	r3, [sp, #4]
 80029ee:	eb01 0080 	add.w	r0, r1, r0, lsl #2
 80029f2:	ed90 7a00 	vldr	s14, [r0]
 80029f6:	ee28 7a87 	vmul.f32	s14, s17, s14
 80029fa:	ee67 7a27 	vmul.f32	s15, s14, s15
 80029fe:	ed8a 7a07 	vstr	s14, [sl, #28]
 8002a02:	eee5 7a86 	vfma.f32	s15, s11, s12
 8002a06:	ee77 7aa6 	vadd.f32	s15, s15, s13
 8002a0a:	eef5 7ac0 	vcmpe.f32	s15, #0.0
 8002a0e:	eef1 fa10 	vmrs	APSR_nzcv, fpscr
 8002a12:	edc7 7a03 	vstr	s15, [r7, #12]
 8002a16:	d508      	bpl.n	8002a2a <make_sound.constprop.52+0x572>
 8002a18:	ee77 7a88 	vadd.f32	s15, s15, s16
 8002a1c:	eef5 7ac0 	vcmpe.f32	s15, #0.0
 8002a20:	eef1 fa10 	vmrs	APSR_nzcv, fpscr
 8002a24:	d4f8      	bmi.n	8002a18 <make_sound.constprop.52+0x560>
 8002a26:	edc7 7a03 	vstr	s15, [r7, #12]
 8002a2a:	eef4 7ac8 	vcmpe.f32	s15, s16
 8002a2e:	eef1 fa10 	vmrs	APSR_nzcv, fpscr
 8002a32:	db08      	blt.n	8002a46 <make_sound.constprop.52+0x58e>
 8002a34:	ee77 7ac8 	vsub.f32	s15, s15, s16
 8002a38:	eef4 7ac8 	vcmpe.f32	s15, s16
 8002a3c:	eef1 fa10 	vmrs	APSR_nzcv, fpscr
 8002a40:	daf8      	bge.n	8002a34 <make_sound.constprop.52+0x57c>
 8002a42:	edc7 7a03 	vstr	s15, [r7, #12]
 8002a46:	ed9f 0a72 	vldr	s0, [pc, #456]	; 8002c10 <make_sound.constprop.52+0x758>
 8002a4a:	edd7 8a00 	vldr	s17, [r7]
 8002a4e:	9301      	str	r3, [sp, #4]
 8002a50:	ee27 0a80 	vmul.f32	s0, s15, s0
 8002a54:	f007 fc40 	bl	800a2d8 <lrintf>
 8002a58:	9b01      	ldr	r3, [sp, #4]
 8002a5a:	eddf 7a6b 	vldr	s15, [pc, #428]	; 8002c08 <make_sound.constprop.52+0x750>
 8002a5e:	edd3 5a05 	vldr	s11, [r3, #20]
 8002a62:	ed9f 7a6c 	vldr	s14, [pc, #432]	; 8002c14 <make_sound.constprop.52+0x75c>
 8002a66:	ed93 6a02 	vldr	s12, [r3, #8]
 8002a6a:	4a6d      	ldr	r2, [pc, #436]	; (8002c20 <make_sound.constprop.52+0x768>)
 8002a6c:	edd3 6a03 	vldr	s13, [r3, #12]
 8002a70:	ee65 7aa7 	vmul.f32	s15, s11, s15
 8002a74:	eb02 0080 	add.w	r0, r2, r0, lsl #2
 8002a78:	eee6 7a07 	vfma.f32	s15, s12, s14
 8002a7c:	ed90 7a00 	vldr	s14, [r0]
 8002a80:	ee77 7aa6 	vadd.f32	s15, s15, s13
 8002a84:	ee68 8a87 	vmul.f32	s17, s17, s14
 8002a88:	eef5 7ac0 	vcmpe.f32	s15, #0.0
 8002a8c:	eef1 fa10 	vmrs	APSR_nzcv, fpscr
 8002a90:	edc3 7a03 	vstr	s15, [r3, #12]
 8002a94:	edc7 8a07 	vstr	s17, [r7, #28]
 8002a98:	d508      	bpl.n	8002aac <make_sound.constprop.52+0x5f4>
 8002a9a:	ee77 7a88 	vadd.f32	s15, s15, s16
 8002a9e:	eef5 7ac0 	vcmpe.f32	s15, #0.0
 8002aa2:	eef1 fa10 	vmrs	APSR_nzcv, fpscr
 8002aa6:	d4f8      	bmi.n	8002a9a <make_sound.constprop.52+0x5e2>
 8002aa8:	edc3 7a03 	vstr	s15, [r3, #12]
 8002aac:	eef4 7ac8 	vcmpe.f32	s15, s16
 8002ab0:	eef1 fa10 	vmrs	APSR_nzcv, fpscr
 8002ab4:	db08      	blt.n	8002ac8 <make_sound.constprop.52+0x610>
 8002ab6:	ee77 7ac8 	vsub.f32	s15, s15, s16
 8002aba:	eef4 7ac8 	vcmpe.f32	s15, s16
 8002abe:	eef1 fa10 	vmrs	APSR_nzcv, fpscr
 8002ac2:	daf8      	bge.n	8002ab6 <make_sound.constprop.52+0x5fe>
 8002ac4:	edc3 7a03 	vstr	s15, [r3, #12]
 8002ac8:	ed9f 0a51 	vldr	s0, [pc, #324]	; 8002c10 <make_sound.constprop.52+0x758>
 8002acc:	edd3 8a00 	vldr	s17, [r3]
 8002ad0:	9301      	str	r3, [sp, #4]
 8002ad2:	ee27 0a80 	vmul.f32	s0, s15, s0
 8002ad6:	f007 fbff 	bl	800a2d8 <lrintf>
 8002ada:	f8df e144 	ldr.w	lr, [pc, #324]	; 8002c20 <make_sound.constprop.52+0x768>
 8002ade:	eddb 7a05 	vldr	s15, [fp, #20]
 8002ae2:	eddb 5a02 	vldr	s11, [fp, #8]
 8002ae6:	ed9f 6a4b 	vldr	s12, [pc, #300]	; 8002c14 <make_sound.constprop.52+0x75c>
 8002aea:	eddb 6a03 	vldr	s13, [fp, #12]
 8002aee:	9b01      	ldr	r3, [sp, #4]
 8002af0:	eb0e 0080 	add.w	r0, lr, r0, lsl #2
 8002af4:	ed90 7a00 	vldr	s14, [r0]
 8002af8:	ee28 7a87 	vmul.f32	s14, s17, s14
 8002afc:	ee67 7a27 	vmul.f32	s15, s14, s15
 8002b00:	ed83 7a07 	vstr	s14, [r3, #28]
 8002b04:	eee5 7a86 	vfma.f32	s15, s11, s12
 8002b08:	ee77 7aa6 	vadd.f32	s15, s15, s13
 8002b0c:	eef5 7ac0 	vcmpe.f32	s15, #0.0
 8002b10:	eef1 fa10 	vmrs	APSR_nzcv, fpscr
 8002b14:	edcb 7a03 	vstr	s15, [fp, #12]
 8002b18:	d508      	bpl.n	8002b2c <make_sound.constprop.52+0x674>
 8002b1a:	ee77 7a88 	vadd.f32	s15, s15, s16
 8002b1e:	eef5 7ac0 	vcmpe.f32	s15, #0.0
 8002b22:	eef1 fa10 	vmrs	APSR_nzcv, fpscr
 8002b26:	d4f8      	bmi.n	8002b1a <make_sound.constprop.52+0x662>
 8002b28:	edcb 7a03 	vstr	s15, [fp, #12]
 8002b2c:	eef4 7ac8 	vcmpe.f32	s15, s16
 8002b30:	eef1 fa10 	vmrs	APSR_nzcv, fpscr
 8002b34:	db08      	blt.n	8002b48 <make_sound.constprop.52+0x690>
 8002b36:	ee77 7ac8 	vsub.f32	s15, s15, s16
 8002b3a:	eef4 7ac8 	vcmpe.f32	s15, s16
 8002b3e:	eef1 fa10 	vmrs	APSR_nzcv, fpscr
 8002b42:	daf8      	bge.n	8002b36 <make_sound.constprop.52+0x67e>
 8002b44:	edcb 7a03 	vstr	s15, [fp, #12]
 8002b48:	ed9f 0a31 	vldr	s0, [pc, #196]	; 8002c10 <make_sound.constprop.52+0x758>
 8002b4c:	eddb 8a00 	vldr	s17, [fp]
 8002b50:	ee27 0a80 	vmul.f32	s0, s15, s0
 8002b54:	f007 fbc0 	bl	800a2d8 <lrintf>
 8002b58:	4931      	ldr	r1, [pc, #196]	; (8002c20 <make_sound.constprop.52+0x768>)
 8002b5a:	edd7 aa07 	vldr	s21, [r7, #28]
 8002b5e:	eb01 0080 	add.w	r0, r1, r0, lsl #2
 8002b62:	edd0 7a00 	vldr	s15, [r0]
 8002b66:	ee68 7aa7 	vmul.f32	s15, s17, s15
 8002b6a:	eeb6 7a00 	vmov.f32	s14, #96	; 0x60
 8002b6e:	ee77 aaaa 	vadd.f32	s21, s15, s21
 8002b72:	edcb 7a07 	vstr	s15, [fp, #28]
 8002b76:	ee6a aa87 	vmul.f32	s21, s21, s14
 8002b7a:	f000 be2b 	b.w	80037d4 <make_sound.constprop.52+0x131c>
 8002b7e:	eddf 7a29 	vldr	s15, [pc, #164]	; 8002c24 <make_sound.constprop.52+0x76c>
 8002b82:	eef4 8ae7 	vcmpe.f32	s17, s15
 8002b86:	eef1 fa10 	vmrs	APSR_nzcv, fpscr
 8002b8a:	f101 8560 	bmi.w	800464e <make_sound.constprop.52+0x2196>
 8002b8e:	eddf 7a26 	vldr	s15, [pc, #152]	; 8002c28 <make_sound.constprop.52+0x770>
 8002b92:	eef4 8ae7 	vcmpe.f32	s17, s15
 8002b96:	edd7 7a03 	vldr	s15, [r7, #12]
 8002b9a:	eef1 fa10 	vmrs	APSR_nzcv, fpscr
 8002b9e:	eef5 7ac0 	vcmpe.f32	s15, #0.0
 8002ba2:	d551      	bpl.n	8002c48 <make_sound.constprop.52+0x790>
 8002ba4:	eef1 fa10 	vmrs	APSR_nzcv, fpscr
 8002ba8:	d50d      	bpl.n	8002bc6 <make_sound.constprop.52+0x70e>
 8002baa:	ee77 7a88 	vadd.f32	s15, s15, s16
 8002bae:	eef5 7ac0 	vcmpe.f32	s15, #0.0
 8002bb2:	eef1 fa10 	vmrs	APSR_nzcv, fpscr
 8002bb6:	d4f8      	bmi.n	8002baa <make_sound.constprop.52+0x6f2>
 8002bb8:	eef4 7ac8 	vcmpe.f32	s15, s16
 8002bbc:	eef1 fa10 	vmrs	APSR_nzcv, fpscr
 8002bc0:	db06      	blt.n	8002bd0 <make_sound.constprop.52+0x718>
 8002bc2:	ee77 7ac8 	vsub.f32	s15, s15, s16
 8002bc6:	eef4 7ac8 	vcmpe.f32	s15, s16
 8002bca:	eef1 fa10 	vmrs	APSR_nzcv, fpscr
 8002bce:	daf8      	bge.n	8002bc2 <make_sound.constprop.52+0x70a>
 8002bd0:	ed9f 7a18 	vldr	s14, [pc, #96]	; 8002c34 <make_sound.constprop.52+0x77c>
 8002bd4:	edd7 aa00 	vldr	s21, [r7]
 8002bd8:	eef4 7ac7 	vcmpe.f32	s15, s14
 8002bdc:	ee87 7a87 	vdiv.f32	s14, s15, s14
 8002be0:	eef1 fa10 	vmrs	APSR_nzcv, fpscr
 8002be4:	bf4f      	iteee	mi
 8002be6:	eef6 6a00 	vmovmi.f32	s13, #96	; 0x60
 8002bea:	eeb0 6a00 	vmovpl.f32	s12, #0
 8002bee:	eef6 6a00 	vmovpl.f32	s13, #96	; 0x60
 8002bf2:	ee37 7a46 	vsubpl.f32	s14, s14, s12
 8002bf6:	ee6a aaa6 	vmul.f32	s21, s21, s13
 8002bfa:	ee6a aa87 	vmul.f32	s21, s21, s14
 8002bfe:	e537      	b.n	8002670 <make_sound.constprop.52+0x1b8>
 8002c00:	10000004 	.word	0x10000004
 8002c04:	10002e10 	.word	0x10002e10
 8002c08:	00000000 	.word	0x00000000
 8002c0c:	46bb8000 	.word	0x46bb8000
 8002c10:	4322f983 	.word	0x4322f983
 8002c14:	3909421f 	.word	0x3909421f
 8002c18:	10000000 	.word	0x10000000
 8002c1c:	10002d6c 	.word	0x10002d6c
 8002c20:	0800c50c 	.word	0x0800c50c
 8002c24:	43480000 	.word	0x43480000
 8002c28:	44160000 	.word	0x44160000
 8002c2c:	10002d2c 	.word	0x10002d2c
 8002c30:	10002d4c 	.word	0x10002d4c
 8002c34:	40490fdb 	.word	0x40490fdb
 8002c38:	bf22f983 	.word	0xbf22f983
 8002c3c:	3f9837b5 	.word	0x3f9837b5
 8002c40:	ee77 7a88 	vadd.f32	s15, s15, s16
 8002c44:	eef5 7ac0 	vcmpe.f32	s15, #0.0
 8002c48:	eef1 fa10 	vmrs	APSR_nzcv, fpscr
 8002c4c:	d4f8      	bmi.n	8002c40 <make_sound.constprop.52+0x788>
 8002c4e:	eef4 7ac8 	vcmpe.f32	s15, s16
 8002c52:	eef1 fa10 	vmrs	APSR_nzcv, fpscr
 8002c56:	f6ff acf9 	blt.w	800264c <make_sound.constprop.52+0x194>
 8002c5a:	ee77 7ac8 	vsub.f32	s15, s15, s16
 8002c5e:	eef4 7ac8 	vcmpe.f32	s15, s16
 8002c62:	eef1 fa10 	vmrs	APSR_nzcv, fpscr
 8002c66:	daf8      	bge.n	8002c5a <make_sound.constprop.52+0x7a2>
 8002c68:	ed1f 7a0e 	vldr	s14, [pc, #-56]	; 8002c34 <make_sound.constprop.52+0x77c>
 8002c6c:	eef4 7ac7 	vcmpe.f32	s15, s14
 8002c70:	eef1 fa10 	vmrs	APSR_nzcv, fpscr
 8002c74:	f57f acf2 	bpl.w	800265c <make_sound.constprop.52+0x1a4>
 8002c78:	ed5f 6a11 	vldr	s13, [pc, #-68]	; 8002c38 <make_sound.constprop.52+0x780>
 8002c7c:	edd7 aa00 	vldr	s21, [r7]
 8002c80:	eeb7 7a00 	vmov.f32	s14, #112	; 0x70
 8002c84:	eea7 7aa6 	vfma.f32	s14, s15, s13
 8002c88:	ee67 aa2a 	vmul.f32	s21, s14, s21
 8002c8c:	e4f0      	b.n	8002670 <make_sound.constprop.52+0x1b8>
 8002c8e:	ed1f 6a15 	vldr	s12, [pc, #-84]	; 8002c3c <make_sound.constprop.52+0x784>
 8002c92:	edd7 7a03 	vldr	s15, [r7, #12]
 8002c96:	f8df a3cc 	ldr.w	sl, [pc, #972]	; 8003064 <make_sound.constprop.52+0xbac>
 8002c9a:	f8df b3cc 	ldr.w	fp, [pc, #972]	; 8003068 <make_sound.constprop.52+0xbb0>
 8002c9e:	eef7 6a08 	vmov.f32	s13, #120	; 0x78
 8002ca2:	ee28 6a86 	vmul.f32	s12, s17, s12
 8002ca6:	ee68 6aa6 	vmul.f32	s13, s17, s13
 8002caa:	eef5 7ac0 	vcmpe.f32	s15, #0.0
 8002cae:	eef1 fa10 	vmrs	APSR_nzcv, fpscr
 8002cb2:	ed8a 6a02 	vstr	s12, [sl, #8]
 8002cb6:	edcb 6a02 	vstr	s13, [fp, #8]
 8002cba:	d50d      	bpl.n	8002cd8 <make_sound.constprop.52+0x820>
 8002cbc:	ee77 7a88 	vadd.f32	s15, s15, s16
 8002cc0:	eef5 7ac0 	vcmpe.f32	s15, #0.0
 8002cc4:	eef1 fa10 	vmrs	APSR_nzcv, fpscr
 8002cc8:	d4f8      	bmi.n	8002cbc <make_sound.constprop.52+0x804>
 8002cca:	eef4 7ac8 	vcmpe.f32	s15, s16
 8002cce:	eef1 fa10 	vmrs	APSR_nzcv, fpscr
 8002cd2:	db06      	blt.n	8002ce2 <make_sound.constprop.52+0x82a>
 8002cd4:	ee77 7ac8 	vsub.f32	s15, s15, s16
 8002cd8:	eef4 7ac8 	vcmpe.f32	s15, s16
 8002cdc:	eef1 fa10 	vmrs	APSR_nzcv, fpscr
 8002ce0:	daf8      	bge.n	8002cd4 <make_sound.constprop.52+0x81c>
 8002ce2:	ed9f 7ad8 	vldr	s14, [pc, #864]	; 8003044 <make_sound.constprop.52+0xb8c>
 8002ce6:	eef4 8ac7 	vcmpe.f32	s17, s14
 8002cea:	eef1 fa10 	vmrs	APSR_nzcv, fpscr
 8002cee:	f101 820a 	bmi.w	8004106 <make_sound.constprop.52+0x1c4e>
 8002cf2:	ed9f 7ad5 	vldr	s14, [pc, #852]	; 8003048 <make_sound.constprop.52+0xb90>
 8002cf6:	eef4 7ac7 	vcmpe.f32	s15, s14
 8002cfa:	eef1 fa10 	vmrs	APSR_nzcv, fpscr
 8002cfe:	ed87 7a04 	vstr	s14, [r7, #16]
 8002d02:	f101 8216 	bmi.w	8004132 <make_sound.constprop.52+0x1c7a>
 8002d06:	ed9f 5ad1 	vldr	s10, [pc, #836]	; 800304c <make_sound.constprop.52+0xb94>
 8002d0a:	edd7 4a00 	vldr	s9, [r7]
 8002d0e:	eef0 5a00 	vmov.f32	s11, #0
 8002d12:	eea7 5aa5 	vfma.f32	s10, s15, s11
 8002d16:	ee78 5a47 	vsub.f32	s11, s16, s14
 8002d1a:	ee35 7a47 	vsub.f32	s14, s10, s14
 8002d1e:	ee27 7a24 	vmul.f32	s14, s14, s9
 8002d22:	eec7 5a25 	vdiv.f32	s11, s14, s11
 8002d26:	ed9f 5aca 	vldr	s10, [pc, #808]	; 8003050 <make_sound.constprop.52+0xb98>
 8002d2a:	ed9a 7a03 	vldr	s14, [sl, #12]
 8002d2e:	edc7 5a07 	vstr	s11, [r7, #28]
 8002d32:	eee8 7a85 	vfma.f32	s15, s17, s10
 8002d36:	eeb5 7ac0 	vcmpe.f32	s14, #0.0
 8002d3a:	eef1 fa10 	vmrs	APSR_nzcv, fpscr
 8002d3e:	edc7 7a03 	vstr	s15, [r7, #12]
 8002d42:	d508      	bpl.n	8002d56 <make_sound.constprop.52+0x89e>
 8002d44:	ee37 7a08 	vadd.f32	s14, s14, s16
 8002d48:	eeb5 7ac0 	vcmpe.f32	s14, #0.0
 8002d4c:	eef1 fa10 	vmrs	APSR_nzcv, fpscr
 8002d50:	d4f8      	bmi.n	8002d44 <make_sound.constprop.52+0x88c>
 8002d52:	ed8a 7a03 	vstr	s14, [sl, #12]
 8002d56:	eeb4 7ac8 	vcmpe.f32	s14, s16
 8002d5a:	eef1 fa10 	vmrs	APSR_nzcv, fpscr
 8002d5e:	db08      	blt.n	8002d72 <make_sound.constprop.52+0x8ba>
 8002d60:	ee37 7a48 	vsub.f32	s14, s14, s16
 8002d64:	eeb4 7ac8 	vcmpe.f32	s14, s16
 8002d68:	eef1 fa10 	vmrs	APSR_nzcv, fpscr
 8002d6c:	daf8      	bge.n	8002d60 <make_sound.constprop.52+0x8a8>
 8002d6e:	ed8a 7a03 	vstr	s14, [sl, #12]
 8002d72:	eddf 7ab4 	vldr	s15, [pc, #720]	; 8003044 <make_sound.constprop.52+0xb8c>
 8002d76:	eeb4 6ae7 	vcmpe.f32	s12, s15
 8002d7a:	eef1 fa10 	vmrs	APSR_nzcv, fpscr
 8002d7e:	f141 844e 	bpl.w	800461e <make_sound.constprop.52+0x2166>
 8002d82:	eddf 7ab4 	vldr	s15, [pc, #720]	; 8003054 <make_sound.constprop.52+0xb9c>
 8002d86:	ed9f 5ab4 	vldr	s10, [pc, #720]	; 8003058 <make_sound.constprop.52+0xba0>
 8002d8a:	ee66 7a27 	vmul.f32	s15, s12, s15
 8002d8e:	eef4 7ac5 	vcmpe.f32	s15, s10
 8002d92:	eef1 fa10 	vmrs	APSR_nzcv, fpscr
 8002d96:	f201 8444 	bhi.w	8004622 <make_sound.constprop.52+0x216a>
 8002d9a:	eef0 7a45 	vmov.f32	s15, s10
 8002d9e:	eeb4 7ae7 	vcmpe.f32	s14, s15
 8002da2:	eef1 fa10 	vmrs	APSR_nzcv, fpscr
 8002da6:	ed8a 5a04 	vstr	s10, [sl, #16]
 8002daa:	f101 8442 	bmi.w	8004632 <make_sound.constprop.52+0x217a>
 8002dae:	eddf 4aa7 	vldr	s9, [pc, #668]	; 800304c <make_sound.constprop.52+0xb94>
 8002db2:	ed9a 4a00 	vldr	s8, [sl]
 8002db6:	eeb0 5a00 	vmov.f32	s10, #0
 8002dba:	eee7 4a05 	vfma.f32	s9, s14, s10
 8002dbe:	ee38 5a67 	vsub.f32	s10, s16, s15
 8002dc2:	ee74 7ae7 	vsub.f32	s15, s9, s15
 8002dc6:	ee67 7a84 	vmul.f32	s15, s15, s8
 8002dca:	ee87 5a85 	vdiv.f32	s10, s15, s10
 8002dce:	eddf 4aa0 	vldr	s9, [pc, #640]	; 8003050 <make_sound.constprop.52+0xb98>
 8002dd2:	eddb 7a03 	vldr	s15, [fp, #12]
 8002dd6:	ed8a 5a07 	vstr	s10, [sl, #28]
 8002dda:	eea6 7a24 	vfma.f32	s14, s12, s9
 8002dde:	eef5 7ac0 	vcmpe.f32	s15, #0.0
 8002de2:	eef1 fa10 	vmrs	APSR_nzcv, fpscr
 8002de6:	ee75 5a85 	vadd.f32	s11, s11, s10
 8002dea:	ed8a 7a03 	vstr	s14, [sl, #12]
 8002dee:	d508      	bpl.n	8002e02 <make_sound.constprop.52+0x94a>
 8002df0:	ee77 7a88 	vadd.f32	s15, s15, s16
 8002df4:	eef5 7ac0 	vcmpe.f32	s15, #0.0
 8002df8:	eef1 fa10 	vmrs	APSR_nzcv, fpscr
 8002dfc:	d4f8      	bmi.n	8002df0 <make_sound.constprop.52+0x938>
 8002dfe:	edcb 7a03 	vstr	s15, [fp, #12]
 8002e02:	eef4 7ac8 	vcmpe.f32	s15, s16
 8002e06:	eef1 fa10 	vmrs	APSR_nzcv, fpscr
 8002e0a:	db08      	blt.n	8002e1e <make_sound.constprop.52+0x966>
 8002e0c:	ee77 7ac8 	vsub.f32	s15, s15, s16
 8002e10:	eef4 7ac8 	vcmpe.f32	s15, s16
 8002e14:	eef1 fa10 	vmrs	APSR_nzcv, fpscr
 8002e18:	daf8      	bge.n	8002e0c <make_sound.constprop.52+0x954>
 8002e1a:	edcb 7a03 	vstr	s15, [fp, #12]
 8002e1e:	ed9f 7a89 	vldr	s14, [pc, #548]	; 8003044 <make_sound.constprop.52+0xb8c>
 8002e22:	eef4 6ac7 	vcmpe.f32	s13, s14
 8002e26:	eef1 fa10 	vmrs	APSR_nzcv, fpscr
 8002e2a:	f141 8333 	bpl.w	8004494 <make_sound.constprop.52+0x1fdc>
 8002e2e:	ed9f 7a89 	vldr	s14, [pc, #548]	; 8003054 <make_sound.constprop.52+0xb9c>
 8002e32:	ed9f 6a89 	vldr	s12, [pc, #548]	; 8003058 <make_sound.constprop.52+0xba0>
 8002e36:	ee26 7a87 	vmul.f32	s14, s13, s14
 8002e3a:	eeb4 7ac6 	vcmpe.f32	s14, s12
 8002e3e:	eef1 fa10 	vmrs	APSR_nzcv, fpscr
 8002e42:	f201 8329 	bhi.w	8004498 <make_sound.constprop.52+0x1fe0>
 8002e46:	eeb0 7a46 	vmov.f32	s14, s12
 8002e4a:	eef4 7ac7 	vcmpe.f32	s15, s14
 8002e4e:	eef1 fa10 	vmrs	APSR_nzcv, fpscr
 8002e52:	ed8b 6a04 	vstr	s12, [fp, #16]
 8002e56:	f101 8327 	bmi.w	80044a8 <make_sound.constprop.52+0x1ff0>
 8002e5a:	ed9f 6a7c 	vldr	s12, [pc, #496]	; 800304c <make_sound.constprop.52+0xb94>
 8002e5e:	eddb 4a00 	vldr	s9, [fp]
 8002e62:	eeb0 5a00 	vmov.f32	s10, #0
 8002e66:	eea7 6a85 	vfma.f32	s12, s15, s10
 8002e6a:	ee38 5a47 	vsub.f32	s10, s16, s14
 8002e6e:	ee36 7a47 	vsub.f32	s14, s12, s14
 8002e72:	ee27 7a24 	vmul.f32	s14, s14, s9
 8002e76:	ee87 7a05 	vdiv.f32	s14, s14, s10
 8002e7a:	ed9f 5a75 	vldr	s10, [pc, #468]	; 8003050 <make_sound.constprop.52+0xb98>
 8002e7e:	ed9f 6a77 	vldr	s12, [pc, #476]	; 800305c <make_sound.constprop.52+0xba4>
 8002e82:	ed8b 7a07 	vstr	s14, [fp, #28]
 8002e86:	eee6 7a85 	vfma.f32	s15, s13, s10
 8002e8a:	ee35 7a87 	vadd.f32	s14, s11, s14
 8002e8e:	edcb 7a03 	vstr	s15, [fp, #12]
 8002e92:	ee67 aa06 	vmul.f32	s21, s14, s12
 8002e96:	f000 bc9d 	b.w	80037d4 <make_sound.constprop.52+0x131c>
 8002e9a:	ed9f 6a71 	vldr	s12, [pc, #452]	; 8003060 <make_sound.constprop.52+0xba8>
 8002e9e:	edd7 7a03 	vldr	s15, [r7, #12]
 8002ea2:	f8df a1c0 	ldr.w	sl, [pc, #448]	; 8003064 <make_sound.constprop.52+0xbac>
 8002ea6:	f8df b1c0 	ldr.w	fp, [pc, #448]	; 8003068 <make_sound.constprop.52+0xbb0>
 8002eaa:	eef7 6a08 	vmov.f32	s13, #120	; 0x78
 8002eae:	ee28 6a86 	vmul.f32	s12, s17, s12
 8002eb2:	ee68 6aa6 	vmul.f32	s13, s17, s13
 8002eb6:	eef5 7ac0 	vcmpe.f32	s15, #0.0
 8002eba:	eef1 fa10 	vmrs	APSR_nzcv, fpscr
 8002ebe:	ed8a 6a02 	vstr	s12, [sl, #8]
 8002ec2:	edcb 6a02 	vstr	s13, [fp, #8]
 8002ec6:	d50d      	bpl.n	8002ee4 <make_sound.constprop.52+0xa2c>
 8002ec8:	ee77 7a88 	vadd.f32	s15, s15, s16
 8002ecc:	eef5 7ac0 	vcmpe.f32	s15, #0.0
 8002ed0:	eef1 fa10 	vmrs	APSR_nzcv, fpscr
 8002ed4:	d4f8      	bmi.n	8002ec8 <make_sound.constprop.52+0xa10>
 8002ed6:	eef4 7ac8 	vcmpe.f32	s15, s16
 8002eda:	eef1 fa10 	vmrs	APSR_nzcv, fpscr
 8002ede:	db06      	blt.n	8002eee <make_sound.constprop.52+0xa36>
 8002ee0:	ee77 7ac8 	vsub.f32	s15, s15, s16
 8002ee4:	eef4 7ac8 	vcmpe.f32	s15, s16
 8002ee8:	eef1 fa10 	vmrs	APSR_nzcv, fpscr
 8002eec:	daf8      	bge.n	8002ee0 <make_sound.constprop.52+0xa28>
 8002eee:	ed9f 7a55 	vldr	s14, [pc, #340]	; 8003044 <make_sound.constprop.52+0xb8c>
 8002ef2:	eef4 8ac7 	vcmpe.f32	s17, s14
 8002ef6:	eef1 fa10 	vmrs	APSR_nzcv, fpscr
 8002efa:	f141 8128 	bpl.w	800414e <make_sound.constprop.52+0x1c96>
 8002efe:	ed9f 7a55 	vldr	s14, [pc, #340]	; 8003054 <make_sound.constprop.52+0xb9c>
 8002f02:	eddf 5a55 	vldr	s11, [pc, #340]	; 8003058 <make_sound.constprop.52+0xba0>
 8002f06:	ee28 7a87 	vmul.f32	s14, s17, s14
 8002f0a:	eeb4 7ae5 	vcmpe.f32	s14, s11
 8002f0e:	eef1 fa10 	vmrs	APSR_nzcv, fpscr
 8002f12:	f201 811e 	bhi.w	8004152 <make_sound.constprop.52+0x1c9a>
 8002f16:	eeb0 7a65 	vmov.f32	s14, s11
 8002f1a:	eef4 7ac7 	vcmpe.f32	s15, s14
 8002f1e:	eef1 fa10 	vmrs	APSR_nzcv, fpscr
 8002f22:	edc7 5a04 	vstr	s11, [r7, #16]
 8002f26:	f101 811c 	bmi.w	8004162 <make_sound.constprop.52+0x1caa>
 8002f2a:	ed9f 5a48 	vldr	s10, [pc, #288]	; 800304c <make_sound.constprop.52+0xb94>
 8002f2e:	edd7 4a00 	vldr	s9, [r7]
 8002f32:	eef0 5a00 	vmov.f32	s11, #0
 8002f36:	eea7 5aa5 	vfma.f32	s10, s15, s11
 8002f3a:	ee78 5a47 	vsub.f32	s11, s16, s14
 8002f3e:	ee35 7a47 	vsub.f32	s14, s10, s14
 8002f42:	ee27 7a24 	vmul.f32	s14, s14, s9
 8002f46:	eec7 5a25 	vdiv.f32	s11, s14, s11
 8002f4a:	ed9f 5a41 	vldr	s10, [pc, #260]	; 8003050 <make_sound.constprop.52+0xb98>
 8002f4e:	ed9a 7a03 	vldr	s14, [sl, #12]
 8002f52:	edc7 5a07 	vstr	s11, [r7, #28]
 8002f56:	eee8 7a85 	vfma.f32	s15, s17, s10
 8002f5a:	eeb5 7ac0 	vcmpe.f32	s14, #0.0
 8002f5e:	eef1 fa10 	vmrs	APSR_nzcv, fpscr
 8002f62:	edc7 7a03 	vstr	s15, [r7, #12]
 8002f66:	d508      	bpl.n	8002f7a <make_sound.constprop.52+0xac2>
 8002f68:	ee37 7a08 	vadd.f32	s14, s14, s16
 8002f6c:	eeb5 7ac0 	vcmpe.f32	s14, #0.0
 8002f70:	eef1 fa10 	vmrs	APSR_nzcv, fpscr
 8002f74:	d4f8      	bmi.n	8002f68 <make_sound.constprop.52+0xab0>
 8002f76:	ed8a 7a03 	vstr	s14, [sl, #12]
 8002f7a:	eeb4 7ac8 	vcmpe.f32	s14, s16
 8002f7e:	eef1 fa10 	vmrs	APSR_nzcv, fpscr
 8002f82:	db08      	blt.n	8002f96 <make_sound.constprop.52+0xade>
 8002f84:	ee37 7a48 	vsub.f32	s14, s14, s16
 8002f88:	eeb4 7ac8 	vcmpe.f32	s14, s16
 8002f8c:	eef1 fa10 	vmrs	APSR_nzcv, fpscr
 8002f90:	daf8      	bge.n	8002f84 <make_sound.constprop.52+0xacc>
 8002f92:	ed8a 7a03 	vstr	s14, [sl, #12]
 8002f96:	eddf 7a2b 	vldr	s15, [pc, #172]	; 8003044 <make_sound.constprop.52+0xb8c>
 8002f9a:	eeb4 6ae7 	vcmpe.f32	s12, s15
 8002f9e:	eef1 fa10 	vmrs	APSR_nzcv, fpscr
 8002fa2:	f141 82ac 	bpl.w	80044fe <make_sound.constprop.52+0x2046>
 8002fa6:	eddf 7a2b 	vldr	s15, [pc, #172]	; 8003054 <make_sound.constprop.52+0xb9c>
 8002faa:	ed9f 5a2b 	vldr	s10, [pc, #172]	; 8003058 <make_sound.constprop.52+0xba0>
 8002fae:	ee66 7a27 	vmul.f32	s15, s12, s15
 8002fb2:	eef4 7ac5 	vcmpe.f32	s15, s10
 8002fb6:	eef1 fa10 	vmrs	APSR_nzcv, fpscr
 8002fba:	f201 82a2 	bhi.w	8004502 <make_sound.constprop.52+0x204a>
 8002fbe:	eef0 7a45 	vmov.f32	s15, s10
 8002fc2:	eeb4 7ae7 	vcmpe.f32	s14, s15
 8002fc6:	eef1 fa10 	vmrs	APSR_nzcv, fpscr
 8002fca:	ed8a 5a04 	vstr	s10, [sl, #16]
 8002fce:	f101 82a0 	bmi.w	8004512 <make_sound.constprop.52+0x205a>
 8002fd2:	eddf 4a1e 	vldr	s9, [pc, #120]	; 800304c <make_sound.constprop.52+0xb94>
 8002fd6:	ed9a 4a00 	vldr	s8, [sl]
 8002fda:	eeb0 5a00 	vmov.f32	s10, #0
 8002fde:	eee7 4a05 	vfma.f32	s9, s14, s10
 8002fe2:	ee38 5a67 	vsub.f32	s10, s16, s15
 8002fe6:	ee74 7ae7 	vsub.f32	s15, s9, s15
 8002fea:	ee67 7a84 	vmul.f32	s15, s15, s8
 8002fee:	ee87 5a85 	vdiv.f32	s10, s15, s10
 8002ff2:	eddf 4a17 	vldr	s9, [pc, #92]	; 8003050 <make_sound.constprop.52+0xb98>
 8002ff6:	eddb 7a03 	vldr	s15, [fp, #12]
 8002ffa:	ed8a 5a07 	vstr	s10, [sl, #28]
 8002ffe:	eea6 7a24 	vfma.f32	s14, s12, s9
 8003002:	eef5 7ac0 	vcmpe.f32	s15, #0.0
 8003006:	eef1 fa10 	vmrs	APSR_nzcv, fpscr
 800300a:	ee75 5a85 	vadd.f32	s11, s11, s10
 800300e:	ed8a 7a03 	vstr	s14, [sl, #12]
 8003012:	d508      	bpl.n	8003026 <make_sound.constprop.52+0xb6e>
 8003014:	ee77 7a88 	vadd.f32	s15, s15, s16
 8003018:	eef5 7ac0 	vcmpe.f32	s15, #0.0
 800301c:	eef1 fa10 	vmrs	APSR_nzcv, fpscr
 8003020:	d4f8      	bmi.n	8003014 <make_sound.constprop.52+0xb5c>
 8003022:	edcb 7a03 	vstr	s15, [fp, #12]
 8003026:	eef4 7ac8 	vcmpe.f32	s15, s16
 800302a:	eef1 fa10 	vmrs	APSR_nzcv, fpscr
 800302e:	f6ff aef6 	blt.w	8002e1e <make_sound.constprop.52+0x966>
 8003032:	ee77 7ac8 	vsub.f32	s15, s15, s16
 8003036:	eef4 7ac8 	vcmpe.f32	s15, s16
 800303a:	eef1 fa10 	vmrs	APSR_nzcv, fpscr
 800303e:	daf8      	bge.n	8003032 <make_sound.constprop.52+0xb7a>
 8003040:	e6eb      	b.n	8002e1a <make_sound.constprop.52+0x962>
 8003042:	bf00      	nop
 8003044:	45fa0000 	.word	0x45fa0000
 8003048:	40490fdb 	.word	0x40490fdb
 800304c:	c0c90fdb 	.word	0xc0c90fdb
 8003050:	3909421f 	.word	0x3909421f
 8003054:	39cde32e 	.word	0x39cde32e
 8003058:	38d1b717 	.word	0x38d1b717
 800305c:	3ea8f5c3 	.word	0x3ea8f5c3
 8003060:	3fa147ae 	.word	0x3fa147ae
 8003064:	10002d2c 	.word	0x10002d2c
 8003068:	10002d4c 	.word	0x10002d4c
 800306c:	f8df a304 	ldr.w	sl, [pc, #772]	; 8003374 <make_sound.constprop.52+0xebc>
 8003070:	edda 5a06 	vldr	s11, [sl, #24]
 8003074:	ed9a 6a09 	vldr	s12, [sl, #36]	; 0x24
 8003078:	edda 7a07 	vldr	s15, [sl, #28]
 800307c:	ed9a 7a02 	vldr	s14, [sl, #8]
 8003080:	f8da 2014 	ldr.w	r2, [sl, #20]
 8003084:	eef8 6a65 	vcvt.f32.u32	s13, s11
 8003088:	ee15 0a90 	vmov	r0, s11
 800308c:	eee6 7a26 	vfma.f32	s15, s12, s13
 8003090:	1c43      	adds	r3, r0, #1
 8003092:	4293      	cmp	r3, r2
 8003094:	f8ca 3018 	str.w	r3, [sl, #24]
 8003098:	ee67 7a87 	vmul.f32	s15, s15, s14
 800309c:	edca 7a0a 	vstr	s15, [sl, #40]	; 0x28
 80030a0:	f081 8113 	bcs.w	80042ca <make_sound.constprop.52+0x1e12>
 80030a4:	f8df a2d0 	ldr.w	sl, [pc, #720]	; 8003378 <make_sound.constprop.52+0xec0>
 80030a8:	4ba9      	ldr	r3, [pc, #676]	; (8003350 <make_sound.constprop.52+0xe98>)
 80030aa:	ed9a 6a06 	vldr	s12, [sl, #24]
 80030ae:	edda 4a09 	vldr	s9, [sl, #36]	; 0x24
 80030b2:	ed9a 7a07 	vldr	s14, [sl, #28]
 80030b6:	edd3 5a00 	vldr	s11, [r3]
 80030ba:	f8da 0018 	ldr.w	r0, [sl, #24]
 80030be:	edda 6a02 	vldr	s13, [sl, #8]
 80030c2:	f8da 1014 	ldr.w	r1, [sl, #20]
 80030c6:	eeb8 5a46 	vcvt.f32.u32	s10, s12
 80030ca:	eeb7 6a00 	vmov.f32	s12, #112	; 0x70
 80030ce:	ee37 6a86 	vadd.f32	s12, s15, s12
 80030d2:	eea4 7a85 	vfma.f32	s14, s9, s10
 80030d6:	1c42      	adds	r2, r0, #1
 80030d8:	428a      	cmp	r2, r1
 80030da:	eef3 7a09 	vmov.f32	s15, #57	; 0x39
 80030de:	eee6 7a25 	vfma.f32	s15, s12, s11
 80030e2:	f8ca 2018 	str.w	r2, [sl, #24]
 80030e6:	ee27 7a26 	vmul.f32	s14, s14, s13
 80030ea:	edc7 7a02 	vstr	s15, [r7, #8]
 80030ee:	ed8a 7a0a 	vstr	s14, [sl, #40]	; 0x28
 80030f2:	f081 805c 	bcs.w	80041ae <make_sound.constprop.52+0x1cf6>
 80030f6:	f8df b284 	ldr.w	fp, [pc, #644]	; 800337c <make_sound.constprop.52+0xec4>
 80030fa:	f8df a284 	ldr.w	sl, [pc, #644]	; 8003380 <make_sound.constprop.52+0xec8>
 80030fe:	eddb 6a06 	vldr	s13, [fp, #24]
 8003102:	eddb 4a09 	vldr	s9, [fp, #36]	; 0x24
 8003106:	eddb 7a07 	vldr	s15, [fp, #28]
 800310a:	f8db 0018 	ldr.w	r0, [fp, #24]
 800310e:	ed9b 6a02 	vldr	s12, [fp, #8]
 8003112:	f8db 2014 	ldr.w	r2, [fp, #20]
 8003116:	eeb8 5a66 	vcvt.f32.u32	s10, s13
 800311a:	eef7 6a00 	vmov.f32	s13, #112	; 0x70
 800311e:	ee37 7a26 	vadd.f32	s14, s14, s13
 8003122:	eee4 7a85 	vfma.f32	s15, s9, s10
 8003126:	1c41      	adds	r1, r0, #1
 8003128:	4291      	cmp	r1, r2
 800312a:	eef3 6a09 	vmov.f32	s13, #57	; 0x39
 800312e:	eee7 6a25 	vfma.f32	s13, s14, s11
 8003132:	f8cb 1018 	str.w	r1, [fp, #24]
 8003136:	ee67 7a86 	vmul.f32	s15, s15, s12
 800313a:	edca 6a02 	vstr	s13, [sl, #8]
 800313e:	edcb 7a0a 	vstr	s15, [fp, #40]	; 0x28
 8003142:	f081 815c 	bcs.w	80043fe <make_sound.constprop.52+0x1f46>
 8003146:	eeb7 7a00 	vmov.f32	s14, #112	; 0x70
 800314a:	ee77 7a87 	vadd.f32	s15, s15, s14
 800314e:	eeb3 6a09 	vmov.f32	s12, #57	; 0x39
 8003152:	eea7 6aa5 	vfma.f32	s12, s15, s11
 8003156:	f8df b22c 	ldr.w	fp, [pc, #556]	; 8003384 <make_sound.constprop.52+0xecc>
 800315a:	edd7 7a03 	vldr	s15, [r7, #12]
 800315e:	ed8b 6a02 	vstr	s12, [fp, #8]
 8003162:	eef5 7ac0 	vcmpe.f32	s15, #0.0
 8003166:	eef1 fa10 	vmrs	APSR_nzcv, fpscr
 800316a:	d50d      	bpl.n	8003188 <make_sound.constprop.52+0xcd0>
 800316c:	ee77 7a88 	vadd.f32	s15, s15, s16
 8003170:	eef5 7ac0 	vcmpe.f32	s15, #0.0
 8003174:	eef1 fa10 	vmrs	APSR_nzcv, fpscr
 8003178:	d4f8      	bmi.n	800316c <make_sound.constprop.52+0xcb4>
 800317a:	eef4 7ac8 	vcmpe.f32	s15, s16
 800317e:	eef1 fa10 	vmrs	APSR_nzcv, fpscr
 8003182:	db06      	blt.n	8003192 <make_sound.constprop.52+0xcda>
 8003184:	ee77 7ac8 	vsub.f32	s15, s15, s16
 8003188:	eef4 7ac8 	vcmpe.f32	s15, s16
 800318c:	eef1 fa10 	vmrs	APSR_nzcv, fpscr
 8003190:	daf8      	bge.n	8003184 <make_sound.constprop.52+0xccc>
 8003192:	edd7 5a02 	vldr	s11, [r7, #8]
 8003196:	ed9f 7a6f 	vldr	s14, [pc, #444]	; 8003354 <make_sound.constprop.52+0xe9c>
 800319a:	4b6f      	ldr	r3, [pc, #444]	; (8003358 <make_sound.constprop.52+0xea0>)
 800319c:	eef4 5ac7 	vcmpe.f32	s11, s14
 80031a0:	eef1 fa10 	vmrs	APSR_nzcv, fpscr
 80031a4:	f100 8767 	bmi.w	8004076 <make_sound.constprop.52+0x1bbe>
 80031a8:	ed9f 7a6c 	vldr	s14, [pc, #432]	; 800335c <make_sound.constprop.52+0xea4>
 80031ac:	eef4 7ac7 	vcmpe.f32	s15, s14
 80031b0:	eef1 fa10 	vmrs	APSR_nzcv, fpscr
 80031b4:	ed83 7a04 	vstr	s14, [r3, #16]
 80031b8:	f100 8773 	bmi.w	80040a2 <make_sound.constprop.52+0x1bea>
 80031bc:	eddf 4a68 	vldr	s9, [pc, #416]	; 8003360 <make_sound.constprop.52+0xea8>
 80031c0:	ed97 4a00 	vldr	s8, [r7]
 80031c4:	eeb0 5a00 	vmov.f32	s10, #0
 80031c8:	eee7 4a85 	vfma.f32	s9, s15, s10
 80031cc:	ee38 5a47 	vsub.f32	s10, s16, s14
 80031d0:	ee34 7ac7 	vsub.f32	s14, s9, s14
 80031d4:	ee27 7a04 	vmul.f32	s14, s14, s8
 80031d8:	ee87 5a05 	vdiv.f32	s10, s14, s10
 80031dc:	eddf 4a61 	vldr	s9, [pc, #388]	; 8003364 <make_sound.constprop.52+0xeac>
 80031e0:	ed9a 7a03 	vldr	s14, [sl, #12]
 80031e4:	ed87 5a07 	vstr	s10, [r7, #28]
 80031e8:	eee5 7aa4 	vfma.f32	s15, s11, s9
 80031ec:	eeb5 7ac0 	vcmpe.f32	s14, #0.0
 80031f0:	eef1 fa10 	vmrs	APSR_nzcv, fpscr
 80031f4:	edc7 7a03 	vstr	s15, [r7, #12]
 80031f8:	d508      	bpl.n	800320c <make_sound.constprop.52+0xd54>
 80031fa:	ee37 7a08 	vadd.f32	s14, s14, s16
 80031fe:	eeb5 7ac0 	vcmpe.f32	s14, #0.0
 8003202:	eef1 fa10 	vmrs	APSR_nzcv, fpscr
 8003206:	d4f8      	bmi.n	80031fa <make_sound.constprop.52+0xd42>
 8003208:	ed8a 7a03 	vstr	s14, [sl, #12]
 800320c:	eeb4 7ac8 	vcmpe.f32	s14, s16
 8003210:	eef1 fa10 	vmrs	APSR_nzcv, fpscr
 8003214:	db08      	blt.n	8003228 <make_sound.constprop.52+0xd70>
 8003216:	ee37 7a48 	vsub.f32	s14, s14, s16
 800321a:	eeb4 7ac8 	vcmpe.f32	s14, s16
 800321e:	eef1 fa10 	vmrs	APSR_nzcv, fpscr
 8003222:	daf8      	bge.n	8003216 <make_sound.constprop.52+0xd5e>
 8003224:	ed8a 7a03 	vstr	s14, [sl, #12]
 8003228:	eddf 7a4a 	vldr	s15, [pc, #296]	; 8003354 <make_sound.constprop.52+0xe9c>
 800322c:	eef4 6ae7 	vcmpe.f32	s13, s15
 8003230:	eef1 fa10 	vmrs	APSR_nzcv, fpscr
 8003234:	f141 81ab 	bpl.w	800458e <make_sound.constprop.52+0x20d6>
 8003238:	eddf 7a4b 	vldr	s15, [pc, #300]	; 8003368 <make_sound.constprop.52+0xeb0>
 800323c:	eddf 5a4b 	vldr	s11, [pc, #300]	; 800336c <make_sound.constprop.52+0xeb4>
 8003240:	ee66 7aa7 	vmul.f32	s15, s13, s15
 8003244:	eef4 7ae5 	vcmpe.f32	s15, s11
 8003248:	eef1 fa10 	vmrs	APSR_nzcv, fpscr
 800324c:	f201 81a1 	bhi.w	8004592 <make_sound.constprop.52+0x20da>
 8003250:	eef0 7a65 	vmov.f32	s15, s11
 8003254:	eeb4 7ae7 	vcmpe.f32	s14, s15
 8003258:	eef1 fa10 	vmrs	APSR_nzcv, fpscr
 800325c:	edca 5a04 	vstr	s11, [sl, #16]
 8003260:	f101 819f 	bmi.w	80045a2 <make_sound.constprop.52+0x20ea>
 8003264:	eddf 4a3e 	vldr	s9, [pc, #248]	; 8003360 <make_sound.constprop.52+0xea8>
 8003268:	ed9a 4a00 	vldr	s8, [sl]
 800326c:	eef0 5a00 	vmov.f32	s11, #0
 8003270:	eee7 4a25 	vfma.f32	s9, s14, s11
 8003274:	ee78 5a67 	vsub.f32	s11, s16, s15
 8003278:	ee74 7ae7 	vsub.f32	s15, s9, s15
 800327c:	ee67 7a84 	vmul.f32	s15, s15, s8
 8003280:	eec7 5aa5 	vdiv.f32	s11, s15, s11
 8003284:	eddf 4a37 	vldr	s9, [pc, #220]	; 8003364 <make_sound.constprop.52+0xeac>
 8003288:	eddb 7a03 	vldr	s15, [fp, #12]
 800328c:	edca 5a07 	vstr	s11, [sl, #28]
 8003290:	eea6 7aa4 	vfma.f32	s14, s13, s9
 8003294:	eef5 7ac0 	vcmpe.f32	s15, #0.0
 8003298:	eef1 fa10 	vmrs	APSR_nzcv, fpscr
 800329c:	ee75 5a25 	vadd.f32	s11, s10, s11
 80032a0:	ed8a 7a03 	vstr	s14, [sl, #12]
 80032a4:	d508      	bpl.n	80032b8 <make_sound.constprop.52+0xe00>
 80032a6:	ee77 7a88 	vadd.f32	s15, s15, s16
 80032aa:	eef5 7ac0 	vcmpe.f32	s15, #0.0
 80032ae:	eef1 fa10 	vmrs	APSR_nzcv, fpscr
 80032b2:	d4f8      	bmi.n	80032a6 <make_sound.constprop.52+0xdee>
 80032b4:	edcb 7a03 	vstr	s15, [fp, #12]
 80032b8:	eef4 7ac8 	vcmpe.f32	s15, s16
 80032bc:	eef1 fa10 	vmrs	APSR_nzcv, fpscr
 80032c0:	db08      	blt.n	80032d4 <make_sound.constprop.52+0xe1c>
 80032c2:	ee77 7ac8 	vsub.f32	s15, s15, s16
 80032c6:	eef4 7ac8 	vcmpe.f32	s15, s16
 80032ca:	eef1 fa10 	vmrs	APSR_nzcv, fpscr
 80032ce:	daf8      	bge.n	80032c2 <make_sound.constprop.52+0xe0a>
 80032d0:	edcb 7a03 	vstr	s15, [fp, #12]
 80032d4:	ed9f 7a1f 	vldr	s14, [pc, #124]	; 8003354 <make_sound.constprop.52+0xe9c>
 80032d8:	eeb4 6ac7 	vcmpe.f32	s12, s14
 80032dc:	eef1 fa10 	vmrs	APSR_nzcv, fpscr
 80032e0:	f141 8125 	bpl.w	800452e <make_sound.constprop.52+0x2076>
 80032e4:	ed9f 7a20 	vldr	s14, [pc, #128]	; 8003368 <make_sound.constprop.52+0xeb0>
 80032e8:	eddf 6a20 	vldr	s13, [pc, #128]	; 800336c <make_sound.constprop.52+0xeb4>
 80032ec:	ee26 7a07 	vmul.f32	s14, s12, s14
 80032f0:	eeb4 7ae6 	vcmpe.f32	s14, s13
 80032f4:	eef1 fa10 	vmrs	APSR_nzcv, fpscr
 80032f8:	f201 811b 	bhi.w	8004532 <make_sound.constprop.52+0x207a>
 80032fc:	eeb0 7a66 	vmov.f32	s14, s13
 8003300:	eef4 7ac7 	vcmpe.f32	s15, s14
 8003304:	eef1 fa10 	vmrs	APSR_nzcv, fpscr
 8003308:	edcb 6a04 	vstr	s13, [fp, #16]
 800330c:	f101 8119 	bmi.w	8004542 <make_sound.constprop.52+0x208a>
 8003310:	eddf 6a13 	vldr	s13, [pc, #76]	; 8003360 <make_sound.constprop.52+0xea8>
 8003314:	eddb 4a00 	vldr	s9, [fp]
 8003318:	eeb0 5a00 	vmov.f32	s10, #0
 800331c:	eee7 6a85 	vfma.f32	s13, s15, s10
 8003320:	ee38 5a47 	vsub.f32	s10, s16, s14
 8003324:	ee36 7ac7 	vsub.f32	s14, s13, s14
 8003328:	ee27 7a24 	vmul.f32	s14, s14, s9
 800332c:	ee87 7a05 	vdiv.f32	s14, s14, s10
 8003330:	ed9f 5a0c 	vldr	s10, [pc, #48]	; 8003364 <make_sound.constprop.52+0xeac>
 8003334:	eddf 6a0e 	vldr	s13, [pc, #56]	; 8003370 <make_sound.constprop.52+0xeb8>
 8003338:	ed8b 7a07 	vstr	s14, [fp, #28]
 800333c:	eee6 7a05 	vfma.f32	s15, s12, s10
 8003340:	ee35 7a87 	vadd.f32	s14, s11, s14
 8003344:	edcb 7a03 	vstr	s15, [fp, #12]
 8003348:	ee67 aa26 	vmul.f32	s21, s14, s13
 800334c:	e242      	b.n	80037d4 <make_sound.constprop.52+0x131c>
 800334e:	bf00      	nop
 8003350:	20000098 	.word	0x20000098
 8003354:	45fa0000 	.word	0x45fa0000
 8003358:	10002d0c 	.word	0x10002d0c
 800335c:	40490fdb 	.word	0x40490fdb
 8003360:	c0c90fdb 	.word	0xc0c90fdb
 8003364:	3909421f 	.word	0x3909421f
 8003368:	39cde32e 	.word	0x39cde32e
 800336c:	38d1b717 	.word	0x38d1b717
 8003370:	3ea8f5c3 	.word	0x3ea8f5c3
 8003374:	10000038 	.word	0x10000038
 8003378:	10000064 	.word	0x10000064
 800337c:	10000090 	.word	0x10000090
 8003380:	10002d2c 	.word	0x10002d2c
 8003384:	10002d4c 	.word	0x10002d4c
 8003388:	ed97 7a03 	vldr	s14, [r7, #12]
 800338c:	f8df a408 	ldr.w	sl, [pc, #1032]	; 8003798 <make_sound.constprop.52+0x12e0>
 8003390:	eef7 6a08 	vmov.f32	s13, #120	; 0x78
 8003394:	ee68 6aa6 	vmul.f32	s13, s17, s13
 8003398:	eeb5 7ac0 	vcmpe.f32	s14, #0.0
 800339c:	eef1 fa10 	vmrs	APSR_nzcv, fpscr
 80033a0:	edca 6a02 	vstr	s13, [sl, #8]
 80033a4:	d50d      	bpl.n	80033c2 <make_sound.constprop.52+0xf0a>
 80033a6:	ee37 7a08 	vadd.f32	s14, s14, s16
 80033aa:	eeb5 7ac0 	vcmpe.f32	s14, #0.0
 80033ae:	eef1 fa10 	vmrs	APSR_nzcv, fpscr
 80033b2:	d4f8      	bmi.n	80033a6 <make_sound.constprop.52+0xeee>
 80033b4:	eeb4 7ac8 	vcmpe.f32	s14, s16
 80033b8:	eef1 fa10 	vmrs	APSR_nzcv, fpscr
 80033bc:	db06      	blt.n	80033cc <make_sound.constprop.52+0xf14>
 80033be:	ee37 7a48 	vsub.f32	s14, s14, s16
 80033c2:	eeb4 7ac8 	vcmpe.f32	s14, s16
 80033c6:	eef1 fa10 	vmrs	APSR_nzcv, fpscr
 80033ca:	daf8      	bge.n	80033be <make_sound.constprop.52+0xf06>
 80033cc:	eddf 7aea 	vldr	s15, [pc, #936]	; 8003778 <make_sound.constprop.52+0x12c0>
 80033d0:	eef4 8ae7 	vcmpe.f32	s17, s15
 80033d4:	eef1 fa10 	vmrs	APSR_nzcv, fpscr
 80033d8:	f140 86d1 	bpl.w	800417e <make_sound.constprop.52+0x1cc6>
 80033dc:	eddf 7ae7 	vldr	s15, [pc, #924]	; 800377c <make_sound.constprop.52+0x12c4>
 80033e0:	ed9f 6ae7 	vldr	s12, [pc, #924]	; 8003780 <make_sound.constprop.52+0x12c8>
 80033e4:	ee68 7aa7 	vmul.f32	s15, s17, s15
 80033e8:	eef4 7ac6 	vcmpe.f32	s15, s12
 80033ec:	eef1 fa10 	vmrs	APSR_nzcv, fpscr
 80033f0:	f200 86c7 	bhi.w	8004182 <make_sound.constprop.52+0x1cca>
 80033f4:	eef0 7a46 	vmov.f32	s15, s12
 80033f8:	eeb4 7ae7 	vcmpe.f32	s14, s15
 80033fc:	eef1 fa10 	vmrs	APSR_nzcv, fpscr
 8003400:	ed87 6a04 	vstr	s12, [r7, #16]
 8003404:	f100 86c5 	bmi.w	8004192 <make_sound.constprop.52+0x1cda>
 8003408:	eddf 5ade 	vldr	s11, [pc, #888]	; 8003784 <make_sound.constprop.52+0x12cc>
 800340c:	ed97 5a00 	vldr	s10, [r7]
 8003410:	eeb0 6a00 	vmov.f32	s12, #0
 8003414:	eee7 5a06 	vfma.f32	s11, s14, s12
 8003418:	ee38 6a67 	vsub.f32	s12, s16, s15
 800341c:	ee75 7ae7 	vsub.f32	s15, s11, s15
 8003420:	ee67 7a85 	vmul.f32	s15, s15, s10
 8003424:	ee87 6a86 	vdiv.f32	s12, s15, s12
 8003428:	eddf 5ad7 	vldr	s11, [pc, #860]	; 8003788 <make_sound.constprop.52+0x12d0>
 800342c:	edda 7a03 	vldr	s15, [sl, #12]
 8003430:	ed87 6a07 	vstr	s12, [r7, #28]
 8003434:	eea8 7aa5 	vfma.f32	s14, s17, s11
 8003438:	eef5 7ac0 	vcmpe.f32	s15, #0.0
 800343c:	eef1 fa10 	vmrs	APSR_nzcv, fpscr
 8003440:	ed87 7a03 	vstr	s14, [r7, #12]
 8003444:	d508      	bpl.n	8003458 <make_sound.constprop.52+0xfa0>
 8003446:	ee77 7a88 	vadd.f32	s15, s15, s16
 800344a:	eef5 7ac0 	vcmpe.f32	s15, #0.0
 800344e:	eef1 fa10 	vmrs	APSR_nzcv, fpscr
 8003452:	d4f8      	bmi.n	8003446 <make_sound.constprop.52+0xf8e>
 8003454:	edca 7a03 	vstr	s15, [sl, #12]
 8003458:	eef4 7ac8 	vcmpe.f32	s15, s16
 800345c:	eef1 fa10 	vmrs	APSR_nzcv, fpscr
 8003460:	db08      	blt.n	8003474 <make_sound.constprop.52+0xfbc>
 8003462:	ee77 7ac8 	vsub.f32	s15, s15, s16
 8003466:	eef4 7ac8 	vcmpe.f32	s15, s16
 800346a:	eef1 fa10 	vmrs	APSR_nzcv, fpscr
 800346e:	daf8      	bge.n	8003462 <make_sound.constprop.52+0xfaa>
 8003470:	edca 7a03 	vstr	s15, [sl, #12]
 8003474:	ed9f 7ac0 	vldr	s14, [pc, #768]	; 8003778 <make_sound.constprop.52+0x12c0>
 8003478:	eef4 6ac7 	vcmpe.f32	s13, s14
 800347c:	eef1 fa10 	vmrs	APSR_nzcv, fpscr
 8003480:	f141 80b5 	bpl.w	80045ee <make_sound.constprop.52+0x2136>
 8003484:	ed9f 7abd 	vldr	s14, [pc, #756]	; 800377c <make_sound.constprop.52+0x12c4>
 8003488:	eddf 5abd 	vldr	s11, [pc, #756]	; 8003780 <make_sound.constprop.52+0x12c8>
 800348c:	ee26 7a87 	vmul.f32	s14, s13, s14
 8003490:	eeb4 7ae5 	vcmpe.f32	s14, s11
 8003494:	eef1 fa10 	vmrs	APSR_nzcv, fpscr
 8003498:	f201 80ab 	bhi.w	80045f2 <make_sound.constprop.52+0x213a>
 800349c:	eeb0 7a65 	vmov.f32	s14, s11
 80034a0:	eef4 7ac7 	vcmpe.f32	s15, s14
 80034a4:	eef1 fa10 	vmrs	APSR_nzcv, fpscr
 80034a8:	edca 5a04 	vstr	s11, [sl, #16]
 80034ac:	f101 80a9 	bmi.w	8004602 <make_sound.constprop.52+0x214a>
 80034b0:	eddf 5ab4 	vldr	s11, [pc, #720]	; 8003784 <make_sound.constprop.52+0x12cc>
 80034b4:	edda 4a00 	vldr	s9, [sl]
 80034b8:	eeb0 5a00 	vmov.f32	s10, #0
 80034bc:	eee7 5a85 	vfma.f32	s11, s15, s10
 80034c0:	ee38 5a47 	vsub.f32	s10, s16, s14
 80034c4:	ee35 7ac7 	vsub.f32	s14, s11, s14
 80034c8:	ee27 7a24 	vmul.f32	s14, s14, s9
 80034cc:	ee87 7a05 	vdiv.f32	s14, s14, s10
 80034d0:	eddf 5aad 	vldr	s11, [pc, #692]	; 8003788 <make_sound.constprop.52+0x12d0>
 80034d4:	ed8a 7a07 	vstr	s14, [sl, #28]
 80034d8:	eee6 7aa5 	vfma.f32	s15, s13, s11
 80034dc:	ee36 7a07 	vadd.f32	s14, s12, s14
 80034e0:	eef6 6a00 	vmov.f32	s13, #96	; 0x60
 80034e4:	ee67 aa26 	vmul.f32	s21, s14, s13
 80034e8:	edca 7a03 	vstr	s15, [sl, #12]
 80034ec:	e172      	b.n	80037d4 <make_sound.constprop.52+0x131c>
 80034ee:	f8df a2ac 	ldr.w	sl, [pc, #684]	; 800379c <make_sound.constprop.52+0x12e4>
 80034f2:	ed9a 5a06 	vldr	s10, [sl, #24]
 80034f6:	ed9a 6a09 	vldr	s12, [sl, #36]	; 0x24
 80034fa:	edda 7a07 	vldr	s15, [sl, #28]
 80034fe:	ed9a 7a02 	vldr	s14, [sl, #8]
 8003502:	f8da 2014 	ldr.w	r2, [sl, #20]
 8003506:	eef8 6a45 	vcvt.f32.u32	s13, s10
 800350a:	ee15 0a10 	vmov	r0, s10
 800350e:	eee6 7a26 	vfma.f32	s15, s12, s13
 8003512:	1c43      	adds	r3, r0, #1
 8003514:	4293      	cmp	r3, r2
 8003516:	f8ca 3018 	str.w	r3, [sl, #24]
 800351a:	ee27 7a87 	vmul.f32	s14, s15, s14
 800351e:	ed8a 7a0a 	vstr	s14, [sl, #40]	; 0x28
 8003522:	f080 868d 	bcs.w	8004240 <make_sound.constprop.52+0x1d88>
 8003526:	f8df b278 	ldr.w	fp, [pc, #632]	; 80037a0 <make_sound.constprop.52+0x12e8>
 800352a:	f8df a26c 	ldr.w	sl, [pc, #620]	; 8003798 <make_sound.constprop.52+0x12e0>
 800352e:	ed9b 6a06 	vldr	s12, [fp, #24]
 8003532:	ed9b 5a09 	vldr	s10, [fp, #36]	; 0x24
 8003536:	eddb 7a07 	vldr	s15, [fp, #28]
 800353a:	eddb 6a02 	vldr	s13, [fp, #8]
 800353e:	f8db 0018 	ldr.w	r0, [fp, #24]
 8003542:	f8db 2014 	ldr.w	r2, [fp, #20]
 8003546:	eef8 5a46 	vcvt.f32.u32	s11, s12
 800354a:	eeb7 6a00 	vmov.f32	s12, #112	; 0x70
 800354e:	eee5 7a25 	vfma.f32	s15, s10, s11
 8003552:	1c43      	adds	r3, r0, #1
 8003554:	4293      	cmp	r3, r2
 8003556:	ee37 7a06 	vadd.f32	s14, s14, s12
 800355a:	ee67 7aa6 	vmul.f32	s15, s15, s13
 800355e:	ee68 6a87 	vmul.f32	s13, s17, s14
 8003562:	f8cb 3018 	str.w	r3, [fp, #24]
 8003566:	edcb 7a0a 	vstr	s15, [fp, #40]	; 0x28
 800356a:	edca 6a02 	vstr	s13, [sl, #8]
 800356e:	f080 86ff 	bcs.w	8004370 <make_sound.constprop.52+0x1eb8>
 8003572:	eeb7 7a00 	vmov.f32	s14, #112	; 0x70
 8003576:	ee37 7a87 	vadd.f32	s14, s15, s14
 800357a:	edd7 7a03 	vldr	s15, [r7, #12]
 800357e:	f8df b224 	ldr.w	fp, [pc, #548]	; 80037a4 <make_sound.constprop.52+0x12ec>
 8003582:	ee68 8a87 	vmul.f32	s17, s17, s14
 8003586:	eef5 7ac0 	vcmpe.f32	s15, #0.0
 800358a:	eef1 fa10 	vmrs	APSR_nzcv, fpscr
 800358e:	edcb 8a02 	vstr	s17, [fp, #8]
 8003592:	d50d      	bpl.n	80035b0 <make_sound.constprop.52+0x10f8>
 8003594:	ee77 7a88 	vadd.f32	s15, s15, s16
 8003598:	eef5 7ac0 	vcmpe.f32	s15, #0.0
 800359c:	eef1 fa10 	vmrs	APSR_nzcv, fpscr
 80035a0:	d4f8      	bmi.n	8003594 <make_sound.constprop.52+0x10dc>
 80035a2:	eef4 7ac8 	vcmpe.f32	s15, s16
 80035a6:	eef1 fa10 	vmrs	APSR_nzcv, fpscr
 80035aa:	db06      	blt.n	80035ba <make_sound.constprop.52+0x1102>
 80035ac:	ee77 7ac8 	vsub.f32	s15, s15, s16
 80035b0:	eef4 7ac8 	vcmpe.f32	s15, s16
 80035b4:	eef1 fa10 	vmrs	APSR_nzcv, fpscr
 80035b8:	daf8      	bge.n	80035ac <make_sound.constprop.52+0x10f4>
 80035ba:	ed97 6a02 	vldr	s12, [r7, #8]
 80035be:	ed9f 7a6e 	vldr	s14, [pc, #440]	; 8003778 <make_sound.constprop.52+0x12c0>
 80035c2:	4b72      	ldr	r3, [pc, #456]	; (800378c <make_sound.constprop.52+0x12d4>)
 80035c4:	eeb4 6ac7 	vcmpe.f32	s12, s14
 80035c8:	eef1 fa10 	vmrs	APSR_nzcv, fpscr
 80035cc:	f100 852f 	bmi.w	800402e <make_sound.constprop.52+0x1b76>
 80035d0:	ed9f 7a6f 	vldr	s14, [pc, #444]	; 8003790 <make_sound.constprop.52+0x12d8>
 80035d4:	eef4 7ac7 	vcmpe.f32	s15, s14
 80035d8:	eef1 fa10 	vmrs	APSR_nzcv, fpscr
 80035dc:	ed83 7a04 	vstr	s14, [r3, #16]
 80035e0:	f100 853b 	bmi.w	800405a <make_sound.constprop.52+0x1ba2>
 80035e4:	ed9f 5a67 	vldr	s10, [pc, #412]	; 8003784 <make_sound.constprop.52+0x12cc>
 80035e8:	edd7 4a00 	vldr	s9, [r7]
 80035ec:	eef0 5a00 	vmov.f32	s11, #0
 80035f0:	eea7 5aa5 	vfma.f32	s10, s15, s11
 80035f4:	ee78 5a47 	vsub.f32	s11, s16, s14
 80035f8:	ee35 7a47 	vsub.f32	s14, s10, s14
 80035fc:	ee27 7a24 	vmul.f32	s14, s14, s9
 8003600:	eec7 5a25 	vdiv.f32	s11, s14, s11
 8003604:	ed9f 5a60 	vldr	s10, [pc, #384]	; 8003788 <make_sound.constprop.52+0x12d0>
 8003608:	ed9a 7a03 	vldr	s14, [sl, #12]
 800360c:	edc7 5a07 	vstr	s11, [r7, #28]
 8003610:	eee6 7a05 	vfma.f32	s15, s12, s10
 8003614:	eeb5 7ac0 	vcmpe.f32	s14, #0.0
 8003618:	eef1 fa10 	vmrs	APSR_nzcv, fpscr
 800361c:	edc7 7a03 	vstr	s15, [r7, #12]
 8003620:	d508      	bpl.n	8003634 <make_sound.constprop.52+0x117c>
 8003622:	ee37 7a08 	vadd.f32	s14, s14, s16
 8003626:	eeb5 7ac0 	vcmpe.f32	s14, #0.0
 800362a:	eef1 fa10 	vmrs	APSR_nzcv, fpscr
 800362e:	d4f8      	bmi.n	8003622 <make_sound.constprop.52+0x116a>
 8003630:	ed8a 7a03 	vstr	s14, [sl, #12]
 8003634:	eeb4 7ac8 	vcmpe.f32	s14, s16
 8003638:	eef1 fa10 	vmrs	APSR_nzcv, fpscr
 800363c:	db08      	blt.n	8003650 <make_sound.constprop.52+0x1198>
 800363e:	ee37 7a48 	vsub.f32	s14, s14, s16
 8003642:	eeb4 7ac8 	vcmpe.f32	s14, s16
 8003646:	eef1 fa10 	vmrs	APSR_nzcv, fpscr
 800364a:	daf8      	bge.n	800363e <make_sound.constprop.52+0x1186>
 800364c:	ed8a 7a03 	vstr	s14, [sl, #12]
 8003650:	eddf 7a49 	vldr	s15, [pc, #292]	; 8003778 <make_sound.constprop.52+0x12c0>
 8003654:	eef4 6ae7 	vcmpe.f32	s13, s15
 8003658:	eef1 fa10 	vmrs	APSR_nzcv, fpscr
 800365c:	f140 87af 	bpl.w	80045be <make_sound.constprop.52+0x2106>
 8003660:	eddf 7a46 	vldr	s15, [pc, #280]	; 800377c <make_sound.constprop.52+0x12c4>
 8003664:	ed9f 6a46 	vldr	s12, [pc, #280]	; 8003780 <make_sound.constprop.52+0x12c8>
 8003668:	ee66 7aa7 	vmul.f32	s15, s13, s15
 800366c:	eef4 7ac6 	vcmpe.f32	s15, s12
 8003670:	eef1 fa10 	vmrs	APSR_nzcv, fpscr
 8003674:	f200 87a5 	bhi.w	80045c2 <make_sound.constprop.52+0x210a>
 8003678:	eef0 7a46 	vmov.f32	s15, s12
 800367c:	eeb4 7ae7 	vcmpe.f32	s14, s15
 8003680:	eef1 fa10 	vmrs	APSR_nzcv, fpscr
 8003684:	ed8a 6a04 	vstr	s12, [sl, #16]
 8003688:	f100 87a3 	bmi.w	80045d2 <make_sound.constprop.52+0x211a>
 800368c:	ed9f 5a3d 	vldr	s10, [pc, #244]	; 8003784 <make_sound.constprop.52+0x12cc>
 8003690:	edda 4a00 	vldr	s9, [sl]
 8003694:	eeb0 6a00 	vmov.f32	s12, #0
 8003698:	eea7 5a06 	vfma.f32	s10, s14, s12
 800369c:	ee38 6a67 	vsub.f32	s12, s16, s15
 80036a0:	ee75 7a67 	vsub.f32	s15, s10, s15
 80036a4:	ee67 7aa4 	vmul.f32	s15, s15, s9
 80036a8:	ee87 6a86 	vdiv.f32	s12, s15, s12
 80036ac:	ed9f 5a36 	vldr	s10, [pc, #216]	; 8003788 <make_sound.constprop.52+0x12d0>
 80036b0:	eddb 7a03 	vldr	s15, [fp, #12]
 80036b4:	ed8a 6a07 	vstr	s12, [sl, #28]
 80036b8:	eea6 7a85 	vfma.f32	s14, s13, s10
 80036bc:	eef5 7ac0 	vcmpe.f32	s15, #0.0
 80036c0:	eef1 fa10 	vmrs	APSR_nzcv, fpscr
 80036c4:	ee35 6a86 	vadd.f32	s12, s11, s12
 80036c8:	ed8a 7a03 	vstr	s14, [sl, #12]
 80036cc:	d508      	bpl.n	80036e0 <make_sound.constprop.52+0x1228>
 80036ce:	ee77 7a88 	vadd.f32	s15, s15, s16
 80036d2:	eef5 7ac0 	vcmpe.f32	s15, #0.0
 80036d6:	eef1 fa10 	vmrs	APSR_nzcv, fpscr
 80036da:	d4f8      	bmi.n	80036ce <make_sound.constprop.52+0x1216>
 80036dc:	edcb 7a03 	vstr	s15, [fp, #12]
 80036e0:	eef4 7ac8 	vcmpe.f32	s15, s16
 80036e4:	eef1 fa10 	vmrs	APSR_nzcv, fpscr
 80036e8:	db08      	blt.n	80036fc <make_sound.constprop.52+0x1244>
 80036ea:	ee77 7ac8 	vsub.f32	s15, s15, s16
 80036ee:	eef4 7ac8 	vcmpe.f32	s15, s16
 80036f2:	eef1 fa10 	vmrs	APSR_nzcv, fpscr
 80036f6:	daf8      	bge.n	80036ea <make_sound.constprop.52+0x1232>
 80036f8:	edcb 7a03 	vstr	s15, [fp, #12]
 80036fc:	ed9f 7a1e 	vldr	s14, [pc, #120]	; 8003778 <make_sound.constprop.52+0x12c0>
 8003700:	eef4 8ac7 	vcmpe.f32	s17, s14
 8003704:	eef1 fa10 	vmrs	APSR_nzcv, fpscr
 8003708:	f140 8729 	bpl.w	800455e <make_sound.constprop.52+0x20a6>
 800370c:	ed9f 7a1b 	vldr	s14, [pc, #108]	; 800377c <make_sound.constprop.52+0x12c4>
 8003710:	eddf 6a1b 	vldr	s13, [pc, #108]	; 8003780 <make_sound.constprop.52+0x12c8>
 8003714:	ee28 7a87 	vmul.f32	s14, s17, s14
 8003718:	eeb4 7ae6 	vcmpe.f32	s14, s13
 800371c:	eef1 fa10 	vmrs	APSR_nzcv, fpscr
 8003720:	f200 871f 	bhi.w	8004562 <make_sound.constprop.52+0x20aa>
 8003724:	eeb0 7a66 	vmov.f32	s14, s13
 8003728:	eef4 7ac7 	vcmpe.f32	s15, s14
 800372c:	eef1 fa10 	vmrs	APSR_nzcv, fpscr
 8003730:	edcb 6a04 	vstr	s13, [fp, #16]
 8003734:	f100 871d 	bmi.w	8004572 <make_sound.constprop.52+0x20ba>
 8003738:	eddf 6a12 	vldr	s13, [pc, #72]	; 8003784 <make_sound.constprop.52+0x12cc>
 800373c:	ed9b 5a00 	vldr	s10, [fp]
 8003740:	eef0 5a00 	vmov.f32	s11, #0
 8003744:	eee7 6aa5 	vfma.f32	s13, s15, s11
 8003748:	ee78 5a47 	vsub.f32	s11, s16, s14
 800374c:	ee36 7ac7 	vsub.f32	s14, s13, s14
 8003750:	ee27 7a05 	vmul.f32	s14, s14, s10
 8003754:	ee87 7a25 	vdiv.f32	s14, s14, s11
 8003758:	eddf 5a0b 	vldr	s11, [pc, #44]	; 8003788 <make_sound.constprop.52+0x12d0>
 800375c:	eddf 6a0d 	vldr	s13, [pc, #52]	; 8003794 <make_sound.constprop.52+0x12dc>
 8003760:	ed8b 7a07 	vstr	s14, [fp, #28]
 8003764:	eee8 7aa5 	vfma.f32	s15, s17, s11
 8003768:	ee36 7a07 	vadd.f32	s14, s12, s14
 800376c:	edcb 7a03 	vstr	s15, [fp, #12]
 8003770:	ee67 aa26 	vmul.f32	s21, s14, s13
 8003774:	e02e      	b.n	80037d4 <make_sound.constprop.52+0x131c>
 8003776:	bf00      	nop
 8003778:	45fa0000 	.word	0x45fa0000
 800377c:	39cde32e 	.word	0x39cde32e
 8003780:	38d1b717 	.word	0x38d1b717
 8003784:	c0c90fdb 	.word	0xc0c90fdb
 8003788:	3909421f 	.word	0x3909421f
 800378c:	10002d0c 	.word	0x10002d0c
 8003790:	40490fdb 	.word	0x40490fdb
 8003794:	3ea8f5c3 	.word	0x3ea8f5c3
 8003798:	10002d2c 	.word	0x10002d2c
 800379c:	10000038 	.word	0x10000038
 80037a0:	10000064 	.word	0x10000064
 80037a4:	10002d4c 	.word	0x10002d4c
 80037a8:	bf4ccccd 	.word	0xbf4ccccd
 80037ac:	3fcccccd 	.word	0x3fcccccd
 80037b0:	edd7 aa00 	vldr	s21, [r7]
 80037b4:	f008 fe30 	bl	800c418 <rand>
 80037b8:	ee07 0a10 	vmov	s14, r0
 80037bc:	eef8 6ac7 	vcvt.f32.s32	s13, s14
 80037c0:	ed5f 7a07 	vldr	s15, [pc, #-28]	; 80037a8 <make_sound.constprop.52+0x12f0>
 80037c4:	ed1f 7a07 	vldr	s14, [pc, #-28]	; 80037ac <make_sound.constprop.52+0x12f4>
 80037c8:	ee66 6a89 	vmul.f32	s13, s13, s18
 80037cc:	eee6 7a87 	vfma.f32	s15, s13, s14
 80037d0:	ee6a aaa7 	vmul.f32	s21, s21, s15
 80037d4:	6a71      	ldr	r1, [r6, #36]	; 0x24
 80037d6:	6a32      	ldr	r2, [r6, #32]
 80037d8:	4bd0      	ldr	r3, [pc, #832]	; (8003b1c <make_sound.constprop.52+0x1664>)
 80037da:	3101      	adds	r1, #1
 80037dc:	2a01      	cmp	r2, #1
 80037de:	6271      	str	r1, [r6, #36]	; 0x24
 80037e0:	edd3 8a04 	vldr	s17, [r3, #16]
 80037e4:	f000 82b9 	beq.w	8003d5a <make_sound.constprop.52+0x18a2>
 80037e8:	2a03      	cmp	r2, #3
 80037ea:	f000 82a7 	beq.w	8003d3c <make_sound.constprop.52+0x1884>
 80037ee:	2a00      	cmp	r2, #0
 80037f0:	f000 82ca 	beq.w	8003d88 <make_sound.constprop.52+0x18d0>
 80037f4:	edd4 7a03 	vldr	s15, [r4, #12]
 80037f8:	edc6 8a05 	vstr	s17, [r6, #20]
 80037fc:	eef5 7ac0 	vcmpe.f32	s15, #0.0
 8003800:	eef1 fa10 	vmrs	APSR_nzcv, fpscr
 8003804:	d508      	bpl.n	8003818 <make_sound.constprop.52+0x1360>
 8003806:	ee77 7a88 	vadd.f32	s15, s15, s16
 800380a:	eef5 7ac0 	vcmpe.f32	s15, #0.0
 800380e:	eef1 fa10 	vmrs	APSR_nzcv, fpscr
 8003812:	d4f8      	bmi.n	8003806 <make_sound.constprop.52+0x134e>
 8003814:	edc4 7a03 	vstr	s15, [r4, #12]
 8003818:	eef4 7ac8 	vcmpe.f32	s15, s16
 800381c:	eef1 fa10 	vmrs	APSR_nzcv, fpscr
 8003820:	db08      	blt.n	8003834 <make_sound.constprop.52+0x137c>
 8003822:	ee77 7ac8 	vsub.f32	s15, s15, s16
 8003826:	eef4 7ac8 	vcmpe.f32	s15, s16
 800382a:	eef1 fa10 	vmrs	APSR_nzcv, fpscr
 800382e:	daf8      	bge.n	8003822 <make_sound.constprop.52+0x136a>
 8003830:	edc4 7a03 	vstr	s15, [r4, #12]
 8003834:	ed9f 0aba 	vldr	s0, [pc, #744]	; 8003b20 <make_sound.constprop.52+0x1668>
 8003838:	ed94 ba00 	vldr	s22, [r4]
 800383c:	ee27 0a80 	vmul.f32	s0, s15, s0
 8003840:	f006 fd4a 	bl	800a2d8 <lrintf>
 8003844:	4bb7      	ldr	r3, [pc, #732]	; (8003b24 <make_sound.constprop.52+0x166c>)
 8003846:	edd4 7a03 	vldr	s15, [r4, #12]
 800384a:	edd4 5a02 	vldr	s11, [r4, #8]
 800384e:	ed9f 6ab6 	vldr	s12, [pc, #728]	; 8003b28 <make_sound.constprop.52+0x1670>
 8003852:	f8df e31c 	ldr.w	lr, [pc, #796]	; 8003b70 <make_sound.constprop.52+0x16b8>
 8003856:	6a71      	ldr	r1, [r6, #36]	; 0x24
 8003858:	ed9e aa00 	vldr	s20, [lr]
 800385c:	f8d8 2030 	ldr.w	r2, [r8, #48]	; 0x30
 8003860:	eb03 0080 	add.w	r0, r3, r0, lsl #2
 8003864:	ed90 7a00 	vldr	s14, [r0]
 8003868:	48b0      	ldr	r0, [pc, #704]	; (8003b2c <make_sound.constprop.52+0x1674>)
 800386a:	4bac      	ldr	r3, [pc, #688]	; (8003b1c <make_sound.constprop.52+0x1664>)
 800386c:	ee2b 7a07 	vmul.f32	s14, s22, s14
 8003870:	eef7 6a00 	vmov.f32	s13, #112	; 0x70
 8003874:	ee77 6a26 	vadd.f32	s13, s14, s13
 8003878:	eee5 7a86 	vfma.f32	s15, s11, s12
 800387c:	4291      	cmp	r1, r2
 800387e:	ee66 8aa8 	vmul.f32	s17, s13, s17
 8003882:	ed84 7a07 	vstr	s14, [r4, #28]
 8003886:	ee28 aa8a 	vmul.f32	s20, s17, s20
 800388a:	edc0 8a00 	vstr	s17, [r0]
 800388e:	ee2a aa2a 	vmul.f32	s20, s20, s21
 8003892:	edc4 7a03 	vstr	s15, [r4, #12]
 8003896:	f080 81d7 	bcs.w	8003c48 <make_sound.constprop.52+0x1790>
 800389a:	49a5      	ldr	r1, [pc, #660]	; (8003b30 <make_sound.constprop.52+0x1678>)
 800389c:	780b      	ldrb	r3, [r1, #0]
 800389e:	b94b      	cbnz	r3, 80038b4 <make_sound.constprop.52+0x13fc>
 80038a0:	f8df a2d0 	ldr.w	sl, [pc, #720]	; 8003b74 <make_sound.constprop.52+0x16bc>
 80038a4:	edda 8a00 	vldr	s17, [sl]
 80038a8:	eef5 8a40 	vcmp.f32	s17, #0.0
 80038ac:	eef1 fa10 	vmrs	APSR_nzcv, fpscr
 80038b0:	f040 8283 	bne.w	8003dba <make_sound.constprop.52+0x1902>
 80038b4:	4b9f      	ldr	r3, [pc, #636]	; (8003b34 <make_sound.constprop.52+0x167c>)
 80038b6:	edd3 8a00 	vldr	s17, [r3]
 80038ba:	eef5 8a40 	vcmp.f32	s17, #0.0
 80038be:	eef1 fa10 	vmrs	APSR_nzcv, fpscr
 80038c2:	f040 81ca 	bne.w	8003c5a <make_sound.constprop.52+0x17a2>
 80038c6:	489c      	ldr	r0, [pc, #624]	; (8003b38 <make_sound.constprop.52+0x1680>)
 80038c8:	eeb0 0a4a 	vmov.f32	s0, s20
 80038cc:	f001 f95c 	bl	8004b88 <SVF_calcSample>
 80038d0:	489a      	ldr	r0, [pc, #616]	; (8003b3c <make_sound.constprop.52+0x1684>)
 80038d2:	eef0 8a40 	vmov.f32	s17, s0
 80038d6:	eeb0 0a4a 	vmov.f32	s0, s20
 80038da:	f001 f955 	bl	8004b88 <SVF_calcSample>
 80038de:	4898      	ldr	r0, [pc, #608]	; (8003b40 <make_sound.constprop.52+0x1688>)
 80038e0:	ee38 0a80 	vadd.f32	s0, s17, s0
 80038e4:	7803      	ldrb	r3, [r0, #0]
 80038e6:	eef6 7a00 	vmov.f32	s15, #96	; 0x60
 80038ea:	ee60 8a27 	vmul.f32	s17, s0, s15
 80038ee:	2b00      	cmp	r3, #0
 80038f0:	f040 8171 	bne.w	8003bd6 <make_sound.constprop.52+0x171e>
 80038f4:	4993      	ldr	r1, [pc, #588]	; (8003b44 <make_sound.constprop.52+0x168c>)
 80038f6:	780b      	ldrb	r3, [r1, #0]
 80038f8:	2b00      	cmp	r3, #0
 80038fa:	f040 813f 	bne.w	8003b7c <make_sound.constprop.52+0x16c4>
 80038fe:	eeb0 aa68 	vmov.f32	s20, s17
 8003902:	eef7 7a00 	vmov.f32	s15, #112	; 0x70
 8003906:	eeb4 aae7 	vcmpe.f32	s20, s15
 800390a:	eef1 fa10 	vmrs	APSR_nzcv, fpscr
 800390e:	f340 814d 	ble.w	8003bac <make_sound.constprop.52+0x16f4>
 8003912:	f647 72ff 	movw	r2, #32767	; 0x7fff
 8003916:	eef7 7a00 	vmov.f32	s15, #112	; 0x70
 800391a:	eef4 8ae7 	vcmpe.f32	s17, s15
 800391e:	eef1 fa10 	vmrs	APSR_nzcv, fpscr
 8003922:	f340 81f6 	ble.w	8003d12 <make_sound.constprop.52+0x185a>
 8003926:	f647 73ff 	movw	r3, #32767	; 0x7fff
 800392a:	f829 2c04 	strh.w	r2, [r9, #-4]
 800392e:	9a03      	ldr	r2, [sp, #12]
 8003930:	f829 3c02 	strh.w	r3, [r9, #-2]
 8003934:	f109 0904 	add.w	r9, r9, #4
 8003938:	4591      	cmp	r9, r2
 800393a:	f47e add3 	bne.w	80024e4 <make_sound.constprop.52+0x2c>
 800393e:	b005      	add	sp, #20
 8003940:	ecbd 8b08 	vpop	{d8-d11}
 8003944:	e8bd 8ff0 	ldmia.w	sp!, {r4, r5, r6, r7, r8, r9, sl, fp, pc}
 8003948:	edd7 7a03 	vldr	s15, [r7, #12]
 800394c:	eef5 7ac0 	vcmpe.f32	s15, #0.0
 8003950:	eef1 fa10 	vmrs	APSR_nzcv, fpscr
 8003954:	d508      	bpl.n	8003968 <make_sound.constprop.52+0x14b0>
 8003956:	ee77 7a88 	vadd.f32	s15, s15, s16
 800395a:	eef5 7ac0 	vcmpe.f32	s15, #0.0
 800395e:	eef1 fa10 	vmrs	APSR_nzcv, fpscr
 8003962:	d4f8      	bmi.n	8003956 <make_sound.constprop.52+0x149e>
 8003964:	edc7 7a03 	vstr	s15, [r7, #12]
 8003968:	eef4 7ac8 	vcmpe.f32	s15, s16
 800396c:	eef1 fa10 	vmrs	APSR_nzcv, fpscr
 8003970:	db08      	blt.n	8003984 <make_sound.constprop.52+0x14cc>
 8003972:	ee77 7ac8 	vsub.f32	s15, s15, s16
 8003976:	eef4 7ac8 	vcmpe.f32	s15, s16
 800397a:	eef1 fa10 	vmrs	APSR_nzcv, fpscr
 800397e:	daf8      	bge.n	8003972 <make_sound.constprop.52+0x14ba>
 8003980:	edc7 7a03 	vstr	s15, [r7, #12]
 8003984:	ed9f 0a66 	vldr	s0, [pc, #408]	; 8003b20 <make_sound.constprop.52+0x1668>
 8003988:	edd7 8a00 	vldr	s17, [r7]
 800398c:	eddf aa6e 	vldr	s21, [pc, #440]	; 8003b48 <make_sound.constprop.52+0x1690>
 8003990:	ee27 0a80 	vmul.f32	s0, s15, s0
 8003994:	f006 fca0 	bl	800a2d8 <lrintf>
 8003998:	4a62      	ldr	r2, [pc, #392]	; (8003b24 <make_sound.constprop.52+0x166c>)
 800399a:	edd7 7a03 	vldr	s15, [r7, #12]
 800399e:	ed97 6a02 	vldr	s12, [r7, #8]
 80039a2:	eddf 6a61 	vldr	s13, [pc, #388]	; 8003b28 <make_sound.constprop.52+0x1670>
 80039a6:	eb02 0080 	add.w	r0, r2, r0, lsl #2
 80039aa:	ed90 7a00 	vldr	s14, [r0]
 80039ae:	eee6 7a26 	vfma.f32	s15, s12, s13
 80039b2:	ee28 7a87 	vmul.f32	s14, s17, s14
 80039b6:	edc7 7a03 	vstr	s15, [r7, #12]
 80039ba:	ee67 aa2a 	vmul.f32	s21, s14, s21
 80039be:	ed87 7a07 	vstr	s14, [r7, #28]
 80039c2:	e707      	b.n	80037d4 <make_sound.constprop.52+0x131c>
 80039c4:	f891 302c 	ldrb.w	r3, [r1, #44]	; 0x2c
 80039c8:	2b00      	cmp	r3, #0
 80039ca:	f000 82ed 	beq.w	8003fa8 <make_sound.constprop.52+0x1af0>
 80039ce:	485f      	ldr	r0, [pc, #380]	; (8003b4c <make_sound.constprop.52+0x1694>)
 80039d0:	7ac3      	ldrb	r3, [r0, #11]
 80039d2:	b913      	cbnz	r3, 80039da <make_sound.constprop.52+0x1522>
 80039d4:	7b43      	ldrb	r3, [r0, #13]
 80039d6:	2b00      	cmp	r3, #0
 80039d8:	d044      	beq.n	8003a64 <make_sound.constprop.52+0x15ac>
 80039da:	f001 fa43 	bl	8004e64 <seq_sequence_new>
 80039de:	f8df b180 	ldr.w	fp, [pc, #384]	; 8003b60 <make_sound.constprop.52+0x16a8>
 80039e2:	495b      	ldr	r1, [pc, #364]	; (8003b50 <make_sound.constprop.52+0x1698>)
 80039e4:	eddf aa5b 	vldr	s21, [pc, #364]	; 8003b54 <make_sound.constprop.52+0x169c>
 80039e8:	4a58      	ldr	r2, [pc, #352]	; (8003b4c <make_sound.constprop.52+0x1694>)
 80039ea:	edc1 aa01 	vstr	s21, [r1, #4]
 80039ee:	468a      	mov	sl, r1
 80039f0:	465b      	mov	r3, fp
 80039f2:	ee1a 1a90 	vmov	r1, s21
 80039f6:	f04f 507e 	mov.w	r0, #1065353216	; 0x3f800000
 80039fa:	f84a 1b08 	str.w	r1, [sl], #8
 80039fe:	f843 0b08 	str.w	r0, [r3], #8
 8003a02:	f04f 0e00 	mov.w	lr, #0
 8003a06:	ed9f aa54 	vldr	s20, [pc, #336]	; 8003b58 <make_sound.constprop.52+0x16a0>
 8003a0a:	eddf 8a54 	vldr	s17, [pc, #336]	; 8003b5c <make_sound.constprop.52+0x16a4>
 8003a0e:	f8cd 9008 	str.w	r9, [sp, #8]
 8003a12:	f8cb 0004 	str.w	r0, [fp, #4]
 8003a16:	46d1      	mov	r9, sl
 8003a18:	f882 e00d 	strb.w	lr, [r2, #13]
 8003a1c:	469a      	mov	sl, r3
 8003a1e:	f008 fcfb 	bl	800c418 <rand>
 8003a22:	ee05 0a10 	vmov	s10, r0
 8003a26:	eef8 7ac5 	vcvt.f32.s32	s15, s10
 8003a2a:	eef0 5a68 	vmov.f32	s11, s17
 8003a2e:	ee67 7a89 	vmul.f32	s15, s15, s18
 8003a32:	484b      	ldr	r0, [pc, #300]	; (8003b60 <make_sound.constprop.52+0x16a8>)
 8003a34:	ece9 aa01 	vstmia	r9!, {s21}
 8003a38:	eee7 5a8a 	vfma.f32	s11, s15, s20
 8003a3c:	f100 012c 	add.w	r1, r0, #44	; 0x2c
 8003a40:	ecea 5a01 	vstmia	sl!, {s11}
 8003a44:	ed9b 7a00 	vldr	s14, [fp]
 8003a48:	ee75 7a87 	vadd.f32	s15, s11, s14
 8003a4c:	458a      	cmp	sl, r1
 8003a4e:	edcb 7a00 	vstr	s15, [fp]
 8003a52:	d1e4      	bne.n	8003a1e <make_sound.constprop.52+0x1566>
 8003a54:	eeb7 7a00 	vmov.f32	s14, #112	; 0x70
 8003a58:	eec7 7a27 	vdiv.f32	s15, s14, s15
 8003a5c:	f8dd 9008 	ldr.w	r9, [sp, #8]
 8003a60:	edc0 7a00 	vstr	s15, [r0]
 8003a64:	4a39      	ldr	r2, [pc, #228]	; (8003b4c <make_sound.constprop.52+0x1694>)
 8003a66:	7b93      	ldrb	r3, [r2, #14]
 8003a68:	b1bb      	cbz	r3, 8003a9a <make_sound.constprop.52+0x15e2>
 8003a6a:	f008 fcd5 	bl	800c418 <rand>
 8003a6e:	ee05 0a10 	vmov	s10, r0
 8003a72:	eeb8 7ac5 	vcvt.f32.s32	s14, s10
 8003a76:	eddf 7a3b 	vldr	s15, [pc, #236]	; 8003b64 <make_sound.constprop.52+0x16ac>
 8003a7a:	ee27 7a09 	vmul.f32	s14, s14, s18
 8003a7e:	eeb0 0a69 	vmov.f32	s0, s19
 8003a82:	eea7 0a27 	vfma.f32	s0, s14, s15
 8003a86:	f006 fc71 	bl	800a36c <rintf>
 8003a8a:	eeb5 0a40 	vcmp.f32	s0, #0.0
 8003a8e:	eef1 fa10 	vmrs	APSR_nzcv, fpscr
 8003a92:	f04f 0300 	mov.w	r3, #0
 8003a96:	f000 82c2 	beq.w	800401e <make_sound.constprop.52+0x1b66>
 8003a9a:	6832      	ldr	r2, [r6, #0]
 8003a9c:	61f2      	str	r2, [r6, #28]
 8003a9e:	2300      	movs	r3, #0
 8003aa0:	f04f 527e 	mov.w	r2, #1065353216	; 0x3f800000
 8003aa4:	6273      	str	r3, [r6, #36]	; 0x24
 8003aa6:	6233      	str	r3, [r6, #32]
 8003aa8:	61b2      	str	r2, [r6, #24]
 8003aaa:	4821      	ldr	r0, [pc, #132]	; (8003b30 <make_sound.constprop.52+0x1678>)
 8003aac:	7803      	ldrb	r3, [r0, #0]
 8003aae:	2b00      	cmp	r3, #0
 8003ab0:	f040 8256 	bne.w	8003f60 <make_sound.constprop.52+0x1aa8>
 8003ab4:	4825      	ldr	r0, [pc, #148]	; (8003b4c <make_sound.constprop.52+0x1694>)
 8003ab6:	7a83      	ldrb	r3, [r0, #10]
 8003ab8:	4602      	mov	r2, r0
 8003aba:	2b00      	cmp	r3, #0
 8003abc:	f040 81d5 	bne.w	8003e6a <make_sound.constprop.52+0x19b2>
 8003ac0:	f898 202c 	ldrb.w	r2, [r8, #44]	; 0x2c
 8003ac4:	4b28      	ldr	r3, [pc, #160]	; (8003b68 <make_sound.constprop.52+0x16b0>)
 8003ac6:	f818 2002 	ldrb.w	r2, [r8, r2]
 8003aca:	f8df a0ac 	ldr.w	sl, [pc, #172]	; 8003b78 <make_sound.constprop.52+0x16c0>
 8003ace:	eb03 0382 	add.w	r3, r3, r2, lsl #2
 8003ad2:	4a26      	ldr	r2, [pc, #152]	; (8003b6c <make_sound.constprop.52+0x16b4>)
 8003ad4:	681b      	ldr	r3, [r3, #0]
 8003ad6:	6013      	str	r3, [r2, #0]
 8003ad8:	f008 fc9e 	bl	800c418 <rand>
 8003adc:	ee05 0a10 	vmov	s10, r0
 8003ae0:	eef8 7ac5 	vcvt.f32.s32	s15, s10
 8003ae4:	f898 202c 	ldrb.w	r2, [r8, #44]	; 0x2c
 8003ae8:	f8d8 3024 	ldr.w	r3, [r8, #36]	; 0x24
 8003aec:	f8c8 3028 	str.w	r3, [r8, #40]	; 0x28
 8003af0:	ee67 7a89 	vmul.f32	s15, s15, s18
 8003af4:	eef0 5a69 	vmov.f32	s11, s19
 8003af8:	1c53      	adds	r3, r2, #1
 8003afa:	eee7 5aa9 	vfma.f32	s11, s15, s19
 8003afe:	b2db      	uxtb	r3, r3
 8003b00:	2b0f      	cmp	r3, #15
 8003b02:	481b      	ldr	r0, [pc, #108]	; (8003b70 <make_sound.constprop.52+0x16b8>)
 8003b04:	f888 302c 	strb.w	r3, [r8, #44]	; 0x2c
 8003b08:	bf88      	it	hi
 8003b0a:	2300      	movhi	r3, #0
 8003b0c:	edc0 5a00 	vstr	s11, [r0]
 8003b10:	bf88      	it	hi
 8003b12:	f88a 302c 	strbhi.w	r3, [sl, #44]	; 0x2c
 8003b16:	f7fe bcee 	b.w	80024f6 <make_sound.constprop.52+0x3e>
 8003b1a:	bf00      	nop
 8003b1c:	20014cf4 	.word	0x20014cf4
 8003b20:	4322f983 	.word	0x4322f983
 8003b24:	0800c50c 	.word	0x0800c50c
 8003b28:	3909421f 	.word	0x3909421f
 8003b2c:	1000002c 	.word	0x1000002c
 8003b30:	10000035 	.word	0x10000035
 8003b34:	10002dcc 	.word	0x10002dcc
 8003b38:	10002ccc 	.word	0x10002ccc
 8003b3c:	10002cec 	.word	0x10002cec
 8003b40:	10000037 	.word	0x10000037
 8003b44:	10000036 	.word	0x10000036
 8003b48:	3f4ccccd 	.word	0x3f4ccccd
 8003b4c:	2000052c 	.word	0x2000052c
 8003b50:	10002e0c 	.word	0x10002e0c
 8003b54:	00000000 	.word	0x00000000
 8003b58:	3f7a9fbf 	.word	0x3f7a9fbf
 8003b5c:	3a83126f 	.word	0x3a83126f
 8003b60:	10000000 	.word	0x10000000
 8003b64:	3f19999a 	.word	0x3f19999a
 8003b68:	0800d510 	.word	0x0800d510
 8003b6c:	10002e38 	.word	0x10002e38
 8003b70:	10000030 	.word	0x10000030
 8003b74:	10002dac 	.word	0x10002dac
 8003b78:	200004f0 	.word	0x200004f0
 8003b7c:	48da      	ldr	r0, [pc, #872]	; (8003ee8 <make_sound.constprop.52+0x1a30>)
 8003b7e:	49db      	ldr	r1, [pc, #876]	; (8003eec <make_sound.constprop.52+0x1a34>)
 8003b80:	eeb0 0a68 	vmov.f32	s0, s17
 8003b84:	f001 fd6e 	bl	8005664 <mono_chorus_compute>
 8003b88:	48d9      	ldr	r0, [pc, #868]	; (8003ef0 <make_sound.constprop.52+0x1a38>)
 8003b8a:	49da      	ldr	r1, [pc, #872]	; (8003ef4 <make_sound.constprop.52+0x1a3c>)
 8003b8c:	eeb0 aa40 	vmov.f32	s20, s0
 8003b90:	eeb0 0a68 	vmov.f32	s0, s17
 8003b94:	f001 fd66 	bl	8005664 <mono_chorus_compute>
 8003b98:	eef7 7a00 	vmov.f32	s15, #112	; 0x70
 8003b9c:	eeb4 aae7 	vcmpe.f32	s20, s15
 8003ba0:	eef1 fa10 	vmrs	APSR_nzcv, fpscr
 8003ba4:	eef0 8a40 	vmov.f32	s17, s0
 8003ba8:	f73f aeb3 	bgt.w	8003912 <make_sound.constprop.52+0x145a>
 8003bac:	eeff 7a00 	vmov.f32	s15, #240	; 0xf0
 8003bb0:	eeb4 aae7 	vcmpe.f32	s20, s15
 8003bb4:	eef1 fa10 	vmrs	APSR_nzcv, fpscr
 8003bb8:	bf48      	it	mi
 8003bba:	f248 0201 	movwmi	r2, #32769	; 0x8001
 8003bbe:	f53f aeaa 	bmi.w	8003916 <make_sound.constprop.52+0x145e>
 8003bc2:	eddf 7acd 	vldr	s15, [pc, #820]	; 8003ef8 <make_sound.constprop.52+0x1a40>
 8003bc6:	ee2a aa27 	vmul.f32	s20, s20, s15
 8003bca:	eebd aaca 	vcvt.s32.f32	s20, s20
 8003bce:	ee1a 2a10 	vmov	r2, s20
 8003bd2:	b292      	uxth	r2, r2
 8003bd4:	e69f      	b.n	8003916 <make_sound.constprop.52+0x145e>
 8003bd6:	4bc9      	ldr	r3, [pc, #804]	; (8003efc <make_sound.constprop.52+0x1a44>)
 8003bd8:	49c9      	ldr	r1, [pc, #804]	; (8003f00 <make_sound.constprop.52+0x1a48>)
 8003bda:	edd3 6a00 	vldr	s13, [r3]
 8003bde:	f8d1 c000 	ldr.w	ip, [r1]
 8003be2:	eddf 7ac8 	vldr	s15, [pc, #800]	; 8003f04 <make_sound.constprop.52+0x1a4c>
 8003be6:	ed9f 7ac8 	vldr	s14, [pc, #800]	; 8003f08 <make_sound.constprop.52+0x1a50>
 8003bea:	ed9c 6a00 	vldr	s12, [ip]
 8003bee:	4ac7      	ldr	r2, [pc, #796]	; (8003f0c <make_sound.constprop.52+0x1a54>)
 8003bf0:	ee66 7aa7 	vmul.f32	s15, s13, s15
 8003bf4:	edd2 6a00 	vldr	s13, [r2]
 8003bf8:	eee6 7a07 	vfma.f32	s15, s12, s14
 8003bfc:	eeb7 7a00 	vmov.f32	s14, #112	; 0x70
 8003c00:	eee7 8aa6 	vfma.f32	s17, s15, s13
 8003c04:	edc3 7a00 	vstr	s15, [r3]
 8003c08:	eef4 8ac7 	vcmpe.f32	s17, s14
 8003c0c:	eef1 fa10 	vmrs	APSR_nzcv, fpscr
 8003c10:	f340 81e0 	ble.w	8003fd4 <make_sound.constprop.52+0x1b1c>
 8003c14:	eef0 8a47 	vmov.f32	s17, s14
 8003c18:	48bd      	ldr	r0, [pc, #756]	; (8003f10 <make_sound.constprop.52+0x1a58>)
 8003c1a:	4abe      	ldr	r2, [pc, #760]	; (8003f14 <make_sound.constprop.52+0x1a5c>)
 8003c1c:	6803      	ldr	r3, [r0, #0]
 8003c1e:	f8df a2f8 	ldr.w	sl, [pc, #760]	; 8003f18 <make_sound.constprop.52+0x1a60>
 8003c22:	ece3 8a01 	vstmia	r3!, {s17}
 8003c26:	ebc2 0b03 	rsb	fp, r2, r3
 8003c2a:	45d3      	cmp	fp, sl
 8003c2c:	6003      	str	r3, [r0, #0]
 8003c2e:	f10c 0c04 	add.w	ip, ip, #4
 8003c32:	bfc8      	it	gt
 8003c34:	6002      	strgt	r2, [r0, #0]
 8003c36:	48b8      	ldr	r0, [pc, #736]	; (8003f18 <make_sound.constprop.52+0x1a60>)
 8003c38:	f8c1 c000 	str.w	ip, [r1]
 8003c3c:	ebc2 030c 	rsb	r3, r2, ip
 8003c40:	4283      	cmp	r3, r0
 8003c42:	bfc8      	it	gt
 8003c44:	600a      	strgt	r2, [r1, #0]
 8003c46:	e655      	b.n	80038f4 <make_sound.constprop.52+0x143c>
 8003c48:	2100      	movs	r1, #0
 8003c4a:	68da      	ldr	r2, [r3, #12]
 8003c4c:	6199      	str	r1, [r3, #24]
 8003c4e:	61da      	str	r2, [r3, #28]
 8003c50:	2100      	movs	r1, #0
 8003c52:	2203      	movs	r2, #3
 8003c54:	6259      	str	r1, [r3, #36]	; 0x24
 8003c56:	621a      	str	r2, [r3, #32]
 8003c58:	e61f      	b.n	800389a <make_sound.constprop.52+0x13e2>
 8003c5a:	edd3 7a03 	vldr	s15, [r3, #12]
 8003c5e:	eef5 7ac0 	vcmpe.f32	s15, #0.0
 8003c62:	eef1 fa10 	vmrs	APSR_nzcv, fpscr
 8003c66:	d50a      	bpl.n	8003c7e <make_sound.constprop.52+0x17c6>
 8003c68:	ee77 7a88 	vadd.f32	s15, s15, s16
 8003c6c:	eef5 7ac0 	vcmpe.f32	s15, #0.0
 8003c70:	eef1 fa10 	vmrs	APSR_nzcv, fpscr
 8003c74:	d4f8      	bmi.n	8003c68 <make_sound.constprop.52+0x17b0>
 8003c76:	f8df e2a4 	ldr.w	lr, [pc, #676]	; 8003f1c <make_sound.constprop.52+0x1a64>
 8003c7a:	edce 7a03 	vstr	s15, [lr, #12]
 8003c7e:	eef4 7ac8 	vcmpe.f32	s15, s16
 8003c82:	eef1 fa10 	vmrs	APSR_nzcv, fpscr
 8003c86:	db09      	blt.n	8003c9c <make_sound.constprop.52+0x17e4>
 8003c88:	ee77 7ac8 	vsub.f32	s15, s15, s16
 8003c8c:	eef4 7ac8 	vcmpe.f32	s15, s16
 8003c90:	eef1 fa10 	vmrs	APSR_nzcv, fpscr
 8003c94:	daf8      	bge.n	8003c88 <make_sound.constprop.52+0x17d0>
 8003c96:	48a1      	ldr	r0, [pc, #644]	; (8003f1c <make_sound.constprop.52+0x1a64>)
 8003c98:	edc0 7a03 	vstr	s15, [r0, #12]
 8003c9c:	ed9f 0aa0 	vldr	s0, [pc, #640]	; 8003f20 <make_sound.constprop.52+0x1a68>
 8003ca0:	ee27 0a80 	vmul.f32	s0, s15, s0
 8003ca4:	f006 fb18 	bl	800a2d8 <lrintf>
 8003ca8:	499e      	ldr	r1, [pc, #632]	; (8003f24 <make_sound.constprop.52+0x1a6c>)
 8003caa:	4a9c      	ldr	r2, [pc, #624]	; (8003f1c <make_sound.constprop.52+0x1a64>)
 8003cac:	4b9e      	ldr	r3, [pc, #632]	; (8003f28 <make_sound.constprop.52+0x1a70>)
 8003cae:	edd2 7a03 	vldr	s15, [r2, #12]
 8003cb2:	ed92 4a02 	vldr	s8, [r2, #8]
 8003cb6:	eddf 4a9d 	vldr	s9, [pc, #628]	; 8003f2c <make_sound.constprop.52+0x1a74>
 8003cba:	ed93 5a00 	vldr	s10, [r3]
 8003cbe:	eddf 5aa5 	vldr	s11, [pc, #660]	; 8003f54 <make_sound.constprop.52+0x1a9c>
 8003cc2:	eb01 0080 	add.w	r0, r1, r0, lsl #2
 8003cc6:	ed90 7a00 	vldr	s14, [r0]
 8003cca:	eef7 6a00 	vmov.f32	s13, #112	; 0x70
 8003cce:	eeb6 6a00 	vmov.f32	s12, #96	; 0x60
 8003cd2:	ee37 7a26 	vadd.f32	s14, s14, s13
 8003cd6:	ee68 8a86 	vmul.f32	s17, s17, s12
 8003cda:	eee4 7a24 	vfma.f32	s15, s8, s9
 8003cde:	ee28 7a87 	vmul.f32	s14, s17, s14
 8003ce2:	edc2 7a03 	vstr	s15, [r2, #12]
 8003ce6:	ee77 6a26 	vadd.f32	s13, s14, s13
 8003cea:	ed82 7a07 	vstr	s14, [r2, #28]
 8003cee:	ee26 7a85 	vmul.f32	s14, s13, s10
 8003cf2:	eeb4 7ae5 	vcmpe.f32	s14, s11
 8003cf6:	eef1 fa10 	vmrs	APSR_nzcv, fpscr
 8003cfa:	f340 80d9 	ble.w	8003eb0 <make_sound.constprop.52+0x19f8>
 8003cfe:	eddf 7a96 	vldr	s15, [pc, #600]	; 8003f58 <make_sound.constprop.52+0x1aa0>
 8003d02:	ed9f 7a96 	vldr	s14, [pc, #600]	; 8003f5c <make_sound.constprop.52+0x1aa4>
 8003d06:	4b8a      	ldr	r3, [pc, #552]	; (8003f30 <make_sound.constprop.52+0x1a78>)
 8003d08:	ed83 7a01 	vstr	s14, [r3, #4]
 8003d0c:	edc3 7a02 	vstr	s15, [r3, #8]
 8003d10:	e5d9      	b.n	80038c6 <make_sound.constprop.52+0x140e>
 8003d12:	eeff 7a00 	vmov.f32	s15, #240	; 0xf0
 8003d16:	eef4 8ae7 	vcmpe.f32	s17, s15
 8003d1a:	eef1 fa10 	vmrs	APSR_nzcv, fpscr
 8003d1e:	bf48      	it	mi
 8003d20:	f248 0301 	movwmi	r3, #32769	; 0x8001
 8003d24:	f53f ae01 	bmi.w	800392a <make_sound.constprop.52+0x1472>
 8003d28:	eddf 7a73 	vldr	s15, [pc, #460]	; 8003ef8 <make_sound.constprop.52+0x1a40>
 8003d2c:	ee68 8aa7 	vmul.f32	s17, s17, s15
 8003d30:	eefd 8ae8 	vcvt.s32.f32	s17, s17
 8003d34:	ee18 3a90 	vmov	r3, s17
 8003d38:	b29b      	uxth	r3, r3
 8003d3a:	e5f6      	b.n	800392a <make_sound.constprop.52+0x1472>
 8003d3c:	edd3 7a03 	vldr	s15, [r3, #12]
 8003d40:	ed9f 7a81 	vldr	s14, [pc, #516]	; 8003f48 <make_sound.constprop.52+0x1a90>
 8003d44:	ee78 8ae7 	vsub.f32	s17, s17, s15
 8003d48:	eef4 8ac7 	vcmpe.f32	s17, s14
 8003d4c:	eef1 fa10 	vmrs	APSR_nzcv, fpscr
 8003d50:	f240 8139 	bls.w	8003fc6 <make_sound.constprop.52+0x1b0e>
 8003d54:	edc3 8a04 	vstr	s17, [r3, #16]
 8003d58:	e54c      	b.n	80037f4 <make_sound.constprop.52+0x133c>
 8003d5a:	ed93 7a01 	vldr	s14, [r3, #4]
 8003d5e:	edd3 7a02 	vldr	s15, [r3, #8]
 8003d62:	ee78 8ac7 	vsub.f32	s17, s17, s14
 8003d66:	eef4 8ae7 	vcmpe.f32	s17, s15
 8003d6a:	eef1 fa10 	vmrs	APSR_nzcv, fpscr
 8003d6e:	edc3 8a04 	vstr	s17, [r3, #16]
 8003d72:	f63f ad3f 	bhi.w	80037f4 <make_sound.constprop.52+0x133c>
 8003d76:	2100      	movs	r1, #0
 8003d78:	2202      	movs	r2, #2
 8003d7a:	edc3 7a04 	vstr	s15, [r3, #16]
 8003d7e:	eef0 8a67 	vmov.f32	s17, s15
 8003d82:	61d9      	str	r1, [r3, #28]
 8003d84:	621a      	str	r2, [r3, #32]
 8003d86:	e535      	b.n	80037f4 <make_sound.constprop.52+0x133c>
 8003d88:	ed93 7a07 	vldr	s14, [r3, #28]
 8003d8c:	edd3 7a06 	vldr	s15, [r3, #24]
 8003d90:	ee78 8a87 	vadd.f32	s17, s17, s14
 8003d94:	eef4 8ae7 	vcmpe.f32	s17, s15
 8003d98:	eef1 fa10 	vmrs	APSR_nzcv, fpscr
 8003d9c:	edc3 8a04 	vstr	s17, [r3, #16]
 8003da0:	f6ff ad28 	blt.w	80037f4 <make_sound.constprop.52+0x133c>
 8003da4:	685a      	ldr	r2, [r3, #4]
 8003da6:	6899      	ldr	r1, [r3, #8]
 8003da8:	61da      	str	r2, [r3, #28]
 8003daa:	2201      	movs	r2, #1
 8003dac:	edc3 7a04 	vstr	s15, [r3, #16]
 8003db0:	eef0 8a67 	vmov.f32	s17, s15
 8003db4:	6199      	str	r1, [r3, #24]
 8003db6:	621a      	str	r2, [r3, #32]
 8003db8:	e51c      	b.n	80037f4 <make_sound.constprop.52+0x133c>
 8003dba:	edda 7a03 	vldr	s15, [sl, #12]
 8003dbe:	eef5 7ac0 	vcmpe.f32	s15, #0.0
 8003dc2:	eef1 fa10 	vmrs	APSR_nzcv, fpscr
 8003dc6:	d508      	bpl.n	8003dda <make_sound.constprop.52+0x1922>
 8003dc8:	ee77 7a88 	vadd.f32	s15, s15, s16
 8003dcc:	eef5 7ac0 	vcmpe.f32	s15, #0.0
 8003dd0:	eef1 fa10 	vmrs	APSR_nzcv, fpscr
 8003dd4:	d4f8      	bmi.n	8003dc8 <make_sound.constprop.52+0x1910>
 8003dd6:	edca 7a03 	vstr	s15, [sl, #12]
 8003dda:	eef4 7ac8 	vcmpe.f32	s15, s16
 8003dde:	eef1 fa10 	vmrs	APSR_nzcv, fpscr
 8003de2:	db08      	blt.n	8003df6 <make_sound.constprop.52+0x193e>
 8003de4:	ee77 7ac8 	vsub.f32	s15, s15, s16
 8003de8:	eef4 7ac8 	vcmpe.f32	s15, s16
 8003dec:	eef1 fa10 	vmrs	APSR_nzcv, fpscr
 8003df0:	daf8      	bge.n	8003de4 <make_sound.constprop.52+0x192c>
 8003df2:	edca 7a03 	vstr	s15, [sl, #12]
 8003df6:	ed9f 0a4a 	vldr	s0, [pc, #296]	; 8003f20 <make_sound.constprop.52+0x1a68>
 8003dfa:	ee27 0a80 	vmul.f32	s0, s15, s0
 8003dfe:	f006 fa6b 	bl	800a2d8 <lrintf>
 8003e02:	4a48      	ldr	r2, [pc, #288]	; (8003f24 <make_sound.constprop.52+0x1a6c>)
 8003e04:	4b4b      	ldr	r3, [pc, #300]	; (8003f34 <make_sound.constprop.52+0x1a7c>)
 8003e06:	edda 7a03 	vldr	s15, [sl, #12]
 8003e0a:	ed9a 4a02 	vldr	s8, [sl, #8]
 8003e0e:	eddf 4a47 	vldr	s9, [pc, #284]	; 8003f2c <make_sound.constprop.52+0x1a74>
 8003e12:	ed93 5a00 	vldr	s10, [r3]
 8003e16:	eddf 5a4f 	vldr	s11, [pc, #316]	; 8003f54 <make_sound.constprop.52+0x1a9c>
 8003e1a:	eb02 0080 	add.w	r0, r2, r0, lsl #2
 8003e1e:	ed90 7a00 	vldr	s14, [r0]
 8003e22:	eef7 6a00 	vmov.f32	s13, #112	; 0x70
 8003e26:	eeb6 6a00 	vmov.f32	s12, #96	; 0x60
 8003e2a:	ee37 7a26 	vadd.f32	s14, s14, s13
 8003e2e:	ee68 8a86 	vmul.f32	s17, s17, s12
 8003e32:	eee4 7a24 	vfma.f32	s15, s8, s9
 8003e36:	ee28 7a87 	vmul.f32	s14, s17, s14
 8003e3a:	edca 7a03 	vstr	s15, [sl, #12]
 8003e3e:	ee77 6a26 	vadd.f32	s13, s14, s13
 8003e42:	ed8a 7a07 	vstr	s14, [sl, #28]
 8003e46:	ee26 7a85 	vmul.f32	s14, s13, s10
 8003e4a:	eeb4 7ae5 	vcmpe.f32	s14, s11
 8003e4e:	eef1 fa10 	vmrs	APSR_nzcv, fpscr
 8003e52:	f340 80c9 	ble.w	8003fe8 <make_sound.constprop.52+0x1b30>
 8003e56:	eddf 7a40 	vldr	s15, [pc, #256]	; 8003f58 <make_sound.constprop.52+0x1aa0>
 8003e5a:	ed9f 7a40 	vldr	s14, [pc, #256]	; 8003f5c <make_sound.constprop.52+0x1aa4>
 8003e5e:	4b36      	ldr	r3, [pc, #216]	; (8003f38 <make_sound.constprop.52+0x1a80>)
 8003e60:	ed83 7a01 	vstr	s14, [r3, #4]
 8003e64:	edc3 7a02 	vstr	s15, [r3, #8]
 8003e68:	e524      	b.n	80038b4 <make_sound.constprop.52+0x13fc>
 8003e6a:	7a40      	ldrb	r0, [r0, #9]
 8003e6c:	4933      	ldr	r1, [pc, #204]	; (8003f3c <make_sound.constprop.52+0x1a84>)
 8003e6e:	4418      	add	r0, r3
 8003e70:	b25b      	sxtb	r3, r3
 8003e72:	7250      	strb	r0, [r2, #9]
 8003e74:	fa1f fe83 	uxth.w	lr, r3
 8003e78:	f101 0011 	add.w	r0, r1, #17
 8003e7c:	f811 3b01 	ldrb.w	r3, [r1], #1
 8003e80:	4473      	add	r3, lr
 8003e82:	b29b      	uxth	r3, r3
 8003e84:	b21a      	sxth	r2, r3
 8003e86:	2a6a      	cmp	r2, #106	; 0x6a
 8003e88:	dd04      	ble.n	8003e94 <make_sound.constprop.52+0x19dc>
 8003e8a:	3b0c      	subs	r3, #12
 8003e8c:	b29b      	uxth	r3, r3
 8003e8e:	b21a      	sxth	r2, r3
 8003e90:	2a6a      	cmp	r2, #106	; 0x6a
 8003e92:	dcfa      	bgt.n	8003e8a <make_sound.constprop.52+0x19d2>
 8003e94:	2a00      	cmp	r2, #0
 8003e96:	da03      	bge.n	8003ea0 <make_sound.constprop.52+0x19e8>
 8003e98:	330c      	adds	r3, #12
 8003e9a:	b29b      	uxth	r3, r3
 8003e9c:	041a      	lsls	r2, r3, #16
 8003e9e:	d4fb      	bmi.n	8003e98 <make_sound.constprop.52+0x19e0>
 8003ea0:	4281      	cmp	r1, r0
 8003ea2:	f801 3c01 	strb.w	r3, [r1, #-1]
 8003ea6:	d1e9      	bne.n	8003e7c <make_sound.constprop.52+0x19c4>
 8003ea8:	4925      	ldr	r1, [pc, #148]	; (8003f40 <make_sound.constprop.52+0x1a88>)
 8003eaa:	2300      	movs	r3, #0
 8003eac:	728b      	strb	r3, [r1, #10]
 8003eae:	e607      	b.n	8003ac0 <make_sound.constprop.52+0x1608>
 8003eb0:	ee27 7a06 	vmul.f32	s14, s14, s12
 8003eb4:	eddf 7a23 	vldr	s15, [pc, #140]	; 8003f44 <make_sound.constprop.52+0x1a8c>
 8003eb8:	ee67 7a27 	vmul.f32	s15, s14, s15
 8003ebc:	eeb9 6a04 	vmov.f32	s12, #148	; 0x94
 8003ec0:	ee77 5aa7 	vadd.f32	s11, s15, s15
 8003ec4:	ee67 6aa7 	vmul.f32	s13, s15, s15
 8003ec8:	eea7 6aa5 	vfma.f32	s12, s15, s11
 8003ecc:	ee67 6aa6 	vmul.f32	s13, s15, s13
 8003ed0:	eefa 5a0e 	vmov.f32	s11, #174	; 0xae
 8003ed4:	eee7 6aa5 	vfma.f32	s13, s15, s11
 8003ed8:	eef0 7a08 	vmov.f32	s15, #8
 8003edc:	ee66 7a27 	vmul.f32	s15, s12, s15
 8003ee0:	eec6 7aa7 	vdiv.f32	s15, s13, s15
 8003ee4:	e70f      	b.n	8003d06 <make_sound.constprop.52+0x184e>
 8003ee6:	bf00      	nop
 8003ee8:	100000bc 	.word	0x100000bc
 8003eec:	10002cac 	.word	0x10002cac
 8003ef0:	100016b4 	.word	0x100016b4
 8003ef4:	10002cbc 	.word	0x10002cbc
 8003ef8:	46fffe00 	.word	0x46fffe00
 8003efc:	20014d20 	.word	0x20014d20
 8003f00:	200004e8 	.word	0x200004e8
 8003f04:	3f19999a 	.word	0x3f19999a
 8003f08:	3ecccccc 	.word	0x3ecccccc
 8003f0c:	20000080 	.word	0x20000080
 8003f10:	20014d1c 	.word	0x20014d1c
 8003f14:	20001228 	.word	0x20001228
 8003f18:	0001387f 	.word	0x0001387f
 8003f1c:	10002dcc 	.word	0x10002dcc
 8003f20:	4322f983 	.word	0x4322f983
 8003f24:	0800c50c 	.word	0x0800c50c
 8003f28:	200004e4 	.word	0x200004e4
 8003f2c:	3909421f 	.word	0x3909421f
 8003f30:	10002cec 	.word	0x10002cec
 8003f34:	20014cf0 	.word	0x20014cf0
 8003f38:	10002ccc 	.word	0x10002ccc
 8003f3c:	200004f0 	.word	0x200004f0
 8003f40:	2000052c 	.word	0x2000052c
 8003f44:	40490fdb 	.word	0x40490fdb
 8003f48:	00000000 	.word	0x00000000
 8003f4c:	41055555 	.word	0x41055555
 8003f50:	3c4ccccd 	.word	0x3c4ccccd
 8003f54:	3f733333 	.word	0x3f733333
 8003f58:	413a1203 	.word	0x413a1203
 8003f5c:	3ef33333 	.word	0x3ef33333
 8003f60:	f008 fa5a 	bl	800c418 <rand>
 8003f64:	ee05 0a10 	vmov	s10, r0
 8003f68:	ed5f 0a09 	vldr	s1, [pc, #-36]	; 8003f48 <make_sound.constprop.52+0x1a90>
 8003f6c:	ed1f 0a09 	vldr	s0, [pc, #-36]	; 8003f4c <make_sound.constprop.52+0x1a94>
 8003f70:	eef8 7ac5 	vcvt.f32.s32	s15, s10
 8003f74:	eee7 0a89 	vfma.f32	s1, s15, s18
 8003f78:	f006 fa9e 	bl	800a4b8 <powf>
 8003f7c:	ed1f 7a0c 	vldr	s14, [pc, #-48]	; 8003f50 <make_sound.constprop.52+0x1a98>
 8003f80:	ed5f 7a0c 	vldr	s15, [pc, #-48]	; 8003f54 <make_sound.constprop.52+0x1a9c>
 8003f84:	ee20 0a07 	vmul.f32	s0, s0, s14
 8003f88:	eeb4 0ae7 	vcmpe.f32	s0, s15
 8003f8c:	eef1 fa10 	vmrs	APSR_nzcv, fpscr
 8003f90:	f340 8298 	ble.w	80044c4 <make_sound.constprop.52+0x200c>
 8003f94:	ed5f 7a10 	vldr	s15, [pc, #-64]	; 8003f58 <make_sound.constprop.52+0x1aa0>
 8003f98:	ed1f 7a10 	vldr	s14, [pc, #-64]	; 8003f5c <make_sound.constprop.52+0x1aa4>
 8003f9c:	4bed      	ldr	r3, [pc, #948]	; (8004354 <make_sound.constprop.52+0x1e9c>)
 8003f9e:	ed83 7a01 	vstr	s14, [r3, #4]
 8003fa2:	edc3 7a02 	vstr	s15, [r3, #8]
 8003fa6:	e585      	b.n	8003ab4 <make_sound.constprop.52+0x15fc>
 8003fa8:	4beb      	ldr	r3, [pc, #940]	; (8004358 <make_sound.constprop.52+0x1ea0>)
 8003faa:	781b      	ldrb	r3, [r3, #0]
 8003fac:	2b00      	cmp	r3, #0
 8003fae:	f43f ad0e 	beq.w	80039ce <make_sound.constprop.52+0x1516>
 8003fb2:	4bea      	ldr	r3, [pc, #936]	; (800435c <make_sound.constprop.52+0x1ea4>)
 8003fb4:	781b      	ldrb	r3, [r3, #0]
 8003fb6:	2b00      	cmp	r3, #0
 8003fb8:	f47f ad09 	bne.w	80039ce <make_sound.constprop.52+0x1516>
 8003fbc:	f002 fe24 	bl	8006c08 <MagicPatch.part.1.6386>
 8003fc0:	f003 fc9e 	bl	8007900 <MagicFX.part.0.6384>
 8003fc4:	e503      	b.n	80039ce <make_sound.constprop.52+0x1516>
 8003fc6:	2204      	movs	r2, #4
 8003fc8:	eef0 8a47 	vmov.f32	s17, s14
 8003fcc:	ed83 7a04 	vstr	s14, [r3, #16]
 8003fd0:	621a      	str	r2, [r3, #32]
 8003fd2:	e40f      	b.n	80037f4 <make_sound.constprop.52+0x133c>
 8003fd4:	eeff 7a00 	vmov.f32	s15, #240	; 0xf0
 8003fd8:	eef4 8a67 	vcmp.f32	s17, s15
 8003fdc:	eef1 fa10 	vmrs	APSR_nzcv, fpscr
 8003fe0:	bf48      	it	mi
 8003fe2:	eef0 8a67 	vmovmi.f32	s17, s15
 8003fe6:	e617      	b.n	8003c18 <make_sound.constprop.52+0x1760>
 8003fe8:	ee27 7a06 	vmul.f32	s14, s14, s12
 8003fec:	eddf 7adf 	vldr	s15, [pc, #892]	; 800436c <make_sound.constprop.52+0x1eb4>
 8003ff0:	ee67 7a27 	vmul.f32	s15, s14, s15
 8003ff4:	eeb9 6a04 	vmov.f32	s12, #148	; 0x94
 8003ff8:	ee77 5aa7 	vadd.f32	s11, s15, s15
 8003ffc:	ee67 6aa7 	vmul.f32	s13, s15, s15
 8004000:	eea7 6aa5 	vfma.f32	s12, s15, s11
 8004004:	ee67 6aa6 	vmul.f32	s13, s15, s13
 8004008:	eefa 5a0e 	vmov.f32	s11, #174	; 0xae
 800400c:	eee7 6aa5 	vfma.f32	s13, s15, s11
 8004010:	eef0 7a08 	vmov.f32	s15, #8
 8004014:	ee66 7a27 	vmul.f32	s15, s12, s15
 8004018:	eec6 7aa7 	vdiv.f32	s15, s13, s15
 800401c:	e71f      	b.n	8003e5e <make_sound.constprop.52+0x19a6>
 800401e:	68f1      	ldr	r1, [r6, #12]
 8004020:	61b3      	str	r3, [r6, #24]
 8004022:	2200      	movs	r2, #0
 8004024:	2303      	movs	r3, #3
 8004026:	61f1      	str	r1, [r6, #28]
 8004028:	6272      	str	r2, [r6, #36]	; 0x24
 800402a:	6233      	str	r3, [r6, #32]
 800402c:	e53d      	b.n	8003aaa <make_sound.constprop.52+0x15f2>
 800402e:	ed9f 7acc 	vldr	s14, [pc, #816]	; 8004360 <make_sound.constprop.52+0x1ea8>
 8004032:	eddf 5acc 	vldr	s11, [pc, #816]	; 8004364 <make_sound.constprop.52+0x1eac>
 8004036:	ee26 7a07 	vmul.f32	s14, s12, s14
 800403a:	eeb4 7ae5 	vcmpe.f32	s14, s11
 800403e:	eef1 fa10 	vmrs	APSR_nzcv, fpscr
 8004042:	f63f aac7 	bhi.w	80035d4 <make_sound.constprop.52+0x111c>
 8004046:	eeb0 7a65 	vmov.f32	s14, s11
 800404a:	eef4 7ac7 	vcmpe.f32	s15, s14
 800404e:	eef1 fa10 	vmrs	APSR_nzcv, fpscr
 8004052:	edc3 5a04 	vstr	s11, [r3, #16]
 8004056:	f57f aac5 	bpl.w	80035e4 <make_sound.constprop.52+0x112c>
 800405a:	eef8 5a00 	vmov.f32	s11, #128	; 0x80
 800405e:	ee85 7a87 	vdiv.f32	s14, s11, s14
 8004062:	eef7 5a00 	vmov.f32	s11, #112	; 0x70
 8004066:	eee7 5a87 	vfma.f32	s11, s15, s14
 800406a:	ed97 7a00 	vldr	s14, [r7]
 800406e:	ee65 5a87 	vmul.f32	s11, s11, s14
 8004072:	f7ff bac7 	b.w	8003604 <make_sound.constprop.52+0x114c>
 8004076:	ed9f 7aba 	vldr	s14, [pc, #744]	; 8004360 <make_sound.constprop.52+0x1ea8>
 800407a:	ed9f 5aba 	vldr	s10, [pc, #744]	; 8004364 <make_sound.constprop.52+0x1eac>
 800407e:	ee25 7a87 	vmul.f32	s14, s11, s14
 8004082:	eeb4 7ac5 	vcmpe.f32	s14, s10
 8004086:	eef1 fa10 	vmrs	APSR_nzcv, fpscr
 800408a:	f63f a88f 	bhi.w	80031ac <make_sound.constprop.52+0xcf4>
 800408e:	eeb0 7a45 	vmov.f32	s14, s10
 8004092:	eef4 7ac7 	vcmpe.f32	s15, s14
 8004096:	eef1 fa10 	vmrs	APSR_nzcv, fpscr
 800409a:	ed83 5a04 	vstr	s10, [r3, #16]
 800409e:	f57f a88d 	bpl.w	80031bc <make_sound.constprop.52+0xd04>
 80040a2:	eeb8 5a00 	vmov.f32	s10, #128	; 0x80
 80040a6:	ee85 7a07 	vdiv.f32	s14, s10, s14
 80040aa:	eeb7 5a00 	vmov.f32	s10, #112	; 0x70
 80040ae:	eea7 5a87 	vfma.f32	s10, s15, s14
 80040b2:	ed97 7a00 	vldr	s14, [r7]
 80040b6:	ee25 5a07 	vmul.f32	s10, s10, s14
 80040ba:	f7ff b88f 	b.w	80031dc <make_sound.constprop.52+0xd24>
 80040be:	ed9f 7aa8 	vldr	s14, [pc, #672]	; 8004360 <make_sound.constprop.52+0x1ea8>
 80040c2:	eddf 6aa8 	vldr	s13, [pc, #672]	; 8004364 <make_sound.constprop.52+0x1eac>
 80040c6:	ee28 7a87 	vmul.f32	s14, s17, s14
 80040ca:	eeb4 7ae6 	vcmpe.f32	s14, s13
 80040ce:	eef1 fa10 	vmrs	APSR_nzcv, fpscr
 80040d2:	f63e ab62 	bhi.w	800279a <make_sound.constprop.52+0x2e2>
 80040d6:	eeb0 7a66 	vmov.f32	s14, s13
 80040da:	eef4 7ac7 	vcmpe.f32	s15, s14
 80040de:	eef1 fa10 	vmrs	APSR_nzcv, fpscr
 80040e2:	edc7 6a04 	vstr	s13, [r7, #16]
 80040e6:	f57e ab60 	bpl.w	80027aa <make_sound.constprop.52+0x2f2>
 80040ea:	eef8 6a00 	vmov.f32	s13, #128	; 0x80
 80040ee:	ee86 7a87 	vdiv.f32	s14, s13, s14
 80040f2:	eef7 6a00 	vmov.f32	s13, #112	; 0x70
 80040f6:	eee7 6a87 	vfma.f32	s13, s15, s14
 80040fa:	ed97 7a00 	vldr	s14, [r7]
 80040fe:	ee26 7a87 	vmul.f32	s14, s13, s14
 8004102:	f7fe bb62 	b.w	80027ca <make_sound.constprop.52+0x312>
 8004106:	ed9f 7a96 	vldr	s14, [pc, #600]	; 8004360 <make_sound.constprop.52+0x1ea8>
 800410a:	eddf 5a96 	vldr	s11, [pc, #600]	; 8004364 <make_sound.constprop.52+0x1eac>
 800410e:	ee28 7a87 	vmul.f32	s14, s17, s14
 8004112:	eeb4 7ae5 	vcmpe.f32	s14, s11
 8004116:	eef1 fa10 	vmrs	APSR_nzcv, fpscr
 800411a:	f63e adec 	bhi.w	8002cf6 <make_sound.constprop.52+0x83e>
 800411e:	eeb0 7a65 	vmov.f32	s14, s11
 8004122:	eef4 7ac7 	vcmpe.f32	s15, s14
 8004126:	eef1 fa10 	vmrs	APSR_nzcv, fpscr
 800412a:	edc7 5a04 	vstr	s11, [r7, #16]
 800412e:	f57e adea 	bpl.w	8002d06 <make_sound.constprop.52+0x84e>
 8004132:	eef8 5a00 	vmov.f32	s11, #128	; 0x80
 8004136:	ee85 7a87 	vdiv.f32	s14, s11, s14
 800413a:	eef7 5a00 	vmov.f32	s11, #112	; 0x70
 800413e:	eee7 5a87 	vfma.f32	s11, s15, s14
 8004142:	ed97 7a00 	vldr	s14, [r7]
 8004146:	ee65 5a87 	vmul.f32	s11, s11, s14
 800414a:	f7fe bdec 	b.w	8002d26 <make_sound.constprop.52+0x86e>
 800414e:	ed9f 7a87 	vldr	s14, [pc, #540]	; 800436c <make_sound.constprop.52+0x1eb4>
 8004152:	eef4 7ac7 	vcmpe.f32	s15, s14
 8004156:	eef1 fa10 	vmrs	APSR_nzcv, fpscr
 800415a:	ed87 7a04 	vstr	s14, [r7, #16]
 800415e:	f57e aee4 	bpl.w	8002f2a <make_sound.constprop.52+0xa72>
 8004162:	eef8 5a00 	vmov.f32	s11, #128	; 0x80
 8004166:	ee85 7a87 	vdiv.f32	s14, s11, s14
 800416a:	eef7 5a00 	vmov.f32	s11, #112	; 0x70
 800416e:	eee7 5a87 	vfma.f32	s11, s15, s14
 8004172:	ed97 7a00 	vldr	s14, [r7]
 8004176:	ee65 5a87 	vmul.f32	s11, s11, s14
 800417a:	f7fe bee6 	b.w	8002f4a <make_sound.constprop.52+0xa92>
 800417e:	eddf 7a7b 	vldr	s15, [pc, #492]	; 800436c <make_sound.constprop.52+0x1eb4>
 8004182:	eeb4 7ae7 	vcmpe.f32	s14, s15
 8004186:	eef1 fa10 	vmrs	APSR_nzcv, fpscr
 800418a:	edc7 7a04 	vstr	s15, [r7, #16]
 800418e:	f57f a93b 	bpl.w	8003408 <make_sound.constprop.52+0xf50>
 8004192:	eeb8 6a00 	vmov.f32	s12, #128	; 0x80
 8004196:	eec6 7a27 	vdiv.f32	s15, s12, s15
 800419a:	eeb7 6a00 	vmov.f32	s12, #112	; 0x70
 800419e:	eea7 6a27 	vfma.f32	s12, s14, s15
 80041a2:	edd7 7a00 	vldr	s15, [r7]
 80041a6:	ee26 6a27 	vmul.f32	s12, s12, s15
 80041aa:	f7ff b93d 	b.w	8003428 <make_sound.constprop.52+0xf70>
 80041ae:	eddf 7a6e 	vldr	s15, [pc, #440]	; 8004368 <make_sound.constprop.52+0x1eb0>
 80041b2:	edda 8a00 	vldr	s17, [sl]
 80041b6:	ed9a aa01 	vldr	s20, [sl, #4]
 80041ba:	f8da 1020 	ldr.w	r1, [sl, #32]
 80041be:	f8ca 101c 	str.w	r1, [sl, #28]
 80041c2:	eec7 8aa8 	vdiv.f32	s17, s15, s17
 80041c6:	2200      	movs	r2, #0
 80041c8:	f8ca 2018 	str.w	r2, [sl, #24]
 80041cc:	ee87 aa8a 	vdiv.f32	s20, s15, s20
 80041d0:	edca 8a03 	vstr	s17, [sl, #12]
 80041d4:	ed8a aa04 	vstr	s20, [sl, #16]
 80041d8:	9301      	str	r3, [sp, #4]
 80041da:	f008 f91d 	bl	800c418 <rand>
 80041de:	ee05 0a10 	vmov	s10, r0
 80041e2:	eef8 7ac5 	vcvt.f32.s32	s15, s10
 80041e6:	ee3a aa68 	vsub.f32	s20, s20, s17
 80041ea:	ee67 7a89 	vmul.f32	s15, s15, s18
 80041ee:	eee7 8a8a 	vfma.f32	s17, s15, s20
 80041f2:	eefc 8ae8 	vcvt.u32.f32	s17, s17
 80041f6:	edca 8a05 	vstr	s17, [sl, #20]
 80041fa:	f008 f90d 	bl	800c418 <rand>
 80041fe:	ee05 0a90 	vmov	s11, r0
 8004202:	eef8 6ae5 	vcvt.f32.s32	s13, s11
 8004206:	eeb0 7a00 	vmov.f32	s14, #0
 800420a:	ee66 6a89 	vmul.f32	s13, s13, s18
 800420e:	eeff 7a00 	vmov.f32	s15, #240	; 0xf0
 8004212:	eee6 7a87 	vfma.f32	s15, s13, s14
 8004216:	9b01      	ldr	r3, [sp, #4]
 8004218:	ed9a 7a07 	vldr	s14, [sl, #28]
 800421c:	ed9a 6a05 	vldr	s12, [sl, #20]
 8004220:	edca 7a08 	vstr	s15, [sl, #32]
 8004224:	eef8 6a46 	vcvt.f32.u32	s13, s12
 8004228:	ee77 7ac7 	vsub.f32	s15, s15, s14
 800422c:	edd3 5a00 	vldr	s11, [r3]
 8004230:	ed9a 7a0a 	vldr	s14, [sl, #40]	; 0x28
 8004234:	eec7 7aa6 	vdiv.f32	s15, s15, s13
 8004238:	edca 7a09 	vstr	s15, [sl, #36]	; 0x24
 800423c:	f7fe bf5b 	b.w	80030f6 <make_sound.constprop.52+0xc3e>
 8004240:	eddf 7a49 	vldr	s15, [pc, #292]	; 8004368 <make_sound.constprop.52+0x1eb0>
 8004244:	ed9a aa00 	vldr	s20, [sl]
 8004248:	edda aa01 	vldr	s21, [sl, #4]
 800424c:	f8da 2020 	ldr.w	r2, [sl, #32]
 8004250:	f8ca 201c 	str.w	r2, [sl, #28]
 8004254:	ee87 aa8a 	vdiv.f32	s20, s15, s20
 8004258:	2300      	movs	r3, #0
 800425a:	f8ca 3018 	str.w	r3, [sl, #24]
 800425e:	eec7 aaaa 	vdiv.f32	s21, s15, s21
 8004262:	ed8a aa03 	vstr	s20, [sl, #12]
 8004266:	edca aa04 	vstr	s21, [sl, #16]
 800426a:	f008 f8d5 	bl	800c418 <rand>
 800426e:	ee05 0a10 	vmov	s10, r0
 8004272:	eef8 7ac5 	vcvt.f32.s32	s15, s10
 8004276:	ee7a aaca 	vsub.f32	s21, s21, s20
 800427a:	ee67 7a89 	vmul.f32	s15, s15, s18
 800427e:	eea7 aaaa 	vfma.f32	s20, s15, s21
 8004282:	eebc aaca 	vcvt.u32.f32	s20, s20
 8004286:	ed8a aa05 	vstr	s20, [sl, #20]
 800428a:	f008 f8c5 	bl	800c418 <rand>
 800428e:	ee05 0a90 	vmov	s11, r0
 8004292:	eef8 6ae5 	vcvt.f32.s32	s13, s11
 8004296:	eeb0 7a00 	vmov.f32	s14, #0
 800429a:	ee66 6a89 	vmul.f32	s13, s13, s18
 800429e:	eeff 7a00 	vmov.f32	s15, #240	; 0xf0
 80042a2:	eee6 7a87 	vfma.f32	s15, s13, s14
 80042a6:	ed9a 6a05 	vldr	s12, [sl, #20]
 80042aa:	edda 6a07 	vldr	s13, [sl, #28]
 80042ae:	edca 7a08 	vstr	s15, [sl, #32]
 80042b2:	ee77 7ae6 	vsub.f32	s15, s15, s13
 80042b6:	eef8 6a46 	vcvt.f32.u32	s13, s12
 80042ba:	ed9a 7a0a 	vldr	s14, [sl, #40]	; 0x28
 80042be:	eec7 7aa6 	vdiv.f32	s15, s15, s13
 80042c2:	edca 7a09 	vstr	s15, [sl, #36]	; 0x24
 80042c6:	f7ff b92e 	b.w	8003526 <make_sound.constprop.52+0x106e>
 80042ca:	eddf 7a27 	vldr	s15, [pc, #156]	; 8004368 <make_sound.constprop.52+0x1eb0>
 80042ce:	edda 8a00 	vldr	s17, [sl]
 80042d2:	ed9a aa01 	vldr	s20, [sl, #4]
 80042d6:	f8da 2020 	ldr.w	r2, [sl, #32]
 80042da:	f8ca 201c 	str.w	r2, [sl, #28]
 80042de:	eec7 8aa8 	vdiv.f32	s17, s15, s17
 80042e2:	2300      	movs	r3, #0
 80042e4:	f8ca 3018 	str.w	r3, [sl, #24]
 80042e8:	ee87 aa8a 	vdiv.f32	s20, s15, s20
 80042ec:	edca 8a03 	vstr	s17, [sl, #12]
 80042f0:	ed8a aa04 	vstr	s20, [sl, #16]
 80042f4:	f008 f890 	bl	800c418 <rand>
 80042f8:	ee05 0a10 	vmov	s10, r0
 80042fc:	eef8 7ac5 	vcvt.f32.s32	s15, s10
 8004300:	ee3a aa68 	vsub.f32	s20, s20, s17
 8004304:	ee67 7a89 	vmul.f32	s15, s15, s18
 8004308:	eee7 8a8a 	vfma.f32	s17, s15, s20
 800430c:	eefc 8ae8 	vcvt.u32.f32	s17, s17
 8004310:	edca 8a05 	vstr	s17, [sl, #20]
 8004314:	f008 f880 	bl	800c418 <rand>
 8004318:	ee05 0a90 	vmov	s11, r0
 800431c:	eef8 6ae5 	vcvt.f32.s32	s13, s11
 8004320:	eef0 7a00 	vmov.f32	s15, #0
 8004324:	ee66 6a89 	vmul.f32	s13, s13, s18
 8004328:	eebf 7a00 	vmov.f32	s14, #240	; 0xf0
 800432c:	eea6 7aa7 	vfma.f32	s14, s13, s15
 8004330:	ed9a 6a05 	vldr	s12, [sl, #20]
 8004334:	edda 6a07 	vldr	s13, [sl, #28]
 8004338:	ed8a 7a08 	vstr	s14, [sl, #32]
 800433c:	ee37 7a66 	vsub.f32	s14, s14, s13
 8004340:	eef8 6a46 	vcvt.f32.u32	s13, s12
 8004344:	edda 7a0a 	vldr	s15, [sl, #40]	; 0x28
 8004348:	ee87 7a26 	vdiv.f32	s14, s14, s13
 800434c:	ed8a 7a09 	vstr	s14, [sl, #36]	; 0x24
 8004350:	f7fe bea8 	b.w	80030a4 <make_sound.constprop.52+0xbec>
 8004354:	10002ccc 	.word	0x10002ccc
 8004358:	20000000 	.word	0x20000000
 800435c:	20014d3c 	.word	0x20014d3c
 8004360:	39cde32e 	.word	0x39cde32e
 8004364:	38d1b717 	.word	0x38d1b717
 8004368:	46bb8000 	.word	0x46bb8000
 800436c:	40490fdb 	.word	0x40490fdb
 8004370:	ed5f 7a03 	vldr	s15, [pc, #-12]	; 8004368 <make_sound.constprop.52+0x1eb0>
 8004374:	ed9b aa00 	vldr	s20, [fp]
 8004378:	eddb aa01 	vldr	s21, [fp, #4]
 800437c:	f8db 2020 	ldr.w	r2, [fp, #32]
 8004380:	f8cb 201c 	str.w	r2, [fp, #28]
 8004384:	ee87 aa8a 	vdiv.f32	s20, s15, s20
 8004388:	2300      	movs	r3, #0
 800438a:	f8cb 3018 	str.w	r3, [fp, #24]
 800438e:	eec7 aaaa 	vdiv.f32	s21, s15, s21
 8004392:	ed8b aa03 	vstr	s20, [fp, #12]
 8004396:	edcb aa04 	vstr	s21, [fp, #16]
 800439a:	f008 f83d 	bl	800c418 <rand>
 800439e:	ee05 0a10 	vmov	s10, r0
 80043a2:	eef8 7ac5 	vcvt.f32.s32	s15, s10
 80043a6:	ee7a aaca 	vsub.f32	s21, s21, s20
 80043aa:	ee67 7a89 	vmul.f32	s15, s15, s18
 80043ae:	eea7 aaaa 	vfma.f32	s20, s15, s21
 80043b2:	eebc aaca 	vcvt.u32.f32	s20, s20
 80043b6:	ed8b aa05 	vstr	s20, [fp, #20]
 80043ba:	f008 f82d 	bl	800c418 <rand>
 80043be:	ee05 0a90 	vmov	s11, r0
 80043c2:	eef8 6ae5 	vcvt.f32.s32	s13, s11
 80043c6:	eef0 7a00 	vmov.f32	s15, #0
 80043ca:	ee66 6a89 	vmul.f32	s13, s13, s18
 80043ce:	eebf 7a00 	vmov.f32	s14, #240	; 0xf0
 80043d2:	eea6 7aa7 	vfma.f32	s14, s13, s15
 80043d6:	ed9b 6a07 	vldr	s12, [fp, #28]
 80043da:	ed9b 5a05 	vldr	s10, [fp, #20]
 80043de:	ed8b 7a08 	vstr	s14, [fp, #32]
 80043e2:	ee37 7a46 	vsub.f32	s14, s14, s12
 80043e6:	eeb8 6a45 	vcvt.f32.u32	s12, s10
 80043ea:	eddb 7a0a 	vldr	s15, [fp, #40]	; 0x28
 80043ee:	edda 6a02 	vldr	s13, [sl, #8]
 80043f2:	ee87 7a06 	vdiv.f32	s14, s14, s12
 80043f6:	ed8b 7a09 	vstr	s14, [fp, #36]	; 0x24
 80043fa:	f7ff b8ba 	b.w	8003572 <make_sound.constprop.52+0x10ba>
 80043fe:	ed5f 7a26 	vldr	s15, [pc, #-152]	; 8004368 <make_sound.constprop.52+0x1eb0>
 8004402:	eddb 8a00 	vldr	s17, [fp]
 8004406:	ed9b aa01 	vldr	s20, [fp, #4]
 800440a:	f8db 1020 	ldr.w	r1, [fp, #32]
 800440e:	f8cb 101c 	str.w	r1, [fp, #28]
 8004412:	eec7 8aa8 	vdiv.f32	s17, s15, s17
 8004416:	2200      	movs	r2, #0
 8004418:	f8cb 2018 	str.w	r2, [fp, #24]
 800441c:	ee87 aa8a 	vdiv.f32	s20, s15, s20
 8004420:	edcb 8a03 	vstr	s17, [fp, #12]
 8004424:	ed8b aa04 	vstr	s20, [fp, #16]
 8004428:	9301      	str	r3, [sp, #4]
 800442a:	f007 fff5 	bl	800c418 <rand>
 800442e:	ee05 0a10 	vmov	s10, r0
 8004432:	eef8 7ac5 	vcvt.f32.s32	s15, s10
 8004436:	ee3a aa68 	vsub.f32	s20, s20, s17
 800443a:	ee67 7a89 	vmul.f32	s15, s15, s18
 800443e:	eee7 8a8a 	vfma.f32	s17, s15, s20
 8004442:	eefc 8ae8 	vcvt.u32.f32	s17, s17
 8004446:	edcb 8a05 	vstr	s17, [fp, #20]
 800444a:	f007 ffe5 	bl	800c418 <rand>
 800444e:	ee05 0a90 	vmov	s11, r0
 8004452:	eef8 6ae5 	vcvt.f32.s32	s13, s11
 8004456:	eef0 7a00 	vmov.f32	s15, #0
 800445a:	ee66 6a89 	vmul.f32	s13, s13, s18
 800445e:	eebf 7a00 	vmov.f32	s14, #240	; 0xf0
 8004462:	eea6 7aa7 	vfma.f32	s14, s13, s15
 8004466:	9b01      	ldr	r3, [sp, #4]
 8004468:	ed9b 6a07 	vldr	s12, [fp, #28]
 800446c:	ed9b 5a05 	vldr	s10, [fp, #20]
 8004470:	ed8b 7a08 	vstr	s14, [fp, #32]
 8004474:	ee37 7a46 	vsub.f32	s14, s14, s12
 8004478:	eeb8 6a45 	vcvt.f32.u32	s12, s10
 800447c:	edd3 5a00 	vldr	s11, [r3]
 8004480:	eddb 7a0a 	vldr	s15, [fp, #40]	; 0x28
 8004484:	edda 6a02 	vldr	s13, [sl, #8]
 8004488:	ee87 7a06 	vdiv.f32	s14, s14, s12
 800448c:	ed8b 7a09 	vstr	s14, [fp, #36]	; 0x24
 8004490:	f7fe be59 	b.w	8003146 <make_sound.constprop.52+0xc8e>
 8004494:	ed1f 7a4b 	vldr	s14, [pc, #-300]	; 800436c <make_sound.constprop.52+0x1eb4>
 8004498:	eef4 7ac7 	vcmpe.f32	s15, s14
 800449c:	eef1 fa10 	vmrs	APSR_nzcv, fpscr
 80044a0:	ed8b 7a04 	vstr	s14, [fp, #16]
 80044a4:	f57e acd9 	bpl.w	8002e5a <make_sound.constprop.52+0x9a2>
 80044a8:	eeb8 6a00 	vmov.f32	s12, #128	; 0x80
 80044ac:	ee86 7a07 	vdiv.f32	s14, s12, s14
 80044b0:	eeb7 6a00 	vmov.f32	s12, #112	; 0x70
 80044b4:	eea7 6a87 	vfma.f32	s12, s15, s14
 80044b8:	ed9b 7a00 	vldr	s14, [fp]
 80044bc:	ee26 7a07 	vmul.f32	s14, s12, s14
 80044c0:	f7fe bcdb 	b.w	8002e7a <make_sound.constprop.52+0x9c2>
 80044c4:	eeb6 7a00 	vmov.f32	s14, #96	; 0x60
 80044c8:	ee20 7a07 	vmul.f32	s14, s0, s14
 80044cc:	ed5f 7a59 	vldr	s15, [pc, #-356]	; 800436c <make_sound.constprop.52+0x1eb4>
 80044d0:	ee67 7a27 	vmul.f32	s15, s14, s15
 80044d4:	eeb9 6a04 	vmov.f32	s12, #148	; 0x94
 80044d8:	ee77 5aa7 	vadd.f32	s11, s15, s15
 80044dc:	ee67 6aa7 	vmul.f32	s13, s15, s15
 80044e0:	eea7 6aa5 	vfma.f32	s12, s15, s11
 80044e4:	ee67 6aa6 	vmul.f32	s13, s15, s13
 80044e8:	eefa 5a0e 	vmov.f32	s11, #174	; 0xae
 80044ec:	eee7 6aa5 	vfma.f32	s13, s15, s11
 80044f0:	eef0 7a08 	vmov.f32	s15, #8
 80044f4:	ee66 7a27 	vmul.f32	s15, s12, s15
 80044f8:	eec6 7aa7 	vdiv.f32	s15, s13, s15
 80044fc:	e54e      	b.n	8003f9c <make_sound.constprop.52+0x1ae4>
 80044fe:	ed5f 7a65 	vldr	s15, [pc, #-404]	; 800436c <make_sound.constprop.52+0x1eb4>
 8004502:	eeb4 7ae7 	vcmpe.f32	s14, s15
 8004506:	eef1 fa10 	vmrs	APSR_nzcv, fpscr
 800450a:	edca 7a04 	vstr	s15, [sl, #16]
 800450e:	f57e ad60 	bpl.w	8002fd2 <make_sound.constprop.52+0xb1a>
 8004512:	eeb8 5a00 	vmov.f32	s10, #128	; 0x80
 8004516:	eec5 7a27 	vdiv.f32	s15, s10, s15
 800451a:	eeb7 5a00 	vmov.f32	s10, #112	; 0x70
 800451e:	eea7 5a27 	vfma.f32	s10, s14, s15
 8004522:	edda 7a00 	vldr	s15, [sl]
 8004526:	ee25 5a27 	vmul.f32	s10, s10, s15
 800452a:	f7fe bd62 	b.w	8002ff2 <make_sound.constprop.52+0xb3a>
 800452e:	ed1f 7a71 	vldr	s14, [pc, #-452]	; 800436c <make_sound.constprop.52+0x1eb4>
 8004532:	eef4 7ac7 	vcmpe.f32	s15, s14
 8004536:	eef1 fa10 	vmrs	APSR_nzcv, fpscr
 800453a:	ed8b 7a04 	vstr	s14, [fp, #16]
 800453e:	f57e aee7 	bpl.w	8003310 <make_sound.constprop.52+0xe58>
 8004542:	eef8 6a00 	vmov.f32	s13, #128	; 0x80
 8004546:	ee86 7a87 	vdiv.f32	s14, s13, s14
 800454a:	eef7 6a00 	vmov.f32	s13, #112	; 0x70
 800454e:	eee7 6a87 	vfma.f32	s13, s15, s14
 8004552:	ed9b 7a00 	vldr	s14, [fp]
 8004556:	ee26 7a87 	vmul.f32	s14, s13, s14
 800455a:	f7fe bee9 	b.w	8003330 <make_sound.constprop.52+0xe78>
 800455e:	ed1f 7a7d 	vldr	s14, [pc, #-500]	; 800436c <make_sound.constprop.52+0x1eb4>
 8004562:	eef4 7ac7 	vcmpe.f32	s15, s14
 8004566:	eef1 fa10 	vmrs	APSR_nzcv, fpscr
 800456a:	ed8b 7a04 	vstr	s14, [fp, #16]
 800456e:	f57f a8e3 	bpl.w	8003738 <make_sound.constprop.52+0x1280>
 8004572:	eef8 6a00 	vmov.f32	s13, #128	; 0x80
 8004576:	ee86 7a87 	vdiv.f32	s14, s13, s14
 800457a:	eef7 6a00 	vmov.f32	s13, #112	; 0x70
 800457e:	eee7 6a87 	vfma.f32	s13, s15, s14
 8004582:	ed9b 7a00 	vldr	s14, [fp]
 8004586:	ee26 7a87 	vmul.f32	s14, s13, s14
 800458a:	f7ff b8e5 	b.w	8003758 <make_sound.constprop.52+0x12a0>
 800458e:	ed5f 7a89 	vldr	s15, [pc, #-548]	; 800436c <make_sound.constprop.52+0x1eb4>
 8004592:	eeb4 7ae7 	vcmpe.f32	s14, s15
 8004596:	eef1 fa10 	vmrs	APSR_nzcv, fpscr
 800459a:	edca 7a04 	vstr	s15, [sl, #16]
 800459e:	f57e ae61 	bpl.w	8003264 <make_sound.constprop.52+0xdac>
 80045a2:	eef8 5a00 	vmov.f32	s11, #128	; 0x80
 80045a6:	eec5 7aa7 	vdiv.f32	s15, s11, s15
 80045aa:	eef7 5a00 	vmov.f32	s11, #112	; 0x70
 80045ae:	eee7 5a27 	vfma.f32	s11, s14, s15
 80045b2:	edda 7a00 	vldr	s15, [sl]
 80045b6:	ee65 5aa7 	vmul.f32	s11, s11, s15
 80045ba:	f7fe be63 	b.w	8003284 <make_sound.constprop.52+0xdcc>
 80045be:	ed5f 7a95 	vldr	s15, [pc, #-596]	; 800436c <make_sound.constprop.52+0x1eb4>
 80045c2:	eeb4 7ae7 	vcmpe.f32	s14, s15
 80045c6:	eef1 fa10 	vmrs	APSR_nzcv, fpscr
 80045ca:	edca 7a04 	vstr	s15, [sl, #16]
 80045ce:	f57f a85d 	bpl.w	800368c <make_sound.constprop.52+0x11d4>
 80045d2:	eeb8 6a00 	vmov.f32	s12, #128	; 0x80
 80045d6:	eec6 7a27 	vdiv.f32	s15, s12, s15
 80045da:	eeb7 6a00 	vmov.f32	s12, #112	; 0x70
 80045de:	eea7 6a27 	vfma.f32	s12, s14, s15
 80045e2:	edda 7a00 	vldr	s15, [sl]
 80045e6:	ee26 6a27 	vmul.f32	s12, s12, s15
 80045ea:	f7ff b85f 	b.w	80036ac <make_sound.constprop.52+0x11f4>
 80045ee:	ed1f 7aa1 	vldr	s14, [pc, #-644]	; 800436c <make_sound.constprop.52+0x1eb4>
 80045f2:	eef4 7ac7 	vcmpe.f32	s15, s14
 80045f6:	eef1 fa10 	vmrs	APSR_nzcv, fpscr
 80045fa:	ed8a 7a04 	vstr	s14, [sl, #16]
 80045fe:	f57e af57 	bpl.w	80034b0 <make_sound.constprop.52+0xff8>
 8004602:	eef8 5a00 	vmov.f32	s11, #128	; 0x80
 8004606:	ee85 7a87 	vdiv.f32	s14, s11, s14
 800460a:	eef7 5a00 	vmov.f32	s11, #112	; 0x70
 800460e:	eee7 5a87 	vfma.f32	s11, s15, s14
 8004612:	ed9a 7a00 	vldr	s14, [sl]
 8004616:	ee25 7a87 	vmul.f32	s14, s11, s14
 800461a:	f7fe bf59 	b.w	80034d0 <make_sound.constprop.52+0x1018>
 800461e:	ed5f 7aad 	vldr	s15, [pc, #-692]	; 800436c <make_sound.constprop.52+0x1eb4>
 8004622:	eeb4 7ae7 	vcmpe.f32	s14, s15
 8004626:	eef1 fa10 	vmrs	APSR_nzcv, fpscr
 800462a:	edca 7a04 	vstr	s15, [sl, #16]
 800462e:	f57e abbe 	bpl.w	8002dae <make_sound.constprop.52+0x8f6>
 8004632:	eeb8 5a00 	vmov.f32	s10, #128	; 0x80
 8004636:	eec5 7a27 	vdiv.f32	s15, s10, s15
 800463a:	eeb7 5a00 	vmov.f32	s10, #112	; 0x70
 800463e:	eea7 5a27 	vfma.f32	s10, s14, s15
 8004642:	edda 7a00 	vldr	s15, [sl]
 8004646:	ee25 5a27 	vmul.f32	s10, s10, s15
 800464a:	f7fe bbc0 	b.w	8002dce <make_sound.constprop.52+0x916>
 800464e:	edd7 7a03 	vldr	s15, [r7, #12]
 8004652:	eef5 7ac0 	vcmpe.f32	s15, #0.0
 8004656:	eef1 fa10 	vmrs	APSR_nzcv, fpscr
 800465a:	d50d      	bpl.n	8004678 <make_sound.constprop.52+0x21c0>
 800465c:	ee77 7a88 	vadd.f32	s15, s15, s16
 8004660:	eef5 7ac0 	vcmpe.f32	s15, #0.0
 8004664:	eef1 fa10 	vmrs	APSR_nzcv, fpscr
 8004668:	d4f8      	bmi.n	800465c <make_sound.constprop.52+0x21a4>
 800466a:	eef4 7ac8 	vcmpe.f32	s15, s16
 800466e:	eef1 fa10 	vmrs	APSR_nzcv, fpscr
 8004672:	db06      	blt.n	8004682 <make_sound.constprop.52+0x21ca>
 8004674:	ee77 7ac8 	vsub.f32	s15, s15, s16
 8004678:	eef4 7ac8 	vcmpe.f32	s15, s16
 800467c:	eef1 fa10 	vmrs	APSR_nzcv, fpscr
 8004680:	daf8      	bge.n	8004674 <make_sound.constprop.52+0x21bc>
 8004682:	ed1f 7ac6 	vldr	s14, [pc, #-792]	; 800436c <make_sound.constprop.52+0x1eb4>
 8004686:	eef4 7ac7 	vcmpe.f32	s15, s14
 800468a:	eef1 fa10 	vmrs	APSR_nzcv, fpscr
 800468e:	ee87 7a87 	vdiv.f32	s14, s15, s14
 8004692:	d40f      	bmi.n	80046b4 <make_sound.constprop.52+0x21fc>
 8004694:	eef0 6a00 	vmov.f32	s13, #0
 8004698:	ee37 7a66 	vsub.f32	s14, s14, s13
 800469c:	ed97 6a00 	vldr	s12, [r7]
 80046a0:	ee27 6a06 	vmul.f32	s12, s14, s12
 80046a4:	eefe 6a00 	vmov.f32	s13, #224	; 0xe0
 80046a8:	ee27 7a06 	vmul.f32	s14, s14, s12
 80046ac:	ee67 aa26 	vmul.f32	s21, s14, s13
 80046b0:	f7fd bfde 	b.w	8002670 <make_sound.constprop.52+0x1b8>
 80046b4:	edd7 aa00 	vldr	s21, [r7]
 80046b8:	eef6 6a00 	vmov.f32	s13, #96	; 0x60
 80046bc:	ee6a aaa6 	vmul.f32	s21, s21, s13
 80046c0:	ee6a aa87 	vmul.f32	s21, s21, s14
 80046c4:	ee67 aa2a 	vmul.f32	s21, s14, s21
 80046c8:	f7fd bfd2 	b.w	8002670 <make_sound.constprop.52+0x1b8>

080046cc <SysTick_Handler>:
SysTick_Handler():
 80046cc:	4b25      	ldr	r3, [pc, #148]	; (8004764 <SysTick_Handler+0x98>)
 80046ce:	681a      	ldr	r2, [r3, #0]
 80046d0:	b430      	push	{r4, r5}
 80046d2:	b10a      	cbz	r2, 80046d8 <SysTick_Handler+0xc>
 80046d4:	3a01      	subs	r2, #1
 80046d6:	601a      	str	r2, [r3, #0]
 80046d8:	4b23      	ldr	r3, [pc, #140]	; (8004768 <SysTick_Handler+0x9c>)
 80046da:	681a      	ldr	r2, [r3, #0]
 80046dc:	b10a      	cbz	r2, 80046e2 <SysTick_Handler+0x16>
 80046de:	3a01      	subs	r2, #1
 80046e0:	601a      	str	r2, [r3, #0]
 80046e2:	4a22      	ldr	r2, [pc, #136]	; (800476c <SysTick_Handler+0xa0>)
 80046e4:	6813      	ldr	r3, [r2, #0]
 80046e6:	3b01      	subs	r3, #1
 80046e8:	6013      	str	r3, [r2, #0]
 80046ea:	b923      	cbnz	r3, 80046f6 <SysTick_Handler+0x2a>
 80046ec:	4b20      	ldr	r3, [pc, #128]	; (8004770 <SysTick_Handler+0xa4>)
 80046ee:	68db      	ldr	r3, [r3, #12]
 80046f0:	f44f 4200 	mov.w	r2, #32768	; 0x8000
 80046f4:	835a      	strh	r2, [r3, #26]
 80046f6:	4b1f      	ldr	r3, [pc, #124]	; (8004774 <SysTick_Handler+0xa8>)
 80046f8:	781b      	ldrb	r3, [r3, #0]
 80046fa:	b90b      	cbnz	r3, 8004700 <SysTick_Handler+0x34>
 80046fc:	bc30      	pop	{r4, r5}
 80046fe:	4770      	bx	lr
 8004700:	4b1d      	ldr	r3, [pc, #116]	; (8004778 <SysTick_Handler+0xac>)
 8004702:	491e      	ldr	r1, [pc, #120]	; (800477c <SysTick_Handler+0xb0>)
 8004704:	691b      	ldr	r3, [r3, #16]
 8004706:	780a      	ldrb	r2, [r1, #0]
 8004708:	f003 0301 	and.w	r3, r3, #1
 800470c:	429a      	cmp	r2, r3
 800470e:	d011      	beq.n	8004734 <SysTick_Handler+0x68>
 8004710:	4a1b      	ldr	r2, [pc, #108]	; (8004780 <SysTick_Handler+0xb4>)
 8004712:	7810      	ldrb	r0, [r2, #0]
 8004714:	3801      	subs	r0, #1
 8004716:	b2c0      	uxtb	r0, r0
 8004718:	7010      	strb	r0, [r2, #0]
 800471a:	2800      	cmp	r0, #0
 800471c:	d1ee      	bne.n	80046fc <SysTick_Handler+0x30>
 800471e:	4d19      	ldr	r5, [pc, #100]	; (8004784 <SysTick_Handler+0xb8>)
 8004720:	4c19      	ldr	r4, [pc, #100]	; (8004788 <SysTick_Handler+0xbc>)
 8004722:	700b      	strb	r3, [r1, #0]
 8004724:	2101      	movs	r1, #1
 8004726:	7029      	strb	r1, [r5, #0]
 8004728:	7023      	strb	r3, [r4, #0]
 800472a:	b943      	cbnz	r3, 800473e <SysTick_Handler+0x72>
 800472c:	230a      	movs	r3, #10
 800472e:	7013      	strb	r3, [r2, #0]
 8004730:	bc30      	pop	{r4, r5}
 8004732:	4770      	bx	lr
 8004734:	4b12      	ldr	r3, [pc, #72]	; (8004780 <SysTick_Handler+0xb4>)
 8004736:	220a      	movs	r2, #10
 8004738:	701a      	strb	r2, [r3, #0]
 800473a:	bc30      	pop	{r4, r5}
 800473c:	4770      	bx	lr
 800473e:	4b13      	ldr	r3, [pc, #76]	; (800478c <SysTick_Handler+0xc0>)
 8004740:	781c      	ldrb	r4, [r3, #0]
 8004742:	250a      	movs	r5, #10
 8004744:	7015      	strb	r5, [r2, #0]
 8004746:	4a0a      	ldr	r2, [pc, #40]	; (8004770 <SysTick_Handler+0xa4>)
 8004748:	b12c      	cbz	r4, 8004756 <SysTick_Handler+0x8a>
 800474a:	7018      	strb	r0, [r3, #0]
 800474c:	6893      	ldr	r3, [r2, #8]
 800474e:	f44f 4280 	mov.w	r2, #16384	; 0x4000
 8004752:	835a      	strh	r2, [r3, #26]
 8004754:	e7d2      	b.n	80046fc <SysTick_Handler+0x30>
 8004756:	7019      	strb	r1, [r3, #0]
 8004758:	6893      	ldr	r3, [r2, #8]
 800475a:	f44f 4280 	mov.w	r2, #16384	; 0x4000
 800475e:	831a      	strh	r2, [r3, #24]
 8004760:	e7cc      	b.n	80046fc <SysTick_Handler+0x30>
 8004762:	bf00      	nop
 8004764:	20014d28 	.word	0x20014d28
 8004768:	20014d30 	.word	0x20014d30
 800476c:	20014d38 	.word	0x20014d38
 8004770:	20000084 	.word	0x20000084
 8004774:	20000000 	.word	0x20000000
 8004778:	40020000 	.word	0x40020000
 800477c:	20014d24 	.word	0x20014d24
 8004780:	2000007c 	.word	0x2000007c
 8004784:	20014d2c 	.word	0x20014d2c
 8004788:	20014d34 	.word	0x20014d34
 800478c:	20014d3c 	.word	0x20014d3c

08004790 <USBH_USR_DeviceDisconnected>:
USBH_USR_DeviceDisconnected():
 8004790:	4b02      	ldr	r3, [pc, #8]	; (800479c <USBH_USR_DeviceDisconnected+0xc>)
 8004792:	681b      	ldr	r3, [r3, #0]
 8004794:	f44f 5280 	mov.w	r2, #4096	; 0x1000
 8004798:	835a      	strh	r2, [r3, #26]
 800479a:	4770      	bx	lr
 800479c:	20000084 	.word	0x20000084

080047a0 <USBH_USR_UnrecoveredError>:
USBH_USR_UnrecoveredError():
 80047a0:	4b02      	ldr	r3, [pc, #8]	; (80047ac <USBH_USR_UnrecoveredError+0xc>)
 80047a2:	681b      	ldr	r3, [r3, #0]
 80047a4:	f44f 5280 	mov.w	r2, #4096	; 0x1000
 80047a8:	835a      	strh	r2, [r3, #26]
 80047aa:	4770      	bx	lr
 80047ac:	20000084 	.word	0x20000084

080047b0 <USBH_USR_EnumerationDone>:
USBH_USR_EnumerationDone():
 80047b0:	4b02      	ldr	r3, [pc, #8]	; (80047bc <USBH_USR_EnumerationDone+0xc>)
 80047b2:	681b      	ldr	r3, [r3, #0]
 80047b4:	f44f 5280 	mov.w	r2, #4096	; 0x1000
 80047b8:	831a      	strh	r2, [r3, #24]
 80047ba:	4770      	bx	lr
 80047bc:	20000084 	.word	0x20000084

080047c0 <USBH_USR_OverCurrentDetected>:
USBH_USR_OverCurrentDetected():
 80047c0:	4b02      	ldr	r3, [pc, #8]	; (80047cc <USBH_USR_OverCurrentDetected+0xc>)
 80047c2:	689b      	ldr	r3, [r3, #8]
 80047c4:	f44f 4280 	mov.w	r2, #16384	; 0x4000
 80047c8:	831a      	strh	r2, [r3, #24]
 80047ca:	4770      	bx	lr
 80047cc:	20000084 	.word	0x20000084

080047d0 <SPI3_IRQHandler>:
SPI3_IRQHandler():
 80047d0:	4b0c      	ldr	r3, [pc, #48]	; (8004804 <SPI3_IRQHandler+0x34>)
 80047d2:	891b      	ldrh	r3, [r3, #8]
 80047d4:	079b      	lsls	r3, r3, #30
 80047d6:	b082      	sub	sp, #8
 80047d8:	d401      	bmi.n	80047de <SPI3_IRQHandler+0xe>
 80047da:	b002      	add	sp, #8
 80047dc:	4770      	bx	lr
 80047de:	4b0a      	ldr	r3, [pc, #40]	; (8004808 <SPI3_IRQHandler+0x38>)
 80047e0:	681b      	ldr	r3, [r3, #0]
 80047e2:	2b02      	cmp	r3, #2
 80047e4:	d004      	beq.n	80047f0 <SPI3_IRQHandler+0x20>
 80047e6:	4b07      	ldr	r3, [pc, #28]	; (8004804 <SPI3_IRQHandler+0x34>)
 80047e8:	2200      	movs	r2, #0
 80047ea:	819a      	strh	r2, [r3, #12]
 80047ec:	b002      	add	sp, #8
 80047ee:	4770      	bx	lr
 80047f0:	2300      	movs	r3, #0
 80047f2:	4a06      	ldr	r2, [pc, #24]	; (800480c <SPI3_IRQHandler+0x3c>)
 80047f4:	9301      	str	r3, [sp, #4]
 80047f6:	9201      	str	r2, [sp, #4]
 80047f8:	9a01      	ldr	r2, [sp, #4]
 80047fa:	320c      	adds	r2, #12
 80047fc:	9201      	str	r2, [sp, #4]
 80047fe:	9a01      	ldr	r2, [sp, #4]
 8004800:	6013      	str	r3, [r2, #0]
 8004802:	e7f0      	b.n	80047e6 <SPI3_IRQHandler+0x16>
 8004804:	40003c00 	.word	0x40003c00
 8004808:	20000014 	.word	0x20000014
 800480c:	40007400 	.word	0x40007400

08004810 <TIM2_IRQHandler>:
TIM2_IRQHandler():
 8004810:	f04f 4380 	mov.w	r3, #1073741824	; 0x40000000
 8004814:	8a1a      	ldrh	r2, [r3, #16]
 8004816:	8999      	ldrh	r1, [r3, #12]
 8004818:	07d0      	lsls	r0, r2, #31
 800481a:	b289      	uxth	r1, r1
 800481c:	d501      	bpl.n	8004822 <TIM2_IRQHandler+0x12>
 800481e:	07ca      	lsls	r2, r1, #31
 8004820:	d400      	bmi.n	8004824 <TIM2_IRQHandler+0x14>
 8004822:	4770      	bx	lr
 8004824:	f64f 71fe 	movw	r1, #65534	; 0xfffe
 8004828:	4a07      	ldr	r2, [pc, #28]	; (8004848 <TIM2_IRQHandler+0x38>)
 800482a:	8219      	strh	r1, [r3, #16]
 800482c:	6811      	ldr	r1, [r2, #0]
 800482e:	b119      	cbz	r1, 8004838 <TIM2_IRQHandler+0x28>
 8004830:	6813      	ldr	r3, [r2, #0]
 8004832:	3b01      	subs	r3, #1
 8004834:	6013      	str	r3, [r2, #0]
 8004836:	4770      	bx	lr
 8004838:	881a      	ldrh	r2, [r3, #0]
 800483a:	f022 0201 	bic.w	r2, r2, #1
 800483e:	0412      	lsls	r2, r2, #16
 8004840:	0c12      	lsrs	r2, r2, #16
 8004842:	801a      	strh	r2, [r3, #0]
 8004844:	4770      	bx	lr
 8004846:	bf00      	nop
 8004848:	200004ec 	.word	0x200004ec

0800484c <USBH_USR_DeviceNotSupported>:
USBH_USR_DeviceNotSupported():
 800484c:	4b02      	ldr	r3, [pc, #8]	; (8004858 <USBH_USR_DeviceNotSupported+0xc>)
 800484e:	681b      	ldr	r3, [r3, #0]
 8004850:	f44f 5280 	mov.w	r2, #4096	; 0x1000
 8004854:	835a      	strh	r2, [r3, #26]
 8004856:	4770      	bx	lr
 8004858:	20000084 	.word	0x20000084

0800485c <EXTI1_IRQHandler>:
EXTI1_IRQHandler():
 800485c:	b510      	push	{r4, lr}
 800485e:	4c05      	ldr	r4, [pc, #20]	; (8004874 <EXTI1_IRQHandler+0x18>)
 8004860:	6963      	ldr	r3, [r4, #20]
 8004862:	079b      	lsls	r3, r3, #30
 8004864:	d505      	bpl.n	8004872 <EXTI1_IRQHandler+0x16>
 8004866:	4b04      	ldr	r3, [pc, #16]	; (8004878 <EXTI1_IRQHandler+0x1c>)
 8004868:	6e9b      	ldr	r3, [r3, #104]	; 0x68
 800486a:	695b      	ldr	r3, [r3, #20]
 800486c:	4798      	blx	r3
 800486e:	2302      	movs	r3, #2
 8004870:	6163      	str	r3, [r4, #20]
 8004872:	bd10      	pop	{r4, pc}
 8004874:	40013c00 	.word	0x40013c00
 8004878:	2000053c 	.word	0x2000053c

0800487c <USBH_SOF>:
USBH_SOF():
 800487c:	2000      	movs	r0, #0
 800487e:	4770      	bx	lr

08004880 <USBH_Disconnected>:
USBH_Disconnected():
 8004880:	2300      	movs	r3, #0
 8004882:	f8c0 3310 	str.w	r3, [r0, #784]	; 0x310
 8004886:	4618      	mov	r0, r3
 8004888:	4770      	bx	lr
 800488a:	bf00      	nop

0800488c <USBH_Connected>:
USBH_Connected():
 800488c:	2301      	movs	r3, #1
 800488e:	f8c0 3310 	str.w	r3, [r0, #784]	; 0x310
 8004892:	2000      	movs	r0, #0
 8004894:	4770      	bx	lr
 8004896:	bf00      	nop

08004898 <PendSV_Handler>:
PendSV_Handler():
 8004898:	4770      	bx	lr
 800489a:	bf00      	nop

0800489c <DebugMon_Handler>:
DebugMon_Handler():
 800489c:	4770      	bx	lr
 800489e:	bf00      	nop

080048a0 <SVC_Handler>:
SVC_Handler():
 80048a0:	4770      	bx	lr
 80048a2:	bf00      	nop

080048a4 <UsageFault_Handler>:
UsageFault_Handler():
 80048a4:	e7fe      	b.n	80048a4 <UsageFault_Handler>
 80048a6:	bf00      	nop

080048a8 <BusFault_Handler>:
BusFault_Handler():
 80048a8:	e7fe      	b.n	80048a8 <BusFault_Handler>
 80048aa:	bf00      	nop

080048ac <MemManage_Handler>:
MemManage_Handler():
 80048ac:	e7fe      	b.n	80048ac <MemManage_Handler>
 80048ae:	bf00      	nop

080048b0 <HardFault_Handler>:
HardFault_Handler():
 80048b0:	e7fe      	b.n	80048b0 <HardFault_Handler>
 80048b2:	bf00      	nop

080048b4 <NMI_Handler>:
NMI_Handler():
 80048b4:	4770      	bx	lr
 80048b6:	bf00      	nop

080048b8 <USBH_USR_MIDI_Application>:
USBH_USR_MIDI_Application():
 80048b8:	2000      	movs	r0, #0
 80048ba:	4770      	bx	lr

080048bc <USBH_USR_DeInit>:
USBH_USR_DeInit():
 80048bc:	4770      	bx	lr
 80048be:	bf00      	nop

080048c0 <USBH_USR_UserInput>:
USBH_USR_UserInput():
 80048c0:	2001      	movs	r0, #1
 80048c2:	4770      	bx	lr

080048c4 <USBH_USR_SerialNum_String>:
USBH_USR_SerialNum_String():
 80048c4:	4770      	bx	lr
 80048c6:	bf00      	nop

080048c8 <USBH_USR_Product_String>:
USBH_USR_Product_String():
 80048c8:	4770      	bx	lr
 80048ca:	bf00      	nop

080048cc <USBH_USR_Manufacturer_String>:
USBH_USR_Manufacturer_String():
 80048cc:	4770      	bx	lr
 80048ce:	bf00      	nop

080048d0 <USBH_USR_Configuration_DescAvailable>:
USBH_USR_Configuration_DescAvailable():
 80048d0:	4770      	bx	lr
 80048d2:	bf00      	nop

080048d4 <USBH_USR_DeviceAddressAssigned>:
USBH_USR_DeviceAddressAssigned():
 80048d4:	4770      	bx	lr
 80048d6:	bf00      	nop

080048d8 <USBH_USR_Device_DescAvailable>:
USBH_USR_Device_DescAvailable():
 80048d8:	4770      	bx	lr
 80048da:	bf00      	nop

080048dc <USBH_USR_DeviceSpeedDetected>:
USBH_USR_DeviceSpeedDetected():
 80048dc:	4770      	bx	lr
 80048de:	bf00      	nop

080048e0 <USBH_USR_ResetDevice>:
USBH_USR_ResetDevice():
 80048e0:	4770      	bx	lr
 80048e2:	bf00      	nop

080048e4 <USBH_USR_DeviceAttached>:
USBH_USR_DeviceAttached():
 80048e4:	4770      	bx	lr
 80048e6:	bf00      	nop

080048e8 <USBH_USR_Init>:
USBH_USR_Init():
 80048e8:	4770      	bx	lr
 80048ea:	bf00      	nop

080048ec <USBH_MIDI_ClassRequest.4167>:
USBH_MIDI_ClassRequest.4167():
 80048ec:	2000      	movs	r0, #0
 80048ee:	4770      	bx	lr

080048f0 <delay_read.4604>:
delay_read.4604():
 80048f0:	b510      	push	{r4, lr}
 80048f2:	eef1 7a08 	vmov.f32	s15, #24
 80048f6:	eeb4 0ae7 	vcmpe.f32	s0, s15
 80048fa:	eef1 fa10 	vmrs	APSR_nzcv, fpscr
 80048fe:	ed2d 8b02 	vpush	{d8}
 8004902:	4604      	mov	r4, r0
 8004904:	eeb0 8a40 	vmov.f32	s16, s0
 8004908:	d464      	bmi.n	80049d4 <delay_read.4604+0xe4>
 800490a:	eddf 7a34 	vldr	s15, [pc, #208]	; 80049dc <delay_read.4604+0xec>
 800490e:	eeb4 0a67 	vcmp.f32	s0, s15
 8004912:	eef1 fa10 	vmrs	APSR_nzcv, fpscr
 8004916:	bfc8      	it	gt
 8004918:	eeb0 8a67 	vmovgt.f32	s16, s15
 800491c:	eeb0 0a48 	vmov.f32	s0, s16
 8004920:	f005 fc8a 	bl	800a238 <floorf>
 8004924:	eebd 0ac0 	vcvt.s32.f32	s0, s0
 8004928:	68e3      	ldr	r3, [r4, #12]
 800492a:	ed9f 5a2d 	vldr	s10, [pc, #180]	; 80049e0 <delay_read.4604+0xf0>
 800492e:	ee10 2a10 	vmov	r2, s0
 8004932:	1a9b      	subs	r3, r3, r2
 8004934:	bf48      	it	mi
 8004936:	f503 63af 	addmi.w	r3, r3, #1400	; 0x578
 800493a:	eb04 0283 	add.w	r2, r4, r3, lsl #2
 800493e:	edd2 5a04 	vldr	s11, [r2, #16]
 8004942:	1e5a      	subs	r2, r3, #1
 8004944:	bf48      	it	mi
 8004946:	f203 5277 	addwmi	r2, r3, #1399	; 0x577
 800494a:	eb04 0382 	add.w	r3, r4, r2, lsl #2
 800494e:	eef8 7ac0 	vcvt.f32.s32	s15, s0
 8004952:	edd3 4a04 	vldr	s9, [r3, #16]
 8004956:	ed9f 0a23 	vldr	s0, [pc, #140]	; 80049e4 <delay_read.4604+0xf4>
 800495a:	1e53      	subs	r3, r2, #1
 800495c:	bf48      	it	mi
 800495e:	f202 5377 	addwmi	r3, r2, #1399	; 0x577
 8004962:	ee38 8a67 	vsub.f32	s16, s16, s15
 8004966:	eb04 0283 	add.w	r2, r4, r3, lsl #2
 800496a:	ed92 4a04 	vldr	s8, [r2, #16]
 800496e:	eef0 6a00 	vmov.f32	s13, #0
 8004972:	1e5a      	subs	r2, r3, #1
 8004974:	ee78 6a66 	vsub.f32	s13, s16, s13
 8004978:	bf48      	it	mi
 800497a:	f203 5277 	addwmi	r2, r3, #1399	; 0x577
 800497e:	eb04 0482 	add.w	r4, r4, r2, lsl #2
 8004982:	eeb0 7a08 	vmov.f32	s14, #8
 8004986:	ee38 7a47 	vsub.f32	s14, s16, s14
 800498a:	ee26 0a80 	vmul.f32	s0, s13, s0
 800498e:	ed94 3a04 	vldr	s6, [r4, #16]
 8004992:	eefe 3a00 	vmov.f32	s7, #224	; 0xe0
 8004996:	ee67 3a23 	vmul.f32	s7, s14, s7
 800499a:	ee20 0a03 	vmul.f32	s0, s0, s6
 800499e:	eeb7 6a00 	vmov.f32	s12, #112	; 0x70
 80049a2:	ee38 6a46 	vsub.f32	s12, s16, s12
 80049a6:	eef6 7a00 	vmov.f32	s15, #96	; 0x60
 80049aa:	eea3 0a84 	vfma.f32	s0, s7, s8
 80049ae:	ee68 7a27 	vmul.f32	s15, s16, s15
 80049b2:	ee28 8a06 	vmul.f32	s16, s16, s12
 80049b6:	ee26 5a05 	vmul.f32	s10, s12, s10
 80049ba:	ee67 7aa4 	vmul.f32	s15, s15, s9
 80049be:	ee28 0a00 	vmul.f32	s0, s16, s0
 80049c2:	ecbd 8b02 	vpop	{d8}
 80049c6:	eee5 7a25 	vfma.f32	s15, s10, s11
 80049ca:	ee26 7a87 	vmul.f32	s14, s13, s14
 80049ce:	eea7 0a27 	vfma.f32	s0, s14, s15
 80049d2:	bd10      	pop	{r4, pc}
 80049d4:	eeb0 8a67 	vmov.f32	s16, s15
 80049d8:	e7a0      	b.n	800491c <delay_read.4604+0x2c>
 80049da:	bf00      	nop
 80049dc:	44ae4000 	.word	0x44ae4000
 80049e0:	be2aaaab 	.word	0xbe2aaaab
 80049e4:	3e2aaaab 	.word	0x3e2aaaab

080049e8 <USB_OTG_ResetPort>:
USB_OTG_ResetPort():
 80049e8:	b4f0      	push	{r4, r5, r6, r7}
 80049ea:	f8d0 40cc 	ldr.w	r4, [r0, #204]	; 0xcc
 80049ee:	4b41      	ldr	r3, [pc, #260]	; (8004af4 <USB_OTG_ResetPort+0x10c>)
 80049f0:	6822      	ldr	r2, [r4, #0]
 80049f2:	f36f 0282 	bfc	r2, #2, #1
 80049f6:	f36f 0241 	bfc	r2, #1, #1
 80049fa:	f36f 02c3 	bfc	r2, #3, #1
 80049fe:	f36f 1245 	bfc	r2, #5, #1
 8004a02:	f442 7580 	orr.w	r5, r2, #256	; 0x100
 8004a06:	210a      	movs	r1, #10
 8004a08:	f04f 4280 	mov.w	r2, #1073741824	; 0x40000000
 8004a0c:	6025      	str	r5, [r4, #0]
 8004a0e:	6019      	str	r1, [r3, #0]
 8004a10:	8811      	ldrh	r1, [r2, #0]
 8004a12:	f021 0101 	bic.w	r1, r1, #1
 8004a16:	0409      	lsls	r1, r1, #16
 8004a18:	0c09      	lsrs	r1, r1, #16
 8004a1a:	8011      	strh	r1, [r2, #0]
 8004a1c:	8991      	ldrh	r1, [r2, #12]
 8004a1e:	f021 0101 	bic.w	r1, r1, #1
 8004a22:	0409      	lsls	r1, r1, #16
 8004a24:	0c09      	lsrs	r1, r1, #16
 8004a26:	8191      	strh	r1, [r2, #12]
 8004a28:	8811      	ldrh	r1, [r2, #0]
 8004a2a:	f421 715c 	bic.w	r1, r1, #880	; 0x370
 8004a2e:	0409      	lsls	r1, r1, #16
 8004a30:	2601      	movs	r6, #1
 8004a32:	0c09      	lsrs	r1, r1, #16
 8004a34:	f642 6cdf 	movw	ip, #11999	; 0x2edf
 8004a38:	2705      	movs	r7, #5
 8004a3a:	f64f 70fe 	movw	r0, #65534	; 0xfffe
 8004a3e:	8011      	strh	r1, [r2, #0]
 8004a40:	f8c2 c02c 	str.w	ip, [r2, #44]	; 0x2c
 8004a44:	8517      	strh	r7, [r2, #40]	; 0x28
 8004a46:	8296      	strh	r6, [r2, #20]
 8004a48:	8210      	strh	r0, [r2, #16]
 8004a4a:	8811      	ldrh	r1, [r2, #0]
 8004a4c:	b289      	uxth	r1, r1
 8004a4e:	f041 0180 	orr.w	r1, r1, #128	; 0x80
 8004a52:	8011      	strh	r1, [r2, #0]
 8004a54:	8991      	ldrh	r1, [r2, #12]
 8004a56:	b289      	uxth	r1, r1
 8004a58:	4331      	orrs	r1, r6
 8004a5a:	8191      	strh	r1, [r2, #12]
 8004a5c:	8811      	ldrh	r1, [r2, #0]
 8004a5e:	b289      	uxth	r1, r1
 8004a60:	4331      	orrs	r1, r6
 8004a62:	8011      	strh	r1, [r2, #0]
 8004a64:	681a      	ldr	r2, [r3, #0]
 8004a66:	4823      	ldr	r0, [pc, #140]	; (8004af4 <USB_OTG_ResetPort+0x10c>)
 8004a68:	2a00      	cmp	r2, #0
 8004a6a:	d1fb      	bne.n	8004a64 <USB_OTG_ResetPort+0x7c>
 8004a6c:	f04f 4180 	mov.w	r1, #1073741824	; 0x40000000
 8004a70:	f362 2508 	bfi	r5, r2, #8, #1
 8004a74:	880a      	ldrh	r2, [r1, #0]
 8004a76:	f022 0201 	bic.w	r2, r2, #1
 8004a7a:	0412      	lsls	r2, r2, #16
 8004a7c:	0c12      	lsrs	r2, r2, #16
 8004a7e:	2614      	movs	r6, #20
 8004a80:	800a      	strh	r2, [r1, #0]
 8004a82:	6025      	str	r5, [r4, #0]
 8004a84:	6006      	str	r6, [r0, #0]
 8004a86:	880a      	ldrh	r2, [r1, #0]
 8004a88:	f022 0201 	bic.w	r2, r2, #1
 8004a8c:	0412      	lsls	r2, r2, #16
 8004a8e:	0c12      	lsrs	r2, r2, #16
 8004a90:	800a      	strh	r2, [r1, #0]
 8004a92:	898a      	ldrh	r2, [r1, #12]
 8004a94:	f022 0201 	bic.w	r2, r2, #1
 8004a98:	0412      	lsls	r2, r2, #16
 8004a9a:	0c12      	lsrs	r2, r2, #16
 8004a9c:	818a      	strh	r2, [r1, #12]
 8004a9e:	880a      	ldrh	r2, [r1, #0]
 8004aa0:	f422 725c 	bic.w	r2, r2, #880	; 0x370
 8004aa4:	0412      	lsls	r2, r2, #16
 8004aa6:	2401      	movs	r4, #1
 8004aa8:	0c12      	lsrs	r2, r2, #16
 8004aaa:	f642 66df 	movw	r6, #11999	; 0x2edf
 8004aae:	2505      	movs	r5, #5
 8004ab0:	f64f 70fe 	movw	r0, #65534	; 0xfffe
 8004ab4:	800a      	strh	r2, [r1, #0]
 8004ab6:	62ce      	str	r6, [r1, #44]	; 0x2c
 8004ab8:	850d      	strh	r5, [r1, #40]	; 0x28
 8004aba:	828c      	strh	r4, [r1, #20]
 8004abc:	8208      	strh	r0, [r1, #16]
 8004abe:	880a      	ldrh	r2, [r1, #0]
 8004ac0:	b292      	uxth	r2, r2
 8004ac2:	f042 0280 	orr.w	r2, r2, #128	; 0x80
 8004ac6:	800a      	strh	r2, [r1, #0]
 8004ac8:	898a      	ldrh	r2, [r1, #12]
 8004aca:	b292      	uxth	r2, r2
 8004acc:	4322      	orrs	r2, r4
 8004ace:	818a      	strh	r2, [r1, #12]
 8004ad0:	880a      	ldrh	r2, [r1, #0]
 8004ad2:	b292      	uxth	r2, r2
 8004ad4:	4322      	orrs	r2, r4
 8004ad6:	800a      	strh	r2, [r1, #0]
 8004ad8:	681a      	ldr	r2, [r3, #0]
 8004ada:	2a00      	cmp	r2, #0
 8004adc:	d1fc      	bne.n	8004ad8 <USB_OTG_ResetPort+0xf0>
 8004ade:	f04f 4280 	mov.w	r2, #1073741824	; 0x40000000
 8004ae2:	2001      	movs	r0, #1
 8004ae4:	8813      	ldrh	r3, [r2, #0]
 8004ae6:	f023 0301 	bic.w	r3, r3, #1
 8004aea:	041b      	lsls	r3, r3, #16
 8004aec:	0c1b      	lsrs	r3, r3, #16
 8004aee:	8013      	strh	r3, [r2, #0]
 8004af0:	bcf0      	pop	{r4, r5, r6, r7}
 8004af2:	4770      	bx	lr
 8004af4:	200004ec 	.word	0x200004ec

08004af8 <BSP_Delay.4435>:
BSP_Delay.4435():
 8004af8:	4a22      	ldr	r2, [pc, #136]	; (8004b84 <BSP_Delay.4435+0x8c>)
 8004afa:	b470      	push	{r4, r5, r6}
 8004afc:	f04f 4480 	mov.w	r4, #1073741824	; 0x40000000
 8004b00:	6010      	str	r0, [r2, #0]
 8004b02:	8823      	ldrh	r3, [r4, #0]
 8004b04:	f023 0301 	bic.w	r3, r3, #1
 8004b08:	041b      	lsls	r3, r3, #16
 8004b0a:	0c1b      	lsrs	r3, r3, #16
 8004b0c:	8023      	strh	r3, [r4, #0]
 8004b0e:	89a3      	ldrh	r3, [r4, #12]
 8004b10:	f023 0301 	bic.w	r3, r3, #1
 8004b14:	041b      	lsls	r3, r3, #16
 8004b16:	0c1b      	lsrs	r3, r3, #16
 8004b18:	2902      	cmp	r1, #2
 8004b1a:	81a3      	strh	r3, [r4, #12]
 8004b1c:	d02f      	beq.n	8004b7e <BSP_Delay.4435+0x86>
 8004b1e:	f642 63df 	movw	r3, #11999	; 0x2edf
 8004b22:	2901      	cmp	r1, #1
 8004b24:	bf0c      	ite	eq
 8004b26:	4619      	moveq	r1, r3
 8004b28:	2100      	movne	r1, #0
 8004b2a:	f04f 4380 	mov.w	r3, #1073741824	; 0x40000000
 8004b2e:	2501      	movs	r5, #1
 8004b30:	8818      	ldrh	r0, [r3, #0]
 8004b32:	f420 705c 	bic.w	r0, r0, #880	; 0x370
 8004b36:	0400      	lsls	r0, r0, #16
 8004b38:	2605      	movs	r6, #5
 8004b3a:	0c00      	lsrs	r0, r0, #16
 8004b3c:	f64f 74fe 	movw	r4, #65534	; 0xfffe
 8004b40:	8018      	strh	r0, [r3, #0]
 8004b42:	62d9      	str	r1, [r3, #44]	; 0x2c
 8004b44:	851e      	strh	r6, [r3, #40]	; 0x28
 8004b46:	829d      	strh	r5, [r3, #20]
 8004b48:	821c      	strh	r4, [r3, #16]
 8004b4a:	8819      	ldrh	r1, [r3, #0]
 8004b4c:	b289      	uxth	r1, r1
 8004b4e:	f041 0180 	orr.w	r1, r1, #128	; 0x80
 8004b52:	8019      	strh	r1, [r3, #0]
 8004b54:	8999      	ldrh	r1, [r3, #12]
 8004b56:	b289      	uxth	r1, r1
 8004b58:	4329      	orrs	r1, r5
 8004b5a:	8199      	strh	r1, [r3, #12]
 8004b5c:	8819      	ldrh	r1, [r3, #0]
 8004b5e:	b289      	uxth	r1, r1
 8004b60:	4329      	orrs	r1, r5
 8004b62:	8019      	strh	r1, [r3, #0]
 8004b64:	6813      	ldr	r3, [r2, #0]
 8004b66:	2b00      	cmp	r3, #0
 8004b68:	d1fc      	bne.n	8004b64 <BSP_Delay.4435+0x6c>
 8004b6a:	f04f 4280 	mov.w	r2, #1073741824	; 0x40000000
 8004b6e:	bc70      	pop	{r4, r5, r6}
 8004b70:	8813      	ldrh	r3, [r2, #0]
 8004b72:	f023 0301 	bic.w	r3, r3, #1
 8004b76:	041b      	lsls	r3, r3, #16
 8004b78:	0c1b      	lsrs	r3, r3, #16
 8004b7a:	8013      	strh	r3, [r2, #0]
 8004b7c:	4770      	bx	lr
 8004b7e:	210b      	movs	r1, #11
 8004b80:	e7d3      	b.n	8004b2a <BSP_Delay.4435+0x32>
 8004b82:	bf00      	nop
 8004b84:	200004ec 	.word	0x200004ec

08004b88 <SVF_calcSample>:
SVF_calcSample():
 8004b88:	ed90 3a06 	vldr	s6, [r0, #24]
 8004b8c:	edd0 6a01 	vldr	s13, [r0, #4]
 8004b90:	ed9f 7a85 	vldr	s14, [pc, #532]	; 8004da8 <SVF_calcSample+0x220>
 8004b94:	ed9f 2a85 	vldr	s4, [pc, #532]	; 8004dac <SVF_calcSample+0x224>
 8004b98:	eddf 2a85 	vldr	s5, [pc, #532]	; 8004db0 <SVF_calcSample+0x228>
 8004b9c:	ed90 6a04 	vldr	s12, [r0, #16]
 8004ba0:	edd0 3a05 	vldr	s7, [r0, #20]
 8004ba4:	edd0 7a02 	vldr	s15, [r0, #8]
 8004ba8:	7803      	ldrb	r3, [r0, #0]
 8004baa:	ee20 3a03 	vmul.f32	s6, s0, s6
 8004bae:	eeb6 4a00 	vmov.f32	s8, #96	; 0x60
 8004bb2:	eef4 6ac7 	vcmpe.f32	s13, s14
 8004bb6:	ee63 6a04 	vmul.f32	s13, s6, s8
 8004bba:	eef2 1a0e 	vmov.f32	s3, #46	; 0x2e
 8004bbe:	ee66 6aa6 	vmul.f32	s13, s13, s13
 8004bc2:	eef0 5a42 	vmov.f32	s11, s4
 8004bc6:	eee6 5aa1 	vfma.f32	s11, s13, s3
 8004bca:	3b01      	subs	r3, #1
 8004bcc:	ed9f 7a79 	vldr	s14, [pc, #484]	; 8004db4 <SVF_calcSample+0x22c>
 8004bd0:	ed2d 8b02 	vpush	{d8}
 8004bd4:	eef0 8a47 	vmov.f32	s17, s14
 8004bd8:	eee6 8aa5 	vfma.f32	s17, s13, s11
 8004bdc:	ee76 4aa2 	vadd.f32	s9, s13, s5
 8004be0:	eef0 5a68 	vmov.f32	s11, s17
 8004be4:	eef0 8a47 	vmov.f32	s17, s14
 8004be8:	eee6 8aa4 	vfma.f32	s17, s13, s9
 8004bec:	eef1 fa10 	vmrs	APSR_nzcv, fpscr
 8004bf0:	eec8 5aa5 	vdiv.f32	s11, s17, s11
 8004bf4:	bfb8      	it	lt
 8004bf6:	ed90 1a03 	vldrlt	s2, [r0, #12]
 8004bfa:	ed90 8a07 	vldr	s16, [r0, #28]
 8004bfe:	ee63 5a25 	vmul.f32	s11, s6, s11
 8004c02:	bfb4      	ite	lt
 8004c04:	ee71 0a01 	vaddlt.f32	s1, s2, s2
 8004c08:	eef0 0a00 	vmovge.f32	s1, #0
 8004c0c:	ee35 8a88 	vadd.f32	s16, s11, s16
 8004c10:	ee20 5ac6 	vnmul.f32	s10, s1, s12
 8004c14:	ee66 4a04 	vmul.f32	s9, s12, s8
 8004c18:	eea8 5a04 	vfma.f32	s10, s16, s8
 8004c1c:	ee64 4aa4 	vmul.f32	s9, s9, s9
 8004c20:	ee35 5a63 	vsub.f32	s10, s10, s7
 8004c24:	eef0 6a42 	vmov.f32	s13, s4
 8004c28:	ee25 5a04 	vmul.f32	s10, s10, s8
 8004c2c:	eee4 6aa1 	vfma.f32	s13, s9, s3
 8004c30:	ee25 5a05 	vmul.f32	s10, s10, s10
 8004c34:	ee34 8aa2 	vadd.f32	s16, s9, s5
 8004c38:	eea5 2a21 	vfma.f32	s4, s10, s3
 8004c3c:	ee75 2a22 	vadd.f32	s5, s10, s5
 8004c40:	eef0 8a47 	vmov.f32	s17, s14
 8004c44:	eeb0 4a47 	vmov.f32	s8, s14
 8004c48:	eea4 4aa6 	vfma.f32	s8, s9, s13
 8004c4c:	eee4 8a88 	vfma.f32	s17, s9, s16
 8004c50:	eef0 4a47 	vmov.f32	s9, s14
 8004c54:	eee5 4a02 	vfma.f32	s9, s10, s4
 8004c58:	eea5 7a22 	vfma.f32	s14, s10, s5
 8004c5c:	eeb7 3a00 	vmov.f32	s6, #112	; 0x70
 8004c60:	ee87 7a24 	vdiv.f32	s14, s14, s9
 8004c64:	bfa8      	it	ge
 8004c66:	eeb7 1a00 	vmovge.f32	s2, #112	; 0x70
 8004c6a:	ee27 5a87 	vmul.f32	s10, s15, s14
 8004c6e:	eef0 4a43 	vmov.f32	s9, s6
 8004c72:	ee35 5a05 	vadd.f32	s10, s10, s10
 8004c76:	eec8 6a84 	vdiv.f32	s13, s17, s8
 8004c7a:	eee1 4a05 	vfma.f32	s9, s2, s10
 8004c7e:	ee67 2aa7 	vmul.f32	s5, s15, s15
 8004c82:	ee83 5a24 	vdiv.f32	s10, s6, s9
 8004c86:	ee77 1a07 	vadd.f32	s3, s14, s14
 8004c8a:	ee62 2a85 	vmul.f32	s5, s5, s10
 8004c8e:	eef0 4a63 	vmov.f32	s9, s7
 8004c92:	ee62 2a87 	vmul.f32	s5, s5, s14
 8004c96:	ee61 1ac1 	vnmul.f32	s3, s3, s2
 8004c9a:	ee62 2aa6 	vmul.f32	s5, s5, s13
 8004c9e:	ee27 1a85 	vmul.f32	s2, s15, s10
 8004ca2:	eee2 4aa5 	vfma.f32	s9, s5, s11
 8004ca6:	ee21 1a26 	vmul.f32	s2, s2, s13
 8004caa:	ee32 3a83 	vadd.f32	s6, s5, s6
 8004cae:	eee6 4a01 	vfma.f32	s9, s12, s2
 8004cb2:	ee37 4aa7 	vadd.f32	s8, s15, s15
 8004cb6:	eec4 4a83 	vdiv.f32	s9, s9, s6
 8004cba:	ee24 2a26 	vmul.f32	s4, s8, s13
 8004cbe:	ee35 3ae4 	vsub.f32	s6, s11, s9
 8004cc2:	edc0 5a07 	vstr	s11, [r0, #28]
 8004cc6:	ee23 7a07 	vmul.f32	s14, s6, s14
 8004cca:	ee67 7a87 	vmul.f32	s15, s15, s14
 8004cce:	eee6 7a26 	vfma.f32	s15, s12, s13
 8004cd2:	ee67 7a85 	vmul.f32	s15, s15, s10
 8004cd6:	eea1 7aa7 	vfma.f32	s14, s3, s15
 8004cda:	eee2 3a27 	vfma.f32	s7, s4, s15
 8004cde:	ee24 7a07 	vmul.f32	s14, s8, s14
 8004ce2:	edc0 3a05 	vstr	s7, [r0, #20]
 8004ce6:	eea6 7a26 	vfma.f32	s14, s12, s13
 8004cea:	ed80 7a04 	vstr	s14, [r0, #16]
 8004cee:	2b04      	cmp	r3, #4
 8004cf0:	d81c      	bhi.n	8004d2c <SVF_calcSample+0x1a4>
 8004cf2:	e8df f003 	tbb	[pc, r3]
 8004cf6:	3e03      	.short	0x3e03
 8004cf8:	4c47      	.short	0x4c47
 8004cfa:	33          	.byte	0x33
 8004cfb:	00          	.byte	0x00
 8004cfc:	eddf 7a2e 	vldr	s15, [pc, #184]	; 8004db8 <SVF_calcSample+0x230>
 8004d00:	eef4 4ae7 	vcmpe.f32	s9, s15
 8004d04:	eef1 fa10 	vmrs	APSR_nzcv, fpscr
 8004d08:	d448      	bmi.n	8004d9c <SVF_calcSample+0x214>
 8004d0a:	eddf 7a2c 	vldr	s15, [pc, #176]	; 8004dbc <SVF_calcSample+0x234>
 8004d0e:	eef4 4ae7 	vcmpe.f32	s9, s15
 8004d12:	eef1 fa10 	vmrs	APSR_nzcv, fpscr
 8004d16:	dc44      	bgt.n	8004da2 <SVF_calcSample+0x21a>
 8004d18:	eddf 7a29 	vldr	s15, [pc, #164]	; 8004dc0 <SVF_calcSample+0x238>
 8004d1c:	ed9f 0a29 	vldr	s0, [pc, #164]	; 8004dc4 <SVF_calcSample+0x23c>
 8004d20:	eee4 7aa4 	vfma.f32	s15, s9, s9
 8004d24:	ee64 4a80 	vmul.f32	s9, s9, s0
 8004d28:	ee84 0aa7 	vdiv.f32	s0, s9, s15
 8004d2c:	eef7 7a00 	vmov.f32	s15, #112	; 0x70
 8004d30:	eeb4 0ae7 	vcmpe.f32	s0, s15
 8004d34:	eef1 fa10 	vmrs	APSR_nzcv, fpscr
 8004d38:	dd04      	ble.n	8004d44 <SVF_calcSample+0x1bc>
 8004d3a:	eeb0 0a67 	vmov.f32	s0, s15
 8004d3e:	ecbd 8b02 	vpop	{d8}
 8004d42:	4770      	bx	lr
 8004d44:	eeff 7a00 	vmov.f32	s15, #240	; 0xf0
 8004d48:	eeb4 0a67 	vcmp.f32	s0, s15
 8004d4c:	eef1 fa10 	vmrs	APSR_nzcv, fpscr
 8004d50:	bf48      	it	mi
 8004d52:	eeb0 0a67 	vmovmi.f32	s0, s15
 8004d56:	ecbd 8b02 	vpop	{d8}
 8004d5a:	4770      	bx	lr
 8004d5c:	eee7 5ae0 	vfms.f32	s11, s15, s1
 8004d60:	eddf 7a19 	vldr	s15, [pc, #100]	; 8004dc8 <SVF_calcSample+0x240>
 8004d64:	ee75 5ae4 	vsub.f32	s11, s11, s9
 8004d68:	ee74 4ae5 	vsub.f32	s9, s9, s11
 8004d6c:	ee24 0aa7 	vmul.f32	s0, s9, s15
 8004d70:	e7dc      	b.n	8004d2c <SVF_calcSample+0x1a4>
 8004d72:	eee7 5ae0 	vfms.f32	s11, s15, s1
 8004d76:	eddf 7a14 	vldr	s15, [pc, #80]	; 8004dc8 <SVF_calcSample+0x240>
 8004d7a:	ee75 4ae4 	vsub.f32	s9, s11, s9
 8004d7e:	ee24 0aa7 	vmul.f32	s0, s9, s15
 8004d82:	e7d3      	b.n	8004d2c <SVF_calcSample+0x1a4>
 8004d84:	ed9f 0a10 	vldr	s0, [pc, #64]	; 8004dc8 <SVF_calcSample+0x240>
 8004d88:	ee27 0a80 	vmul.f32	s0, s15, s0
 8004d8c:	e7ce      	b.n	8004d2c <SVF_calcSample+0x1a4>
 8004d8e:	eee7 5ae0 	vfms.f32	s11, s15, s1
 8004d92:	eddf 7a0d 	vldr	s15, [pc, #52]	; 8004dc8 <SVF_calcSample+0x240>
 8004d96:	ee25 0aa7 	vmul.f32	s0, s11, s15
 8004d9a:	e7c7      	b.n	8004d2c <SVF_calcSample+0x1a4>
 8004d9c:	eebf 0a00 	vmov.f32	s0, #240	; 0xf0
 8004da0:	e7c4      	b.n	8004d2c <SVF_calcSample+0x1a4>
 8004da2:	eeb7 0a00 	vmov.f32	s0, #112	; 0x70
 8004da6:	e7c1      	b.n	8004d2c <SVF_calcSample+0x1a4>
 8004da8:	3ee6594b 	.word	0x3ee6594b
 8004dac:	43d20000 	.word	0x43d20000
 8004db0:	42d20000 	.word	0x42d20000
 8004db4:	446c4000 	.word	0x446c4000
 8004db8:	bff9999a 	.word	0xbff9999a
 8004dbc:	3ff9999a 	.word	0x3ff9999a
 8004dc0:	408947ae 	.word	0x408947ae
 8004dc4:	4084cccd 	.word	0x4084cccd
 8004dc8:	3f6147ae 	.word	0x3f6147ae

08004dcc <drifter_newSegment>:
drifter_newSegment():
 8004dcc:	b510      	push	{r4, lr}
 8004dce:	eddf 7a23 	vldr	s15, [pc, #140]	; 8004e5c <drifter_newSegment+0x90>
 8004dd2:	6a03      	ldr	r3, [r0, #32]
 8004dd4:	ed2d 8b04 	vpush	{d8-d9}
 8004dd8:	ed90 8a00 	vldr	s16, [r0]
 8004ddc:	ed90 9a01 	vldr	s18, [r0, #4]
 8004de0:	61c3      	str	r3, [r0, #28]
 8004de2:	ee87 8a88 	vdiv.f32	s16, s15, s16
 8004de6:	2300      	movs	r3, #0
 8004de8:	6183      	str	r3, [r0, #24]
 8004dea:	4604      	mov	r4, r0
 8004dec:	ee87 9a89 	vdiv.f32	s18, s15, s18
 8004df0:	ed80 8a03 	vstr	s16, [r0, #12]
 8004df4:	ed80 9a04 	vstr	s18, [r0, #16]
 8004df8:	f007 fb0e 	bl	800c418 <rand>
 8004dfc:	ee06 0a90 	vmov	s13, r0
 8004e00:	eddf 8a17 	vldr	s17, [pc, #92]	; 8004e60 <drifter_newSegment+0x94>
 8004e04:	eef8 7ae6 	vcvt.f32.s32	s15, s13
 8004e08:	ee39 9a48 	vsub.f32	s18, s18, s16
 8004e0c:	ee67 7aa8 	vmul.f32	s15, s15, s17
 8004e10:	eea7 8a89 	vfma.f32	s16, s15, s18
 8004e14:	eebc 8ac8 	vcvt.u32.f32	s16, s16
 8004e18:	ed84 8a05 	vstr	s16, [r4, #20]
 8004e1c:	f007 fafc 	bl	800c418 <rand>
 8004e20:	ee07 0a10 	vmov	s14, r0
 8004e24:	eef8 7ac7 	vcvt.f32.s32	s15, s14
 8004e28:	eeb0 7a00 	vmov.f32	s14, #0
 8004e2c:	ee67 8aa8 	vmul.f32	s17, s15, s17
 8004e30:	eeff 7a00 	vmov.f32	s15, #240	; 0xf0
 8004e34:	eee8 7a87 	vfma.f32	s15, s17, s14
 8004e38:	ecbd 8b04 	vpop	{d8-d9}
 8004e3c:	ed94 7a07 	vldr	s14, [r4, #28]
 8004e40:	edd4 6a05 	vldr	s13, [r4, #20]
 8004e44:	edc4 7a08 	vstr	s15, [r4, #32]
 8004e48:	ee77 7ac7 	vsub.f32	s15, s15, s14
 8004e4c:	eeb8 7a66 	vcvt.f32.u32	s14, s13
 8004e50:	eec7 7a87 	vdiv.f32	s15, s15, s14
 8004e54:	edc4 7a09 	vstr	s15, [r4, #36]	; 0x24
 8004e58:	bd10      	pop	{r4, pc}
 8004e5a:	bf00      	nop
 8004e5c:	46bb8000 	.word	0x46bb8000
 8004e60:	30000000 	.word	0x30000000

08004e64 <seq_sequence_new>:
seq_sequence_new():
 8004e64:	b5f8      	push	{r3, r4, r5, r6, r7, lr}
 8004e66:	4c29      	ldr	r4, [pc, #164]	; (8004f0c <seq_sequence_new+0xa8>)
 8004e68:	4d29      	ldr	r5, [pc, #164]	; (8004f10 <seq_sequence_new+0xac>)
 8004e6a:	ed2d 8b04 	vpush	{d8-d9}
 8004e6e:	eddf 8a29 	vldr	s17, [pc, #164]	; 8004f14 <seq_sequence_new+0xb0>
 8004e72:	eddf 9a29 	vldr	s19, [pc, #164]	; 8004f18 <seq_sequence_new+0xb4>
 8004e76:	f104 0711 	add.w	r7, r4, #17
 8004e7a:	eeb7 8a00 	vmov.f32	s16, #112	; 0x70
 8004e7e:	686e      	ldr	r6, [r5, #4]
 8004e80:	7833      	ldrb	r3, [r6, #0]
 8004e82:	ee09 3a10 	vmov	s18, r3
 8004e86:	f007 fac7 	bl	800c418 <rand>
 8004e8a:	ee07 0a10 	vmov	s14, r0
 8004e8e:	eeb8 9a49 	vcvt.f32.u32	s18, s18
 8004e92:	eef8 7ac7 	vcvt.f32.s32	s15, s14
 8004e96:	ee39 9a48 	vsub.f32	s18, s18, s16
 8004e9a:	ee67 7aa8 	vmul.f32	s15, s15, s17
 8004e9e:	eeb0 0a48 	vmov.f32	s0, s16
 8004ea2:	eea7 0a89 	vfma.f32	s0, s15, s18
 8004ea6:	f005 fa17 	bl	800a2d8 <lrintf>
 8004eaa:	7a2b      	ldrb	r3, [r5, #8]
 8004eac:	5c36      	ldrb	r6, [r6, r0]
 8004eae:	ee09 3a10 	vmov	s18, r3
 8004eb2:	f007 fab1 	bl	800c418 <rand>
 8004eb6:	ee07 0a10 	vmov	s14, r0
 8004eba:	eef8 7ac7 	vcvt.f32.s32	s15, s14
 8004ebe:	eeb8 9a49 	vcvt.f32.u32	s18, s18
 8004ec2:	ee67 7aa8 	vmul.f32	s15, s15, s17
 8004ec6:	eeb0 0a69 	vmov.f32	s0, s19
 8004eca:	eea9 0a27 	vfma.f32	s0, s18, s15
 8004ece:	f005 fa03 	bl	800a2d8 <lrintf>
 8004ed2:	7a6a      	ldrb	r2, [r5, #9]
 8004ed4:	eb00 0040 	add.w	r0, r0, r0, lsl #1
 8004ed8:	3a15      	subs	r2, #21
 8004eda:	eb02 0380 	add.w	r3, r2, r0, lsl #2
 8004ede:	4433      	add	r3, r6
 8004ee0:	b29b      	uxth	r3, r3
 8004ee2:	b21a      	sxth	r2, r3
 8004ee4:	2a6a      	cmp	r2, #106	; 0x6a
 8004ee6:	dd04      	ble.n	8004ef2 <seq_sequence_new+0x8e>
 8004ee8:	3b0c      	subs	r3, #12
 8004eea:	b29b      	uxth	r3, r3
 8004eec:	b21a      	sxth	r2, r3
 8004eee:	2a6a      	cmp	r2, #106	; 0x6a
 8004ef0:	dcfa      	bgt.n	8004ee8 <seq_sequence_new+0x84>
 8004ef2:	2a00      	cmp	r2, #0
 8004ef4:	da03      	bge.n	8004efe <seq_sequence_new+0x9a>
 8004ef6:	330c      	adds	r3, #12
 8004ef8:	b29b      	uxth	r3, r3
 8004efa:	041a      	lsls	r2, r3, #16
 8004efc:	d4fb      	bmi.n	8004ef6 <seq_sequence_new+0x92>
 8004efe:	f804 3f01 	strb.w	r3, [r4, #1]!
 8004f02:	42bc      	cmp	r4, r7
 8004f04:	d1bb      	bne.n	8004e7e <seq_sequence_new+0x1a>
 8004f06:	ecbd 8b04 	vpop	{d8-d9}
 8004f0a:	bdf8      	pop	{r3, r4, r5, r6, r7, pc}
 8004f0c:	200004ef 	.word	0x200004ef
 8004f10:	2000052c 	.word	0x2000052c
 8004f14:	30000000 	.word	0x30000000
 8004f18:	00000000 	.word	0x00000000

08004f1c <USB_OTG_CoreReset.7279.constprop.10>:
USB_OTG_CoreReset.7279.constprop.10():
 8004f1c:	b530      	push	{r4, r5, lr}
 8004f1e:	b083      	sub	sp, #12
 8004f20:	2300      	movs	r3, #0
 8004f22:	4c12      	ldr	r4, [pc, #72]	; (8004f6c <USB_OTG_CoreReset.7279.constprop.10+0x50>)
 8004f24:	4d12      	ldr	r5, [pc, #72]	; (8004f70 <USB_OTG_CoreReset.7279.constprop.10+0x54>)
 8004f26:	9301      	str	r3, [sp, #4]
 8004f28:	2003      	movs	r0, #3
 8004f2a:	2102      	movs	r1, #2
 8004f2c:	f7ff fde4 	bl	8004af8 <BSP_Delay.4435>
 8004f30:	68eb      	ldr	r3, [r5, #12]
 8004f32:	3c01      	subs	r4, #1
 8004f34:	691a      	ldr	r2, [r3, #16]
 8004f36:	9201      	str	r2, [sp, #4]
 8004f38:	d014      	beq.n	8004f64 <USB_OTG_CoreReset.7279.constprop.10+0x48>
 8004f3a:	9a01      	ldr	r2, [sp, #4]
 8004f3c:	2a00      	cmp	r2, #0
 8004f3e:	daf3      	bge.n	8004f28 <USB_OTG_CoreReset.7279.constprop.10+0xc>
 8004f40:	9901      	ldr	r1, [sp, #4]
 8004f42:	4a0a      	ldr	r2, [pc, #40]	; (8004f6c <USB_OTG_CoreReset.7279.constprop.10+0x50>)
 8004f44:	f041 0101 	orr.w	r1, r1, #1
 8004f48:	9101      	str	r1, [sp, #4]
 8004f4a:	9901      	ldr	r1, [sp, #4]
 8004f4c:	6119      	str	r1, [r3, #16]
 8004f4e:	6919      	ldr	r1, [r3, #16]
 8004f50:	9101      	str	r1, [sp, #4]
 8004f52:	3a01      	subs	r2, #1
 8004f54:	d002      	beq.n	8004f5c <USB_OTG_CoreReset.7279.constprop.10+0x40>
 8004f56:	9901      	ldr	r1, [sp, #4]
 8004f58:	07c9      	lsls	r1, r1, #31
 8004f5a:	d4f8      	bmi.n	8004f4e <USB_OTG_CoreReset.7279.constprop.10+0x32>
 8004f5c:	2003      	movs	r0, #3
 8004f5e:	2102      	movs	r1, #2
 8004f60:	f7ff fdca 	bl	8004af8 <BSP_Delay.4435>
 8004f64:	2000      	movs	r0, #0
 8004f66:	b003      	add	sp, #12
 8004f68:	bd30      	pop	{r4, r5, pc}
 8004f6a:	bf00      	nop
 8004f6c:	00030d41 	.word	0x00030d41
 8004f70:	20014d90 	.word	0x20014d90

08004f74 <USB_OTG_HC_StartXfer.constprop.106>:
USB_OTG_HC_StartXfer.constprop.106():
 8004f74:	4b4b      	ldr	r3, [pc, #300]	; (80050a4 <USB_OTG_HC_StartXfer.constprop.106+0x130>)
 8004f76:	e92d 03f0 	stmdb	sp!, {r4, r5, r6, r7, r8, r9}
 8004f7a:	0145      	lsls	r5, r0, #5
 8004f7c:	195c      	adds	r4, r3, r5
 8004f7e:	b086      	sub	sp, #24
 8004f80:	f8d4 13bc 	ldr.w	r1, [r4, #956]	; 0x3bc
 8004f84:	2200      	movs	r2, #0
 8004f86:	b181      	cbz	r1, 8004faa <USB_OTG_HC_StartXfer.constprop.106+0x36>
 8004f88:	f8b4 63b2 	ldrh.w	r6, [r4, #946]	; 0x3b2
 8004f8c:	1e4f      	subs	r7, r1, #1
 8004f8e:	4437      	add	r7, r6
 8004f90:	fbb7 f7f6 	udiv	r7, r7, r6
 8004f94:	b2bf      	uxth	r7, r7
 8004f96:	f5b7 7f80 	cmp.w	r7, #256	; 0x100
 8004f9a:	d971      	bls.n	8005080 <USB_OTG_HC_StartXfer.constprop.106+0x10c>
 8004f9c:	0231      	lsls	r1, r6, #8
 8004f9e:	f44f 7680 	mov.w	r6, #256	; 0x100
 8004fa2:	f8c4 13bc 	str.w	r1, [r4, #956]	; 0x3bc
 8004fa6:	4637      	mov	r7, r6
 8004fa8:	e001      	b.n	8004fae <USB_OTG_HC_StartXfer.constprop.106+0x3a>
 8004faa:	2601      	movs	r6, #1
 8004fac:	4637      	mov	r7, r6
 8004fae:	195c      	adds	r4, r3, r5
 8004fb0:	f894 83ae 	ldrb.w	r8, [r4, #942]	; 0x3ae
 8004fb4:	f1b8 0f00 	cmp.w	r8, #0
 8004fb8:	d005      	beq.n	8004fc6 <USB_OTG_HC_StartXfer.constprop.106+0x52>
 8004fba:	f8b4 13b2 	ldrh.w	r1, [r4, #946]	; 0x3b2
 8004fbe:	fb01 f107 	mul.w	r1, r1, r7
 8004fc2:	f8c4 13bc 	str.w	r1, [r4, #956]	; 0x3bc
 8004fc6:	f100 0c15 	add.w	ip, r0, #21
 8004fca:	eb03 174c 	add.w	r7, r3, ip, lsl #5
 8004fce:	eb03 0480 	add.w	r4, r3, r0, lsl #2
 8004fd2:	f897 9114 	ldrb.w	r9, [r7, #276]	; 0x114
 8004fd6:	f893 8003 	ldrb.w	r8, [r3, #3]
 8004fda:	f8d4 4090 	ldr.w	r4, [r4, #144]	; 0x90
 8004fde:	f361 0212 	bfi	r2, r1, #0, #19
 8004fe2:	f366 42dc 	bfi	r2, r6, #19, #10
 8004fe6:	f369 725e 	bfi	r2, r9, #29, #2
 8004fea:	f1b8 0f01 	cmp.w	r8, #1
 8004fee:	6122      	str	r2, [r4, #16]
 8004ff0:	695e      	ldr	r6, [r3, #20]
 8004ff2:	bf04      	itt	eq
 8004ff4:	f8d7 2118 	ldreq.w	r2, [r7, #280]	; 0x118
 8004ff8:	6162      	streq	r2, [r4, #20]
 8004ffa:	6822      	ldr	r2, [r4, #0]
 8004ffc:	68b7      	ldr	r7, [r6, #8]
 8004ffe:	f8df 80a4 	ldr.w	r8, [pc, #164]	; 80050a4 <USB_OTG_HC_StartXfer.constprop.106+0x130>
 8005002:	f007 0701 	and.w	r7, r7, #1
 8005006:	f087 0701 	eor.w	r7, r7, #1
 800500a:	f367 725d 	bfi	r2, r7, #29, #1
 800500e:	f042 4200 	orr.w	r2, r2, #2147483648	; 0x80000000
 8005012:	f36f 729e 	bfc	r2, #30, #1
 8005016:	6022      	str	r2, [r4, #0]
 8005018:	78da      	ldrb	r2, [r3, #3]
 800501a:	bb62      	cbnz	r2, 8005076 <USB_OTG_HC_StartXfer.constprop.106+0x102>
 800501c:	4445      	add	r5, r8
 800501e:	f505 756a 	add.w	r5, r5, #936	; 0x3a8
 8005022:	79aa      	ldrb	r2, [r5, #6]
 8005024:	bb3a      	cbnz	r2, 8005076 <USB_OTG_HC_StartXfer.constprop.106+0x102>
 8005026:	b331      	cbz	r1, 8005076 <USB_OTG_HC_StartXfer.constprop.106+0x102>
 8005028:	7a6a      	ldrb	r2, [r5, #9]
 800502a:	2a03      	cmp	r2, #3
 800502c:	d810      	bhi.n	8005050 <USB_OTG_HC_StartXfer.constprop.106+0xdc>
 800502e:	e8df f002 	tbb	[pc, r2]
 8005032:	022a      	.short	0x022a
 8005034:	022a      	.short	0x022a
 8005036:	6932      	ldr	r2, [r6, #16]
 8005038:	9201      	str	r2, [sp, #4]
 800503a:	1ccc      	adds	r4, r1, #3
 800503c:	b292      	uxth	r2, r2
 800503e:	f3c4 048f 	ubfx	r4, r4, #2, #16
 8005042:	42a2      	cmp	r2, r4
 8005044:	d204      	bcs.n	8005050 <USB_OTG_HC_StartXfer.constprop.106+0xdc>
 8005046:	68da      	ldr	r2, [r3, #12]
 8005048:	6994      	ldr	r4, [r2, #24]
 800504a:	f044 6480 	orr.w	r4, r4, #67108864	; 0x4000000
 800504e:	6194      	str	r4, [r2, #24]
 8005050:	b289      	uxth	r1, r1
 8005052:	eb03 1c4c 	add.w	ip, r3, ip, lsl #5
 8005056:	3103      	adds	r1, #3
 8005058:	eb03 0380 	add.w	r3, r3, r0, lsl #2
 800505c:	1089      	asrs	r1, r1, #2
 800505e:	f8dc 2118 	ldr.w	r2, [ip, #280]	; 0x118
 8005062:	f8d3 40d0 	ldr.w	r4, [r3, #208]	; 0xd0
 8005066:	d006      	beq.n	8005076 <USB_OTG_HC_StartXfer.constprop.106+0x102>
 8005068:	2300      	movs	r3, #0
 800506a:	3301      	adds	r3, #1
 800506c:	f852 0b04 	ldr.w	r0, [r2], #4
 8005070:	6020      	str	r0, [r4, #0]
 8005072:	4299      	cmp	r1, r3
 8005074:	d1f9      	bne.n	800506a <USB_OTG_HC_StartXfer.constprop.106+0xf6>
 8005076:	2000      	movs	r0, #0
 8005078:	b006      	add	sp, #24
 800507a:	e8bd 03f0 	ldmia.w	sp!, {r4, r5, r6, r7, r8, r9}
 800507e:	4770      	bx	lr
 8005080:	f3c7 0609 	ubfx	r6, r7, #0, #10
 8005084:	e793      	b.n	8004fae <USB_OTG_HC_StartXfer.constprop.106+0x3a>
 8005086:	68dc      	ldr	r4, [r3, #12]
 8005088:	6ae2      	ldr	r2, [r4, #44]	; 0x2c
 800508a:	9203      	str	r2, [sp, #12]
 800508c:	1ccd      	adds	r5, r1, #3
 800508e:	b292      	uxth	r2, r2
 8005090:	f3c5 058f 	ubfx	r5, r5, #2, #16
 8005094:	42aa      	cmp	r2, r5
 8005096:	d2db      	bcs.n	8005050 <USB_OTG_HC_StartXfer.constprop.106+0xdc>
 8005098:	69a2      	ldr	r2, [r4, #24]
 800509a:	f042 0220 	orr.w	r2, r2, #32
 800509e:	61a2      	str	r2, [r4, #24]
 80050a0:	e7d6      	b.n	8005050 <USB_OTG_HC_StartXfer.constprop.106+0xdc>
 80050a2:	bf00      	nop
 80050a4:	20014d90 	.word	0x20014d90

080050a8 <DMA_Init.constprop.46>:
DMA_Init.constprop.46():
 80050a8:	f8df c080 	ldr.w	ip, [pc, #128]	; 800512c <DMA_Init.constprop.46+0x84>
 80050ac:	e92d 07f0 	stmdb	sp!, {r4, r5, r6, r7, r8, r9, sl}
 80050b0:	f8dc 700c 	ldr.w	r7, [ip, #12]
 80050b4:	f8dc 6000 	ldr.w	r6, [ip]
 80050b8:	f8dc 5014 	ldr.w	r5, [ip, #20]
 80050bc:	f8dc 4018 	ldr.w	r4, [ip, #24]
 80050c0:	f8dc 101c 	ldr.w	r1, [ip, #28]
 80050c4:	f8dc 2020 	ldr.w	r2, [ip, #32]
 80050c8:	f8dc 3024 	ldr.w	r3, [ip, #36]	; 0x24
 80050cc:	f8dc a034 	ldr.w	sl, [ip, #52]	; 0x34
 80050d0:	f8dc 9038 	ldr.w	r9, [ip, #56]	; 0x38
 80050d4:	f8df 8058 	ldr.w	r8, [pc, #88]	; 8005130 <DMA_Init.constprop.46+0x88>
 80050d8:	433e      	orrs	r6, r7
 80050da:	4335      	orrs	r5, r6
 80050dc:	432c      	orrs	r4, r5
 80050de:	4321      	orrs	r1, r4
 80050e0:	430a      	orrs	r2, r1
 80050e2:	431a      	orrs	r2, r3
 80050e4:	f8dc 3028 	ldr.w	r3, [ip, #40]	; 0x28
 80050e8:	6801      	ldr	r1, [r0, #0]
 80050ea:	f8dc 702c 	ldr.w	r7, [ip, #44]	; 0x2c
 80050ee:	f8dc 6010 	ldr.w	r6, [ip, #16]
 80050f2:	f8dc 4008 	ldr.w	r4, [ip, #8]
 80050f6:	f8dc 5004 	ldr.w	r5, [ip, #4]
 80050fa:	431a      	orrs	r2, r3
 80050fc:	ea42 0a0a 	orr.w	sl, r2, sl
 8005100:	ea4a 0909 	orr.w	r9, sl, r9
 8005104:	ea01 0808 	and.w	r8, r1, r8
 8005108:	ea49 0208 	orr.w	r2, r9, r8
 800510c:	f8dc 3030 	ldr.w	r3, [ip, #48]	; 0x30
 8005110:	6002      	str	r2, [r0, #0]
 8005112:	6942      	ldr	r2, [r0, #20]
 8005114:	433b      	orrs	r3, r7
 8005116:	f022 0207 	bic.w	r2, r2, #7
 800511a:	4313      	orrs	r3, r2
 800511c:	6143      	str	r3, [r0, #20]
 800511e:	6046      	str	r6, [r0, #4]
 8005120:	6085      	str	r5, [r0, #8]
 8005122:	60c4      	str	r4, [r0, #12]
 8005124:	e8bd 07f0 	ldmia.w	sp!, {r4, r5, r6, r7, r8, r9, sl}
 8005128:	4770      	bx	lr
 800512a:	bf00      	nop
 800512c:	20014ab0 	.word	0x20014ab0
 8005130:	f01c803f 	.word	0xf01c803f

08005134 <RCC_APB1PeriphResetCmd.part.8.10357>:
RCC_APB1PeriphResetCmd.part.8.10357():
 8005134:	4b02      	ldr	r3, [pc, #8]	; (8005140 <RCC_APB1PeriphResetCmd.part.8.10357+0xc>)
 8005136:	6a1a      	ldr	r2, [r3, #32]
 8005138:	ea22 0000 	bic.w	r0, r2, r0
 800513c:	6218      	str	r0, [r3, #32]
 800513e:	4770      	bx	lr
 8005140:	40023800 	.word	0x40023800

08005144 <GPIO_Init>:
GPIO_Init():
 8005144:	2200      	movs	r2, #0
 8005146:	e92d 07f0 	stmdb	sp!, {r4, r5, r6, r7, r8, r9, sl}
 800514a:	4613      	mov	r3, r2
 800514c:	680e      	ldr	r6, [r1, #0]
 800514e:	2701      	movs	r7, #1
 8005150:	f04f 0803 	mov.w	r8, #3
 8005154:	e004      	b.n	8005160 <GPIO_Init+0x1c>
 8005156:	3301      	adds	r3, #1
 8005158:	2b10      	cmp	r3, #16
 800515a:	f102 0202 	add.w	r2, r2, #2
 800515e:	d02e      	beq.n	80051be <GPIO_Init+0x7a>
 8005160:	fa07 f403 	lsl.w	r4, r7, r3
 8005164:	ea04 0506 	and.w	r5, r4, r6
 8005168:	42a5      	cmp	r5, r4
 800516a:	d1f4      	bne.n	8005156 <GPIO_Init+0x12>
 800516c:	f8d0 9000 	ldr.w	r9, [r0]
 8005170:	f891 c004 	ldrb.w	ip, [r1, #4]
 8005174:	fa08 f402 	lsl.w	r4, r8, r2
 8005178:	43e4      	mvns	r4, r4
 800517a:	ea04 0909 	and.w	r9, r4, r9
 800517e:	f8c0 9000 	str.w	r9, [r0]
 8005182:	f8d0 9000 	ldr.w	r9, [r0]
 8005186:	fa0c fa02 	lsl.w	sl, ip, r2
 800518a:	f10c 3cff 	add.w	ip, ip, #4294967295
 800518e:	fa5f fc8c 	uxtb.w	ip, ip
 8005192:	ea4a 0909 	orr.w	r9, sl, r9
 8005196:	f1bc 0f01 	cmp.w	ip, #1
 800519a:	f8c0 9000 	str.w	r9, [r0]
 800519e:	d911      	bls.n	80051c4 <GPIO_Init+0x80>
 80051a0:	68c5      	ldr	r5, [r0, #12]
 80051a2:	f891 c007 	ldrb.w	ip, [r1, #7]
 80051a6:	402c      	ands	r4, r5
 80051a8:	60c4      	str	r4, [r0, #12]
 80051aa:	68c5      	ldr	r5, [r0, #12]
 80051ac:	fa0c f402 	lsl.w	r4, ip, r2
 80051b0:	3301      	adds	r3, #1
 80051b2:	432c      	orrs	r4, r5
 80051b4:	2b10      	cmp	r3, #16
 80051b6:	60c4      	str	r4, [r0, #12]
 80051b8:	f102 0202 	add.w	r2, r2, #2
 80051bc:	d1d0      	bne.n	8005160 <GPIO_Init+0x1c>
 80051be:	e8bd 07f0 	ldmia.w	sp!, {r4, r5, r6, r7, r8, r9, sl}
 80051c2:	4770      	bx	lr
 80051c4:	f8d0 a008 	ldr.w	sl, [r0, #8]
 80051c8:	f891 9005 	ldrb.w	r9, [r1, #5]
 80051cc:	f891 c006 	ldrb.w	ip, [r1, #6]
 80051d0:	ea04 0a0a 	and.w	sl, r4, sl
 80051d4:	f8c0 a008 	str.w	sl, [r0, #8]
 80051d8:	f8d0 a008 	ldr.w	sl, [r0, #8]
 80051dc:	fa09 f902 	lsl.w	r9, r9, r2
 80051e0:	ea49 090a 	orr.w	r9, r9, sl
 80051e4:	f8c0 9008 	str.w	r9, [r0, #8]
 80051e8:	f8d0 9004 	ldr.w	r9, [r0, #4]
 80051ec:	ea29 0505 	bic.w	r5, r9, r5
 80051f0:	6045      	str	r5, [r0, #4]
 80051f2:	6845      	ldr	r5, [r0, #4]
 80051f4:	fa0c fc03 	lsl.w	ip, ip, r3
 80051f8:	fa1f fc8c 	uxth.w	ip, ip
 80051fc:	ea4c 0505 	orr.w	r5, ip, r5
 8005200:	6045      	str	r5, [r0, #4]
 8005202:	e7cd      	b.n	80051a0 <GPIO_Init+0x5c>

08005204 <STM_EVAL_LEDInit>:
STM_EVAL_LEDInit():
 8005204:	b530      	push	{r4, r5, lr}
 8005206:	4b0f      	ldr	r3, [pc, #60]	; (8005244 <STM_EVAL_LEDInit+0x40>)
 8005208:	4a0f      	ldr	r2, [pc, #60]	; (8005248 <STM_EVAL_LEDInit+0x44>)
 800520a:	6b19      	ldr	r1, [r3, #48]	; 0x30
 800520c:	f852 2020 	ldr.w	r2, [r2, r0, lsl #2]
 8005210:	4c0e      	ldr	r4, [pc, #56]	; (800524c <STM_EVAL_LEDInit+0x48>)
 8005212:	4d0f      	ldr	r5, [pc, #60]	; (8005250 <STM_EVAL_LEDInit+0x4c>)
 8005214:	b083      	sub	sp, #12
 8005216:	430a      	orrs	r2, r1
 8005218:	f835 5010 	ldrh.w	r5, [r5, r0, lsl #1]
 800521c:	f854 0020 	ldr.w	r0, [r4, r0, lsl #2]
 8005220:	631a      	str	r2, [r3, #48]	; 0x30
 8005222:	2400      	movs	r4, #0
 8005224:	2301      	movs	r3, #1
 8005226:	2202      	movs	r2, #2
 8005228:	4669      	mov	r1, sp
 800522a:	9500      	str	r5, [sp, #0]
 800522c:	f88d 3004 	strb.w	r3, [sp, #4]
 8005230:	f88d 3007 	strb.w	r3, [sp, #7]
 8005234:	f88d 4006 	strb.w	r4, [sp, #6]
 8005238:	f88d 2005 	strb.w	r2, [sp, #5]
 800523c:	f7ff ff82 	bl	8005144 <GPIO_Init>
 8005240:	b003      	add	sp, #12
 8005242:	bd30      	pop	{r4, r5, pc}
 8005244:	40023800 	.word	0x40023800
 8005248:	0800d6bc 	.word	0x0800d6bc
 800524c:	20000084 	.word	0x20000084
 8005250:	0800d6cc 	.word	0x0800d6cc

08005254 <USB_OTG_BSP_ConfigVBUS>:
USB_OTG_BSP_ConfigVBUS():
 8005254:	b530      	push	{r4, r5, lr}
 8005256:	4b0f      	ldr	r3, [pc, #60]	; (8005294 <USB_OTG_BSP_ConfigVBUS+0x40>)
 8005258:	4d0f      	ldr	r5, [pc, #60]	; (8005298 <USB_OTG_BSP_ConfigVBUS+0x44>)
 800525a:	6b1a      	ldr	r2, [r3, #48]	; 0x30
 800525c:	b083      	sub	sp, #12
 800525e:	f042 0204 	orr.w	r2, r2, #4
 8005262:	631a      	str	r2, [r3, #48]	; 0x30
 8005264:	2401      	movs	r4, #1
 8005266:	2300      	movs	r3, #0
 8005268:	2202      	movs	r2, #2
 800526a:	4628      	mov	r0, r5
 800526c:	4669      	mov	r1, sp
 800526e:	f88d 2005 	strb.w	r2, [sp, #5]
 8005272:	f88d 3006 	strb.w	r3, [sp, #6]
 8005276:	f88d 3007 	strb.w	r3, [sp, #7]
 800527a:	9400      	str	r4, [sp, #0]
 800527c:	f88d 4004 	strb.w	r4, [sp, #4]
 8005280:	f7ff ff60 	bl	8005144 <GPIO_Init>
 8005284:	832c      	strh	r4, [r5, #24]
 8005286:	4621      	mov	r1, r4
 8005288:	20c8      	movs	r0, #200	; 0xc8
 800528a:	f7ff fc35 	bl	8004af8 <BSP_Delay.4435>
 800528e:	b003      	add	sp, #12
 8005290:	bd30      	pop	{r4, r5, pc}
 8005292:	bf00      	nop
 8005294:	40023800 	.word	0x40023800
 8005298:	40020800 	.word	0x40020800

0800529c <NVIC_Init>:
NVIC_Init():
 800529c:	78c3      	ldrb	r3, [r0, #3]
 800529e:	b4f0      	push	{r4, r5, r6, r7}
 80052a0:	b963      	cbnz	r3, 80052bc <NVIC_Init+0x20>
 80052a2:	7803      	ldrb	r3, [r0, #0]
 80052a4:	4a18      	ldr	r2, [pc, #96]	; (8005308 <NVIC_Init+0x6c>)
 80052a6:	0959      	lsrs	r1, r3, #5
 80052a8:	3120      	adds	r1, #32
 80052aa:	f003 031f 	and.w	r3, r3, #31
 80052ae:	2001      	movs	r0, #1
 80052b0:	fa00 f303 	lsl.w	r3, r0, r3
 80052b4:	f842 3021 	str.w	r3, [r2, r1, lsl #2]
 80052b8:	bcf0      	pop	{r4, r5, r6, r7}
 80052ba:	4770      	bx	lr
 80052bc:	4b13      	ldr	r3, [pc, #76]	; (800530c <NVIC_Init+0x70>)
 80052be:	7847      	ldrb	r7, [r0, #1]
 80052c0:	68da      	ldr	r2, [r3, #12]
 80052c2:	7885      	ldrb	r5, [r0, #2]
 80052c4:	7803      	ldrb	r3, [r0, #0]
 80052c6:	4910      	ldr	r1, [pc, #64]	; (8005308 <NVIC_Init+0x6c>)
 80052c8:	43d2      	mvns	r2, r2
 80052ca:	f3c2 2202 	ubfx	r2, r2, #8, #3
 80052ce:	f1c2 0404 	rsb	r4, r2, #4
 80052d2:	b2e4      	uxtb	r4, r4
 80052d4:	260f      	movs	r6, #15
 80052d6:	fa07 f404 	lsl.w	r4, r7, r4
 80052da:	fa46 f202 	asr.w	r2, r6, r2
 80052de:	b2e4      	uxtb	r4, r4
 80052e0:	402a      	ands	r2, r5
 80052e2:	4322      	orrs	r2, r4
 80052e4:	f103 4360 	add.w	r3, r3, #3758096384	; 0xe0000000
 80052e8:	f503 4361 	add.w	r3, r3, #57600	; 0xe100
 80052ec:	0112      	lsls	r2, r2, #4
 80052ee:	b2d2      	uxtb	r2, r2
 80052f0:	f883 2300 	strb.w	r2, [r3, #768]	; 0x300
 80052f4:	7803      	ldrb	r3, [r0, #0]
 80052f6:	2001      	movs	r0, #1
 80052f8:	f003 021f 	and.w	r2, r3, #31
 80052fc:	095b      	lsrs	r3, r3, #5
 80052fe:	fa00 f202 	lsl.w	r2, r0, r2
 8005302:	f841 2023 	str.w	r2, [r1, r3, lsl #2]
 8005306:	e7d7      	b.n	80052b8 <NVIC_Init+0x1c>
 8005308:	e000e100 	.word	0xe000e100
 800530c:	e000ed00 	.word	0xe000ed00

08005310 <USB_OTG_HC_Init>:
USB_OTG_HC_Init():
 8005310:	b4f0      	push	{r4, r5, r6, r7}
 8005312:	eb00 0281 	add.w	r2, r0, r1, lsl #2
 8005316:	f04f 33ff 	mov.w	r3, #4294967295
 800531a:	f8d2 4090 	ldr.w	r4, [r2, #144]	; 0x90
 800531e:	014d      	lsls	r5, r1, #5
 8005320:	60a3      	str	r3, [r4, #8]
 8005322:	1942      	adds	r2, r0, r5
 8005324:	78c3      	ldrb	r3, [r0, #3]
 8005326:	f892 63b1 	ldrb.w	r6, [r2, #945]	; 0x3b1
 800532a:	2b01      	cmp	r3, #1
 800532c:	bf14      	ite	ne
 800532e:	2200      	movne	r2, #0
 8005330:	2204      	moveq	r2, #4
 8005332:	2300      	movs	r3, #0
 8005334:	2e03      	cmp	r6, #3
 8005336:	d813      	bhi.n	8005360 <USB_OTG_HC_Init+0x50>
 8005338:	e8df f006 	tbb	[pc, r6]
 800533c:	44025002 	.word	0x44025002
 8005340:	1946      	adds	r6, r0, r5
 8005342:	f506 766a 	add.w	r6, r6, #936	; 0x3a8
 8005346:	79b7      	ldrb	r7, [r6, #6]
 8005348:	f442 6293 	orr.w	r2, r2, #1176	; 0x498
 800534c:	f042 0201 	orr.w	r2, r2, #1
 8005350:	2f00      	cmp	r7, #0
 8005352:	d140      	bne.n	80053d6 <USB_OTG_HC_Init+0xc6>
 8005354:	7a36      	ldrb	r6, [r6, #8]
 8005356:	f042 0240 	orr.w	r2, r2, #64	; 0x40
 800535a:	b10e      	cbz	r6, 8005360 <USB_OTG_HC_Init+0x50>
 800535c:	f042 0220 	orr.w	r2, r2, #32
 8005360:	6946      	ldr	r6, [r0, #20]
 8005362:	60e2      	str	r2, [r4, #12]
 8005364:	69b7      	ldr	r7, [r6, #24]
 8005366:	68c2      	ldr	r2, [r0, #12]
 8005368:	f04f 0c01 	mov.w	ip, #1
 800536c:	fa0c f101 	lsl.w	r1, ip, r1
 8005370:	4339      	orrs	r1, r7
 8005372:	61b1      	str	r1, [r6, #24]
 8005374:	6991      	ldr	r1, [r2, #24]
 8005376:	4428      	add	r0, r5
 8005378:	f041 7100 	orr.w	r1, r1, #33554432	; 0x2000000
 800537c:	6191      	str	r1, [r2, #24]
 800537e:	f890 c3ac 	ldrb.w	ip, [r0, #940]	; 0x3ac
 8005382:	f890 53af 	ldrb.w	r5, [r0, #943]	; 0x3af
 8005386:	f890 73ad 	ldrb.w	r7, [r0, #941]	; 0x3ad
 800538a:	f890 63ae 	ldrb.w	r6, [r0, #942]	; 0x3ae
 800538e:	f890 23b1 	ldrb.w	r2, [r0, #945]	; 0x3b1
 8005392:	f8b0 13b2 	ldrh.w	r1, [r0, #946]	; 0x3b2
 8005396:	3d02      	subs	r5, #2
 8005398:	f36c 539c 	bfi	r3, ip, #22, #7
 800539c:	4268      	negs	r0, r5
 800539e:	f367 23ce 	bfi	r3, r7, #11, #4
 80053a2:	4168      	adcs	r0, r5
 80053a4:	f366 33cf 	bfi	r3, r6, #15, #1
 80053a8:	f360 4351 	bfi	r3, r0, #17, #1
 80053ac:	f362 4393 	bfi	r3, r2, #18, #2
 80053b0:	f361 030a 	bfi	r3, r1, #0, #11
 80053b4:	2a03      	cmp	r2, #3
 80053b6:	bf08      	it	eq
 80053b8:	f043 5300 	orreq.w	r3, r3, #536870912	; 0x20000000
 80053bc:	6023      	str	r3, [r4, #0]
 80053be:	2000      	movs	r0, #0
 80053c0:	bcf0      	pop	{r4, r5, r6, r7}
 80053c2:	4770      	bx	lr
 80053c4:	1946      	adds	r6, r0, r5
 80053c6:	f442 62d3 	orr.w	r2, r2, #1688	; 0x698
 80053ca:	f896 63ae 	ldrb.w	r6, [r6, #942]	; 0x3ae
 80053ce:	f042 0201 	orr.w	r2, r2, #1
 80053d2:	2e00      	cmp	r6, #0
 80053d4:	d0c4      	beq.n	8005360 <USB_OTG_HC_Init+0x50>
 80053d6:	f442 7280 	orr.w	r2, r2, #256	; 0x100
 80053da:	e7c1      	b.n	8005360 <USB_OTG_HC_Init+0x50>
 80053dc:	1946      	adds	r6, r0, r5
 80053de:	f442 7208 	orr.w	r2, r2, #544	; 0x220
 80053e2:	f896 63ae 	ldrb.w	r6, [r6, #942]	; 0x3ae
 80053e6:	f042 0201 	orr.w	r2, r2, #1
 80053ea:	2e00      	cmp	r6, #0
 80053ec:	d0b8      	beq.n	8005360 <USB_OTG_HC_Init+0x50>
 80053ee:	f442 72c0 	orr.w	r2, r2, #384	; 0x180
 80053f2:	e7b5      	b.n	8005360 <USB_OTG_HC_Init+0x50>

080053f4 <USBH_MIDI_InterfaceInit.4189>:
USBH_MIDI_InterfaceInit.4189():
 80053f4:	e92d 47f0 	stmdb	sp!, {r4, r5, r6, r7, r8, r9, sl, lr}
 80053f8:	f891 3043 	ldrb.w	r3, [r1, #67]	; 0x43
 80053fc:	4e97      	ldr	r6, [pc, #604]	; (800565c <USBH_MIDI_InterfaceInit.4189+0x268>)
 80053fe:	2205      	movs	r2, #5
 8005400:	2b01      	cmp	r3, #1
 8005402:	460c      	mov	r4, r1
 8005404:	4605      	mov	r5, r0
 8005406:	7032      	strb	r2, [r6, #0]
 8005408:	d005      	beq.n	8005416 <USBH_MIDI_InterfaceInit.4189+0x22>
 800540a:	6ea3      	ldr	r3, [r4, #104]	; 0x68
 800540c:	6c1b      	ldr	r3, [r3, #64]	; 0x40
 800540e:	4798      	blx	r3
 8005410:	2001      	movs	r0, #1
 8005412:	e8bd 87f0 	ldmia.w	sp!, {r4, r5, r6, r7, r8, r9, sl, pc}
 8005416:	f891 3044 	ldrb.w	r3, [r1, #68]	; 0x44
 800541a:	2b03      	cmp	r3, #3
 800541c:	d1f5      	bne.n	800540a <USBH_MIDI_InterfaceInit.4189+0x16>
 800541e:	f891 304a 	ldrb.w	r3, [r1, #74]	; 0x4a
 8005422:	f8b1 204c 	ldrh.w	r2, [r1, #76]	; 0x4c
 8005426:	0619      	lsls	r1, r3, #24
 8005428:	bf4c      	ite	mi
 800542a:	f886 3044 	strbmi.w	r3, [r6, #68]	; 0x44
 800542e:	f886 3043 	strbpl.w	r3, [r6, #67]	; 0x43
 8005432:	f894 3052 	ldrb.w	r3, [r4, #82]	; 0x52
 8005436:	bf4c      	ite	mi
 8005438:	f8a6 2046 	strhmi.w	r2, [r6, #70]	; 0x46
 800543c:	f8a6 2048 	strhpl.w	r2, [r6, #72]	; 0x48
 8005440:	061a      	lsls	r2, r3, #24
 8005442:	f100 80bc 	bmi.w	80055be <USBH_MIDI_InterfaceInit.4189+0x1ca>
 8005446:	f8b4 e054 	ldrh.w	lr, [r4, #84]	; 0x54
 800544a:	f896 7044 	ldrb.w	r7, [r6, #68]	; 0x44
 800544e:	f886 3043 	strb.w	r3, [r6, #67]	; 0x43
 8005452:	f8a6 e048 	strh.w	lr, [r6, #72]	; 0x48
 8005456:	f9b5 058c 	ldrsh.w	r0, [r5, #1420]	; 0x58c
 800545a:	2800      	cmp	r0, #0
 800545c:	f280 80c6 	bge.w	80055ec <USBH_MIDI_InterfaceInit.4189+0x1f8>
 8005460:	f9b5 258e 	ldrsh.w	r2, [r5, #1422]	; 0x58e
 8005464:	2a00      	cmp	r2, #0
 8005466:	f280 80d2 	bge.w	800560e <USBH_MIDI_InterfaceInit.4189+0x21a>
 800546a:	f9b5 2590 	ldrsh.w	r2, [r5, #1424]	; 0x590
 800546e:	2a00      	cmp	r2, #0
 8005470:	f280 80d3 	bge.w	800561a <USBH_MIDI_InterfaceInit.4189+0x226>
 8005474:	f9b5 2592 	ldrsh.w	r2, [r5, #1426]	; 0x592
 8005478:	2a00      	cmp	r2, #0
 800547a:	f280 80d4 	bge.w	8005626 <USBH_MIDI_InterfaceInit.4189+0x232>
 800547e:	f9b5 2594 	ldrsh.w	r2, [r5, #1428]	; 0x594
 8005482:	2a00      	cmp	r2, #0
 8005484:	f280 80d5 	bge.w	8005632 <USBH_MIDI_InterfaceInit.4189+0x23e>
 8005488:	f9b5 2596 	ldrsh.w	r2, [r5, #1430]	; 0x596
 800548c:	2a00      	cmp	r2, #0
 800548e:	f280 80d6 	bge.w	800563e <USBH_MIDI_InterfaceInit.4189+0x24a>
 8005492:	f9b5 2598 	ldrsh.w	r2, [r5, #1432]	; 0x598
 8005496:	2a00      	cmp	r2, #0
 8005498:	f280 80d7 	bge.w	800564a <USBH_MIDI_InterfaceInit.4189+0x256>
 800549c:	f9b5 259a 	ldrsh.w	r2, [r5, #1434]	; 0x59a
 80054a0:	2a00      	cmp	r2, #0
 80054a2:	f280 80d8 	bge.w	8005656 <USBH_MIDI_InterfaceInit.4189+0x262>
 80054a6:	22ff      	movs	r2, #255	; 0xff
 80054a8:	4611      	mov	r1, r2
 80054aa:	2800      	cmp	r0, #0
 80054ac:	f886 1042 	strb.w	r1, [r6, #66]	; 0x42
 80054b0:	f280 8091 	bge.w	80055d6 <USBH_MIDI_InterfaceInit.4189+0x1e2>
 80054b4:	f9b5 358e 	ldrsh.w	r3, [r5, #1422]	; 0x58e
 80054b8:	2b00      	cmp	r3, #0
 80054ba:	f280 80a5 	bge.w	8005608 <USBH_MIDI_InterfaceInit.4189+0x214>
 80054be:	f9b5 3590 	ldrsh.w	r3, [r5, #1424]	; 0x590
 80054c2:	2b00      	cmp	r3, #0
 80054c4:	f280 80a6 	bge.w	8005614 <USBH_MIDI_InterfaceInit.4189+0x220>
 80054c8:	f9b5 3592 	ldrsh.w	r3, [r5, #1426]	; 0x592
 80054cc:	2b00      	cmp	r3, #0
 80054ce:	f280 80a7 	bge.w	8005620 <USBH_MIDI_InterfaceInit.4189+0x22c>
 80054d2:	f9b5 3594 	ldrsh.w	r3, [r5, #1428]	; 0x594
 80054d6:	2b00      	cmp	r3, #0
 80054d8:	f280 80a8 	bge.w	800562c <USBH_MIDI_InterfaceInit.4189+0x238>
 80054dc:	f9b5 3596 	ldrsh.w	r3, [r5, #1430]	; 0x596
 80054e0:	2b00      	cmp	r3, #0
 80054e2:	f280 80a9 	bge.w	8005638 <USBH_MIDI_InterfaceInit.4189+0x244>
 80054e6:	f9b5 3598 	ldrsh.w	r3, [r5, #1432]	; 0x598
 80054ea:	2b00      	cmp	r3, #0
 80054ec:	f280 80aa 	bge.w	8005644 <USBH_MIDI_InterfaceInit.4189+0x250>
 80054f0:	f9b5 359a 	ldrsh.w	r3, [r5, #1434]	; 0x59a
 80054f4:	2b00      	cmp	r3, #0
 80054f6:	bfb8      	it	lt
 80054f8:	20ff      	movlt	r0, #255	; 0xff
 80054fa:	f280 80a9 	bge.w	8005650 <USBH_MIDI_InterfaceInit.4189+0x25c>
 80054fe:	eb05 0342 	add.w	r3, r5, r2, lsl #1
 8005502:	f886 0041 	strb.w	r0, [r6, #65]	; 0x41
 8005506:	f8b3 758c 	ldrh.w	r7, [r3, #1420]	; 0x58c
 800550a:	f894 0021 	ldrb.w	r0, [r4, #33]	; 0x21
 800550e:	f894 8020 	ldrb.w	r8, [r4, #32]
 8005512:	eb05 1242 	add.w	r2, r5, r2, lsl #5
 8005516:	f007 0a7f 	and.w	sl, r7, #127	; 0x7f
 800551a:	f3c7 19c0 	ubfx	r9, r7, #7, #1
 800551e:	f04f 0c02 	mov.w	ip, #2
 8005522:	2700      	movs	r7, #0
 8005524:	f502 736a 	add.w	r3, r2, #936	; 0x3a8
 8005528:	f882 a3ad 	strb.w	sl, [r2, #941]	; 0x3ad
 800552c:	f882 93ae 	strb.w	r9, [r2, #942]	; 0x3ae
 8005530:	f882 83ac 	strb.w	r8, [r2, #940]	; 0x3ac
 8005534:	f8a2 e3b2 	strh.w	lr, [r2, #946]	; 0x3b2
 8005538:	f882 03af 	strb.w	r0, [r2, #943]	; 0x3af
 800553c:	f882 c3b1 	strb.w	ip, [r2, #945]	; 0x3b1
 8005540:	f882 73c4 	strb.w	r7, [r2, #964]	; 0x3c4
 8005544:	f882 73c5 	strb.w	r7, [r2, #965]	; 0x3c5
 8005548:	b908      	cbnz	r0, 800554e <USBH_MIDI_InterfaceInit.4189+0x15a>
 800554a:	2201      	movs	r2, #1
 800554c:	721a      	strb	r2, [r3, #8]
 800554e:	4628      	mov	r0, r5
 8005550:	f7ff fede 	bl	8005310 <USB_OTG_HC_Init>
 8005554:	f896 1041 	ldrb.w	r1, [r6, #65]	; 0x41
 8005558:	f894 2021 	ldrb.w	r2, [r4, #33]	; 0x21
 800555c:	f894 c020 	ldrb.w	ip, [r4, #32]
 8005560:	f8b6 7046 	ldrh.w	r7, [r6, #70]	; 0x46
 8005564:	eb05 0041 	add.w	r0, r5, r1, lsl #1
 8005568:	eb05 1341 	add.w	r3, r5, r1, lsl #5
 800556c:	f8b0 458c 	ldrh.w	r4, [r0, #1420]	; 0x58c
 8005570:	f883 c3ac 	strb.w	ip, [r3, #940]	; 0x3ac
 8005574:	4618      	mov	r0, r3
 8005576:	f004 097f 	and.w	r9, r4, #127	; 0x7f
 800557a:	f3c4 18c0 	ubfx	r8, r4, #7, #1
 800557e:	f04f 0e02 	mov.w	lr, #2
 8005582:	2400      	movs	r4, #0
 8005584:	f883 93ad 	strb.w	r9, [r3, #941]	; 0x3ad
 8005588:	f883 83ae 	strb.w	r8, [r3, #942]	; 0x3ae
 800558c:	f883 23af 	strb.w	r2, [r3, #943]	; 0x3af
 8005590:	f883 e3b1 	strb.w	lr, [r3, #945]	; 0x3b1
 8005594:	f8a3 73b2 	strh.w	r7, [r3, #946]	; 0x3b2
 8005598:	f503 736a 	add.w	r3, r3, #936	; 0x3a8
 800559c:	f880 43c4 	strb.w	r4, [r0, #964]	; 0x3c4
 80055a0:	f880 43c5 	strb.w	r4, [r0, #965]	; 0x3c5
 80055a4:	b90a      	cbnz	r2, 80055aa <USBH_MIDI_InterfaceInit.4189+0x1b6>
 80055a6:	2201      	movs	r2, #1
 80055a8:	721a      	strb	r2, [r3, #8]
 80055aa:	4628      	mov	r0, r5
 80055ac:	f7ff feb0 	bl	8005310 <USB_OTG_HC_Init>
 80055b0:	4a2b      	ldr	r2, [pc, #172]	; (8005660 <USBH_MIDI_InterfaceInit.4189+0x26c>)
 80055b2:	2000      	movs	r0, #0
 80055b4:	2303      	movs	r3, #3
 80055b6:	7010      	strb	r0, [r2, #0]
 80055b8:	7033      	strb	r3, [r6, #0]
 80055ba:	e8bd 87f0 	ldmia.w	sp!, {r4, r5, r6, r7, r8, r9, sl, pc}
 80055be:	f8b4 2054 	ldrh.w	r2, [r4, #84]	; 0x54
 80055c2:	f886 3044 	strb.w	r3, [r6, #68]	; 0x44
 80055c6:	461f      	mov	r7, r3
 80055c8:	f8a6 2046 	strh.w	r2, [r6, #70]	; 0x46
 80055cc:	f8b6 e048 	ldrh.w	lr, [r6, #72]	; 0x48
 80055d0:	f896 3043 	ldrb.w	r3, [r6, #67]	; 0x43
 80055d4:	e73f      	b.n	8005456 <USBH_MIDI_InterfaceInit.4189+0x62>
 80055d6:	2000      	movs	r0, #0
 80055d8:	4603      	mov	r3, r0
 80055da:	ea6f 4747 	mvn.w	r7, r7, lsl #17
 80055de:	eb05 0343 	add.w	r3, r5, r3, lsl #1
 80055e2:	ea6f 4757 	mvn.w	r7, r7, lsr #17
 80055e6:	f8a3 758c 	strh.w	r7, [r3, #1420]	; 0x58c
 80055ea:	e788      	b.n	80054fe <USBH_MIDI_InterfaceInit.4189+0x10a>
 80055ec:	2200      	movs	r2, #0
 80055ee:	4611      	mov	r1, r2
 80055f0:	eb05 0141 	add.w	r1, r5, r1, lsl #1
 80055f4:	ea6f 4343 	mvn.w	r3, r3, lsl #17
 80055f8:	ea6f 4353 	mvn.w	r3, r3, lsr #17
 80055fc:	f8a1 358c 	strh.w	r3, [r1, #1420]	; 0x58c
 8005600:	f9b5 058c 	ldrsh.w	r0, [r5, #1420]	; 0x58c
 8005604:	4611      	mov	r1, r2
 8005606:	e750      	b.n	80054aa <USBH_MIDI_InterfaceInit.4189+0xb6>
 8005608:	2001      	movs	r0, #1
 800560a:	4603      	mov	r3, r0
 800560c:	e7e5      	b.n	80055da <USBH_MIDI_InterfaceInit.4189+0x1e6>
 800560e:	2201      	movs	r2, #1
 8005610:	4611      	mov	r1, r2
 8005612:	e7ed      	b.n	80055f0 <USBH_MIDI_InterfaceInit.4189+0x1fc>
 8005614:	2002      	movs	r0, #2
 8005616:	4603      	mov	r3, r0
 8005618:	e7df      	b.n	80055da <USBH_MIDI_InterfaceInit.4189+0x1e6>
 800561a:	2202      	movs	r2, #2
 800561c:	4611      	mov	r1, r2
 800561e:	e7e7      	b.n	80055f0 <USBH_MIDI_InterfaceInit.4189+0x1fc>
 8005620:	2003      	movs	r0, #3
 8005622:	4603      	mov	r3, r0
 8005624:	e7d9      	b.n	80055da <USBH_MIDI_InterfaceInit.4189+0x1e6>
 8005626:	2203      	movs	r2, #3
 8005628:	4611      	mov	r1, r2
 800562a:	e7e1      	b.n	80055f0 <USBH_MIDI_InterfaceInit.4189+0x1fc>
 800562c:	2004      	movs	r0, #4
 800562e:	4603      	mov	r3, r0
 8005630:	e7d3      	b.n	80055da <USBH_MIDI_InterfaceInit.4189+0x1e6>
 8005632:	2204      	movs	r2, #4
 8005634:	4611      	mov	r1, r2
 8005636:	e7db      	b.n	80055f0 <USBH_MIDI_InterfaceInit.4189+0x1fc>
 8005638:	2005      	movs	r0, #5
 800563a:	4603      	mov	r3, r0
 800563c:	e7cd      	b.n	80055da <USBH_MIDI_InterfaceInit.4189+0x1e6>
 800563e:	2205      	movs	r2, #5
 8005640:	4611      	mov	r1, r2
 8005642:	e7d5      	b.n	80055f0 <USBH_MIDI_InterfaceInit.4189+0x1fc>
 8005644:	2006      	movs	r0, #6
 8005646:	4603      	mov	r3, r0
 8005648:	e7c7      	b.n	80055da <USBH_MIDI_InterfaceInit.4189+0x1e6>
 800564a:	2206      	movs	r2, #6
 800564c:	4611      	mov	r1, r2
 800564e:	e7cf      	b.n	80055f0 <USBH_MIDI_InterfaceInit.4189+0x1fc>
 8005650:	2007      	movs	r0, #7
 8005652:	4603      	mov	r3, r0
 8005654:	e7c1      	b.n	80055da <USBH_MIDI_InterfaceInit.4189+0x1e6>
 8005656:	2207      	movs	r2, #7
 8005658:	4611      	mov	r1, r2
 800565a:	e7c9      	b.n	80055f0 <USBH_MIDI_InterfaceInit.4189+0x1fc>
 800565c:	20014d40 	.word	0x20014d40
 8005660:	20014d3d 	.word	0x20014d3d

08005664 <mono_chorus_compute>:
mono_chorus_compute():
 8005664:	edd1 7a02 	vldr	s15, [r1, #8]
 8005668:	edd1 6a01 	vldr	s13, [r1, #4]
 800566c:	ed9f 7a4d 	vldr	s14, [pc, #308]	; 80057a4 <mono_chorus_compute+0x140>
 8005670:	eee6 7a87 	vfma.f32	s15, s13, s14
 8005674:	b570      	push	{r4, r5, r6, lr}
 8005676:	eef5 7ac0 	vcmpe.f32	s15, #0.0
 800567a:	f500 56af 	add.w	r6, r0, #5600	; 0x15e0
 800567e:	3610      	adds	r6, #16
 8005680:	eef1 fa10 	vmrs	APSR_nzcv, fpscr
 8005684:	ed2d 8b04 	vpush	{d8-d9}
 8005688:	460d      	mov	r5, r1
 800568a:	edd6 8a00 	vldr	s17, [r6]
 800568e:	edc1 7a02 	vstr	s15, [r1, #8]
 8005692:	4604      	mov	r4, r0
 8005694:	eeb0 9a40 	vmov.f32	s18, s0
 8005698:	d50a      	bpl.n	80056b0 <mono_chorus_compute+0x4c>
 800569a:	ed9f 7a43 	vldr	s14, [pc, #268]	; 80057a8 <mono_chorus_compute+0x144>
 800569e:	ee77 7a87 	vadd.f32	s15, s15, s14
 80056a2:	eef5 7ac0 	vcmpe.f32	s15, #0.0
 80056a6:	eef1 fa10 	vmrs	APSR_nzcv, fpscr
 80056aa:	d4f8      	bmi.n	800569e <mono_chorus_compute+0x3a>
 80056ac:	edc5 7a02 	vstr	s15, [r5, #8]
 80056b0:	ed9f 7a3d 	vldr	s14, [pc, #244]	; 80057a8 <mono_chorus_compute+0x144>
 80056b4:	eef4 7ac7 	vcmpe.f32	s15, s14
 80056b8:	eef1 fa10 	vmrs	APSR_nzcv, fpscr
 80056bc:	db08      	blt.n	80056d0 <mono_chorus_compute+0x6c>
 80056be:	ee77 7ac7 	vsub.f32	s15, s15, s14
 80056c2:	eef4 7ac7 	vcmpe.f32	s15, s14
 80056c6:	eef1 fa10 	vmrs	APSR_nzcv, fpscr
 80056ca:	daf8      	bge.n	80056be <mono_chorus_compute+0x5a>
 80056cc:	edc5 7a02 	vstr	s15, [r5, #8]
 80056d0:	ed9f 0a36 	vldr	s0, [pc, #216]	; 80057ac <mono_chorus_compute+0x148>
 80056d4:	ee27 0a80 	vmul.f32	s0, s15, s0
 80056d8:	f004 fdfe 	bl	800a2d8 <lrintf>
 80056dc:	4b34      	ldr	r3, [pc, #208]	; (80057b0 <mono_chorus_compute+0x14c>)
 80056de:	edd5 6a00 	vldr	s13, [r5]
 80056e2:	eb03 0080 	add.w	r0, r3, r0, lsl #2
 80056e6:	ed90 6a00 	vldr	s12, [r0]
 80056ea:	eeb7 7a00 	vmov.f32	s14, #112	; 0x70
 80056ee:	ee36 7a07 	vadd.f32	s14, s12, s14
 80056f2:	eeb1 8a08 	vmov.f32	s16, #24
 80056f6:	ee27 7a26 	vmul.f32	s14, s14, s13
 80056fa:	4620      	mov	r0, r4
 80056fc:	ee38 0a87 	vadd.f32	s0, s17, s14
 8005700:	ed85 7a03 	vstr	s14, [r5, #12]
 8005704:	ee30 0a08 	vadd.f32	s0, s0, s16
 8005708:	f7ff f8f2 	bl	80048f0 <delay_read.4604>
 800570c:	f241 53f4 	movw	r3, #5620	; 0x15f4
 8005710:	eef0 8a40 	vmov.f32	s17, s0
 8005714:	56e3      	ldrsb	r3, [r4, r3]
 8005716:	2b01      	cmp	r3, #1
 8005718:	d02c      	beq.n	8005774 <mono_chorus_compute+0x110>
 800571a:	ed96 0a00 	vldr	s0, [r6]
 800571e:	edd4 9a01 	vldr	s19, [r4, #4]
 8005722:	ee30 0a08 	vadd.f32	s0, s0, s16
 8005726:	4620      	mov	r0, r4
 8005728:	f7ff f8e2 	bl	80048f0 <delay_read.4604>
 800572c:	eef0 7a49 	vmov.f32	s15, s18
 8005730:	eee9 7a80 	vfma.f32	s15, s19, s0
 8005734:	eeb7 7a00 	vmov.f32	s14, #112	; 0x70
 8005738:	eef4 7ac7 	vcmpe.f32	s15, s14
 800573c:	eef1 fa10 	vmrs	APSR_nzcv, fpscr
 8005740:	dd25      	ble.n	800578e <mono_chorus_compute+0x12a>
 8005742:	eef0 7a47 	vmov.f32	s15, s14
 8005746:	ed94 0a02 	vldr	s0, [r4, #8]
 800574a:	68e3      	ldr	r3, [r4, #12]
 800574c:	ed94 7a00 	vldr	s14, [r4]
 8005750:	ee28 0a80 	vmul.f32	s0, s17, s0
 8005754:	ecbd 8b04 	vpop	{d8-d9}
 8005758:	f240 5276 	movw	r2, #1398	; 0x576
 800575c:	4293      	cmp	r3, r2
 800575e:	eb04 0183 	add.w	r1, r4, r3, lsl #2
 8005762:	bfd4      	ite	le
 8005764:	3301      	addle	r3, #1
 8005766:	2300      	movgt	r3, #0
 8005768:	eea7 0a87 	vfma.f32	s0, s15, s14
 800576c:	edc1 7a04 	vstr	s15, [r1, #16]
 8005770:	60e3      	str	r3, [r4, #12]
 8005772:	bd70      	pop	{r4, r5, r6, pc}
 8005774:	edd4 7a01 	vldr	s15, [r4, #4]
 8005778:	eea7 9a80 	vfma.f32	s18, s15, s0
 800577c:	eeb7 7a00 	vmov.f32	s14, #112	; 0x70
 8005780:	eef0 7a49 	vmov.f32	s15, s18
 8005784:	eef4 7ac7 	vcmpe.f32	s15, s14
 8005788:	eef1 fa10 	vmrs	APSR_nzcv, fpscr
 800578c:	dcd9      	bgt.n	8005742 <mono_chorus_compute+0xde>
 800578e:	eebf 7a00 	vmov.f32	s14, #240	; 0xf0
 8005792:	eef4 7a47 	vcmp.f32	s15, s14
 8005796:	eef1 fa10 	vmrs	APSR_nzcv, fpscr
 800579a:	bf48      	it	mi
 800579c:	eef0 7a47 	vmovmi.f32	s15, s14
 80057a0:	e7d1      	b.n	8005746 <mono_chorus_compute+0xe2>
 80057a2:	bf00      	nop
 80057a4:	3909421f 	.word	0x3909421f
 80057a8:	40c90fdb 	.word	0x40c90fdb
 80057ac:	4322f983 	.word	0x4322f983
 80057b0:	0800c50c 	.word	0x0800c50c

080057b4 <ADC_IRQHandler>:
Default_Handler.5167.4624():
 80057b4:	e7fe      	b.n	80057b4 <ADC_IRQHandler>
 80057b6:	bf00      	nop

080057b8 <USBH_MIDI_Handle.4181>:
USBH_MIDI_Handle.4181():
 80057b8:	e92d 4ff0 	stmdb	sp!, {r4, r5, r6, r7, r8, r9, sl, fp, lr}
 80057bc:	ed2d 8b04 	vpush	{d8-d9}
 80057c0:	f8d0 3310 	ldr.w	r3, [r0, #784]	; 0x310
 80057c4:	b089      	sub	sp, #36	; 0x24
 80057c6:	b193      	cbz	r3, 80057ee <USBH_MIDI_Handle.4181+0x36>
 80057c8:	4c8b      	ldr	r4, [pc, #556]	; (80059f8 <USBH_MIDI_Handle.4181+0x240>)
 80057ca:	7823      	ldrb	r3, [r4, #0]
 80057cc:	2b03      	cmp	r3, #3
 80057ce:	d014      	beq.n	80057fa <USBH_MIDI_Handle.4181+0x42>
 80057d0:	2b04      	cmp	r3, #4
 80057d2:	d10c      	bne.n	80057ee <USBH_MIDI_Handle.4181+0x36>
 80057d4:	f894 2041 	ldrb.w	r2, [r4, #65]	; 0x41
 80057d8:	1883      	adds	r3, r0, r2
 80057da:	f893 539b 	ldrb.w	r5, [r3, #923]	; 0x39b
 80057de:	2d01      	cmp	r5, #1
 80057e0:	f240 8094 	bls.w	800590c <USBH_MIDI_Handle.4181+0x154>
 80057e4:	f893 339b 	ldrb.w	r3, [r3, #923]	; 0x39b
 80057e8:	2b04      	cmp	r3, #4
 80057ea:	f000 80cf 	beq.w	800598c <USBH_MIDI_Handle.4181+0x1d4>
 80057ee:	2000      	movs	r0, #0
 80057f0:	b009      	add	sp, #36	; 0x24
 80057f2:	ecbd 8b04 	vpop	{d8-d9}
 80057f6:	e8bd 8ff0 	ldmia.w	sp!, {r4, r5, r6, r7, r8, r9, sl, fp, pc}
 80057fa:	f894 2041 	ldrb.w	r2, [r4, #65]	; 0x41
 80057fe:	4b7f      	ldr	r3, [pc, #508]	; (80059fc <USBH_MIDI_Handle.4181+0x244>)
 8005800:	0156      	lsls	r6, r2, #5
 8005802:	199d      	adds	r5, r3, r6
 8005804:	eb03 1042 	add.w	r0, r3, r2, lsl #5
 8005808:	f102 0815 	add.w	r8, r2, #21
 800580c:	f8b5 c3b2 	ldrh.w	ip, [r5, #946]	; 0x3b2
 8005810:	f890 03c4 	ldrb.w	r0, [r0, #964]	; 0x3c4
 8005814:	9500      	str	r5, [sp, #0]
 8005816:	f04f 0940 	mov.w	r9, #64	; 0x40
 800581a:	eb03 1748 	add.w	r7, r3, r8, lsl #5
 800581e:	f109 3aff 	add.w	sl, r9, #4294967295
 8005822:	9701      	str	r7, [sp, #4]
 8005824:	f04f 0b01 	mov.w	fp, #1
 8005828:	f885 b3ae 	strb.w	fp, [r5, #942]	; 0x3ae
 800582c:	2800      	cmp	r0, #0
 800582e:	f8dd b004 	ldr.w	fp, [sp, #4]
 8005832:	4f73      	ldr	r7, [pc, #460]	; (8005a00 <USBH_MIDI_Handle.4181+0x248>)
 8005834:	f8cb 7118 	str.w	r7, [fp, #280]	; 0x118
 8005838:	44e2      	add	sl, ip
 800583a:	bf18      	it	ne
 800583c:	2002      	movne	r0, #2
 800583e:	fbba fafc 	udiv	sl, sl, ip
 8005842:	f8c5 93bc 	str.w	r9, [r5, #956]	; 0x3bc
 8005846:	4649      	mov	r1, r9
 8005848:	f88b 0114 	strb.w	r0, [fp, #276]	; 0x114
 800584c:	fa1f fa8a 	uxth.w	sl, sl
 8005850:	9800      	ldr	r0, [sp, #0]
 8005852:	eb03 0902 	add.w	r9, r3, r2
 8005856:	2500      	movs	r5, #0
 8005858:	f5ba 7f80 	cmp.w	sl, #256	; 0x100
 800585c:	f8c0 53c0 	str.w	r5, [r0, #960]	; 0x3c0
 8005860:	f889 539b 	strb.w	r5, [r9, #923]	; 0x39b
 8005864:	4628      	mov	r0, r5
 8005866:	d848      	bhi.n	80058fa <USBH_MIDI_Handle.4181+0x142>
 8005868:	f3ca 0c09 	ubfx	ip, sl, #0, #10
 800586c:	199d      	adds	r5, r3, r6
 800586e:	f895 93ae 	ldrb.w	r9, [r5, #942]	; 0x3ae
 8005872:	f1b9 0f00 	cmp.w	r9, #0
 8005876:	d005      	beq.n	8005884 <USBH_MIDI_Handle.4181+0xcc>
 8005878:	f8b5 13b2 	ldrh.w	r1, [r5, #946]	; 0x3b2
 800587c:	fb01 f10a 	mul.w	r1, r1, sl
 8005880:	f8c5 13bc 	str.w	r1, [r5, #956]	; 0x3bc
 8005884:	eb03 1748 	add.w	r7, r3, r8, lsl #5
 8005888:	eb03 0582 	add.w	r5, r3, r2, lsl #2
 800588c:	f897 a114 	ldrb.w	sl, [r7, #276]	; 0x114
 8005890:	f893 9003 	ldrb.w	r9, [r3, #3]
 8005894:	f8d5 5090 	ldr.w	r5, [r5, #144]	; 0x90
 8005898:	f361 0012 	bfi	r0, r1, #0, #19
 800589c:	f36c 40dc 	bfi	r0, ip, #19, #10
 80058a0:	f36a 705e 	bfi	r0, sl, #29, #2
 80058a4:	f1b9 0f01 	cmp.w	r9, #1
 80058a8:	6128      	str	r0, [r5, #16]
 80058aa:	bf08      	it	eq
 80058ac:	f8d7 0118 	ldreq.w	r0, [r7, #280]	; 0x118
 80058b0:	695f      	ldr	r7, [r3, #20]
 80058b2:	bf08      	it	eq
 80058b4:	6168      	streq	r0, [r5, #20]
 80058b6:	6828      	ldr	r0, [r5, #0]
 80058b8:	f8d7 c008 	ldr.w	ip, [r7, #8]
 80058bc:	f8df 913c 	ldr.w	r9, [pc, #316]	; 80059fc <USBH_MIDI_Handle.4181+0x244>
 80058c0:	f00c 0c01 	and.w	ip, ip, #1
 80058c4:	f08c 0c01 	eor.w	ip, ip, #1
 80058c8:	f36c 705d 	bfi	r0, ip, #29, #1
 80058cc:	f040 4000 	orr.w	r0, r0, #2147483648	; 0x80000000
 80058d0:	f36f 709e 	bfc	r0, #30, #1
 80058d4:	6028      	str	r0, [r5, #0]
 80058d6:	78d8      	ldrb	r0, [r3, #3]
 80058d8:	2800      	cmp	r0, #0
 80058da:	d13e      	bne.n	800595a <USBH_MIDI_Handle.4181+0x1a2>
 80058dc:	444e      	add	r6, r9
 80058de:	f506 766a 	add.w	r6, r6, #936	; 0x3a8
 80058e2:	79b0      	ldrb	r0, [r6, #6]
 80058e4:	2800      	cmp	r0, #0
 80058e6:	d138      	bne.n	800595a <USBH_MIDI_Handle.4181+0x1a2>
 80058e8:	2900      	cmp	r1, #0
 80058ea:	d036      	beq.n	800595a <USBH_MIDI_Handle.4181+0x1a2>
 80058ec:	7a70      	ldrb	r0, [r6, #9]
 80058ee:	2803      	cmp	r0, #3
 80058f0:	d820      	bhi.n	8005934 <USBH_MIDI_Handle.4181+0x17c>
 80058f2:	e8df f000 	tbb	[pc, r0]
 80058f6:	123d      	.short	0x123d
 80058f8:	123d      	.short	0x123d
 80058fa:	9d00      	ldr	r5, [sp, #0]
 80058fc:	ea4f 210c 	mov.w	r1, ip, lsl #8
 8005900:	f44f 7c80 	mov.w	ip, #256	; 0x100
 8005904:	f8c5 13bc 	str.w	r1, [r5, #956]	; 0x3bc
 8005908:	46e2      	mov	sl, ip
 800590a:	e7af      	b.n	800586c <USBH_MIDI_Handle.4181+0xb4>
 800590c:	4b3d      	ldr	r3, [pc, #244]	; (8005a04 <USBH_MIDI_Handle.4181+0x24c>)
 800590e:	781a      	ldrb	r2, [r3, #0]
 8005910:	2a01      	cmp	r2, #1
 8005912:	d05f      	beq.n	80059d4 <USBH_MIDI_Handle.4181+0x21c>
 8005914:	2303      	movs	r3, #3
 8005916:	7023      	strb	r3, [r4, #0]
 8005918:	e769      	b.n	80057ee <USBH_MIDI_Handle.4181+0x36>
 800591a:	6938      	ldr	r0, [r7, #16]
 800591c:	9003      	str	r0, [sp, #12]
 800591e:	1ccd      	adds	r5, r1, #3
 8005920:	b280      	uxth	r0, r0
 8005922:	f3c5 058f 	ubfx	r5, r5, #2, #16
 8005926:	42a8      	cmp	r0, r5
 8005928:	d204      	bcs.n	8005934 <USBH_MIDI_Handle.4181+0x17c>
 800592a:	68d8      	ldr	r0, [r3, #12]
 800592c:	6985      	ldr	r5, [r0, #24]
 800592e:	f045 6580 	orr.w	r5, r5, #67108864	; 0x4000000
 8005932:	6185      	str	r5, [r0, #24]
 8005934:	b289      	uxth	r1, r1
 8005936:	eb03 1848 	add.w	r8, r3, r8, lsl #5
 800593a:	3103      	adds	r1, #3
 800593c:	eb03 0382 	add.w	r3, r3, r2, lsl #2
 8005940:	1089      	asrs	r1, r1, #2
 8005942:	f8d8 0118 	ldr.w	r0, [r8, #280]	; 0x118
 8005946:	f8d3 50d0 	ldr.w	r5, [r3, #208]	; 0xd0
 800594a:	d006      	beq.n	800595a <USBH_MIDI_Handle.4181+0x1a2>
 800594c:	2300      	movs	r3, #0
 800594e:	3301      	adds	r3, #1
 8005950:	f850 2b04 	ldr.w	r2, [r0], #4
 8005954:	602a      	str	r2, [r5, #0]
 8005956:	4299      	cmp	r1, r3
 8005958:	d1f9      	bne.n	800594e <USBH_MIDI_Handle.4181+0x196>
 800595a:	4a2a      	ldr	r2, [pc, #168]	; (8005a04 <USBH_MIDI_Handle.4181+0x24c>)
 800595c:	2101      	movs	r1, #1
 800595e:	2304      	movs	r3, #4
 8005960:	2000      	movs	r0, #0
 8005962:	7011      	strb	r1, [r2, #0]
 8005964:	7023      	strb	r3, [r4, #0]
 8005966:	b009      	add	sp, #36	; 0x24
 8005968:	ecbd 8b04 	vpop	{d8-d9}
 800596c:	e8bd 8ff0 	ldmia.w	sp!, {r4, r5, r6, r7, r8, r9, sl, fp, pc}
 8005970:	68dd      	ldr	r5, [r3, #12]
 8005972:	6ae8      	ldr	r0, [r5, #44]	; 0x2c
 8005974:	9005      	str	r0, [sp, #20]
 8005976:	1cce      	adds	r6, r1, #3
 8005978:	b280      	uxth	r0, r0
 800597a:	f3c6 068f 	ubfx	r6, r6, #2, #16
 800597e:	42b0      	cmp	r0, r6
 8005980:	d2d8      	bcs.n	8005934 <USBH_MIDI_Handle.4181+0x17c>
 8005982:	69a8      	ldr	r0, [r5, #24]
 8005984:	f040 0020 	orr.w	r0, r0, #32
 8005988:	61a8      	str	r0, [r5, #24]
 800598a:	e7d3      	b.n	8005934 <USBH_MIDI_Handle.4181+0x17c>
 800598c:	f894 5044 	ldrb.w	r5, [r4, #68]	; 0x44
 8005990:	830d      	strh	r5, [r1, #24]
 8005992:	321e      	adds	r2, #30
 8005994:	eb00 1042 	add.w	r0, r0, r2, lsl #5
 8005998:	2300      	movs	r3, #0
 800599a:	062a      	lsls	r2, r5, #24
 800599c:	f04f 0702 	mov.w	r7, #2
 80059a0:	f04f 0601 	mov.w	r6, #1
 80059a4:	82cb      	strh	r3, [r1, #22]
 80059a6:	834b      	strh	r3, [r1, #26]
 80059a8:	750f      	strb	r7, [r1, #20]
 80059aa:	754e      	strb	r6, [r1, #21]
 80059ac:	bf4c      	ite	mi
 80059ae:	7103      	strbmi	r3, [r0, #4]
 80059b0:	7143      	strbpl	r3, [r0, #5]
 80059b2:	78cb      	ldrb	r3, [r1, #3]
 80059b4:	2b01      	cmp	r3, #1
 80059b6:	d014      	beq.n	80059e2 <USBH_MIDI_Handle.4181+0x22a>
 80059b8:	2b02      	cmp	r3, #2
 80059ba:	f47f af18 	bne.w	80057ee <USBH_MIDI_Handle.4181+0x36>
 80059be:	7f0b      	ldrb	r3, [r1, #28]
 80059c0:	2b0d      	cmp	r3, #13
 80059c2:	f001 80ac 	beq.w	8006b1e <USBH_MIDI_Handle.4181+0x1366>
 80059c6:	3b0b      	subs	r3, #11
 80059c8:	b2db      	uxtb	r3, r3
 80059ca:	2b01      	cmp	r3, #1
 80059cc:	bf9c      	itt	ls
 80059ce:	2301      	movls	r3, #1
 80059d0:	70cb      	strbls	r3, [r1, #3]
 80059d2:	e70c      	b.n	80057ee <USBH_MIDI_Handle.4181+0x36>
 80059d4:	78a2      	ldrb	r2, [r4, #2]
 80059d6:	2100      	movs	r1, #0
 80059d8:	7019      	strb	r1, [r3, #0]
 80059da:	b9aa      	cbnz	r2, 8005a08 <USBH_MIDI_Handle.4181+0x250>
 80059dc:	2300      	movs	r3, #0
 80059de:	70a3      	strb	r3, [r4, #2]
 80059e0:	e798      	b.n	8005914 <USBH_MIDI_Handle.4181+0x15c>
 80059e2:	780c      	ldrb	r4, [r1, #0]
 80059e4:	770b      	strb	r3, [r1, #28]
 80059e6:	2007      	movs	r0, #7
 80059e8:	2300      	movs	r3, #0
 80059ea:	2202      	movs	r2, #2
 80059ec:	704c      	strb	r4, [r1, #1]
 80059ee:	7008      	strb	r0, [r1, #0]
 80059f0:	608b      	str	r3, [r1, #8]
 80059f2:	818b      	strh	r3, [r1, #12]
 80059f4:	70ca      	strb	r2, [r1, #3]
 80059f6:	e6fa      	b.n	80057ee <USBH_MIDI_Handle.4181+0x36>
 80059f8:	20014d40 	.word	0x20014d40
 80059fc:	20014d90 	.word	0x20014d90
 8005a00:	20014d41 	.word	0x20014d41
 8005a04:	20014d3d 	.word	0x20014d3d
 8005a08:	49d9      	ldr	r1, [pc, #868]	; (8005d70 <USBH_MIDI_Handle.4181+0x5b8>)
 8005a0a:	4bda      	ldr	r3, [pc, #872]	; (8005d74 <USBH_MIDI_Handle.4181+0x5bc>)
 8005a0c:	68c8      	ldr	r0, [r1, #12]
 8005a0e:	f002 02f0 	and.w	r2, r2, #240	; 0xf0
 8005a12:	f44f 4500 	mov.w	r5, #32768	; 0x8000
 8005a16:	2108      	movs	r1, #8
 8005a18:	2ab0      	cmp	r2, #176	; 0xb0
 8005a1a:	8305      	strh	r5, [r0, #24]
 8005a1c:	6019      	str	r1, [r3, #0]
 8005a1e:	d1dd      	bne.n	80059dc <USBH_MIDI_Handle.4181+0x224>
 8005a20:	78e2      	ldrb	r2, [r4, #3]
 8005a22:	7923      	ldrb	r3, [r4, #4]
 8005a24:	3a02      	subs	r2, #2
 8005a26:	2a75      	cmp	r2, #117	; 0x75
 8005a28:	d8d8      	bhi.n	80059dc <USBH_MIDI_Handle.4181+0x224>
 8005a2a:	a001      	add	r0, pc, #4	; (adr r0, 8005a30 <USBH_MIDI_Handle.4181+0x278>)
 8005a2c:	f850 f022 	ldr.w	pc, [r0, r2, lsl #2]
 8005a30:	0800601d 	.word	0x0800601d
 8005a34:	08005ffb 	.word	0x08005ffb
 8005a38:	080059dd 	.word	0x080059dd
 8005a3c:	08005fc3 	.word	0x08005fc3
 8005a40:	08005f31 	.word	0x08005f31
 8005a44:	080059dd 	.word	0x080059dd
 8005a48:	08005ead 	.word	0x08005ead
 8005a4c:	08005e79 	.word	0x08005e79
 8005a50:	080059dd 	.word	0x080059dd
 8005a54:	080059dd 	.word	0x080059dd
 8005a58:	08006367 	.word	0x08006367
 8005a5c:	08006319 	.word	0x08006319
 8005a60:	080062dd 	.word	0x080062dd
 8005a64:	080062c3 	.word	0x080062c3
 8005a68:	080062a9 	.word	0x080062a9
 8005a6c:	0800628f 	.word	0x0800628f
 8005a70:	08006263 	.word	0x08006263
 8005a74:	08006243 	.word	0x08006243
 8005a78:	080063f7 	.word	0x080063f7
 8005a7c:	080063cf 	.word	0x080063cf
 8005a80:	0800639d 	.word	0x0800639d
 8005a84:	0800638d 	.word	0x0800638d
 8005a88:	08005e41 	.word	0x08005e41
 8005a8c:	08005e2d 	.word	0x08005e2d
 8005a90:	08005e1f 	.word	0x08005e1f
 8005a94:	08005e11 	.word	0x08005e11
 8005a98:	08005e03 	.word	0x08005e03
 8005a9c:	08005de7 	.word	0x08005de7
 8005aa0:	08005dbd 	.word	0x08005dbd
 8005aa4:	08005d51 	.word	0x08005d51
 8005aa8:	080059dd 	.word	0x080059dd
 8005aac:	08005d31 	.word	0x08005d31
 8005ab0:	08005d11 	.word	0x08005d11
 8005ab4:	08005cf1 	.word	0x08005cf1
 8005ab8:	08005cd1 	.word	0x08005cd1
 8005abc:	08005c45 	.word	0x08005c45
 8005ac0:	08005c27 	.word	0x08005c27
 8005ac4:	08005c09 	.word	0x08005c09
 8005ac8:	08006a29 	.word	0x08006a29
 8005acc:	08006961 	.word	0x08006961
 8005ad0:	08006927 	.word	0x08006927
 8005ad4:	080068f5 	.word	0x080068f5
 8005ad8:	080059dd 	.word	0x080059dd
 8005adc:	080059dd 	.word	0x080059dd
 8005ae0:	080059dd 	.word	0x080059dd
 8005ae4:	080059dd 	.word	0x080059dd
 8005ae8:	080059dd 	.word	0x080059dd
 8005aec:	080059dd 	.word	0x080059dd
 8005af0:	080068bb 	.word	0x080068bb
 8005af4:	080068a1 	.word	0x080068a1
 8005af8:	0800686f 	.word	0x0800686f
 8005afc:	080067e9 	.word	0x080067e9
 8005b00:	08006acf 	.word	0x08006acf
 8005b04:	08006aa9 	.word	0x08006aa9
 8005b08:	08006a89 	.word	0x08006a89
 8005b0c:	08006a6f 	.word	0x08006a6f
 8005b10:	08006b05 	.word	0x08006b05
 8005b14:	08006adb 	.word	0x08006adb
 8005b18:	08006465 	.word	0x08006465
 8005b1c:	08006417 	.word	0x08006417
 8005b20:	08006647 	.word	0x08006647
 8005b24:	080059dd 	.word	0x080059dd
 8005b28:	080059dd 	.word	0x080059dd
 8005b2c:	0800662d 	.word	0x0800662d
 8005b30:	08006613 	.word	0x08006613
 8005b34:	080065ed 	.word	0x080065ed
 8005b38:	080059dd 	.word	0x080059dd
 8005b3c:	080059dd 	.word	0x080059dd
 8005b40:	080059dd 	.word	0x080059dd
 8005b44:	080059dd 	.word	0x080059dd
 8005b48:	080059dd 	.word	0x080059dd
 8005b4c:	080059dd 	.word	0x080059dd
 8005b50:	080059dd 	.word	0x080059dd
 8005b54:	080059dd 	.word	0x080059dd
 8005b58:	0800651f 	.word	0x0800651f
 8005b5c:	080059dd 	.word	0x080059dd
 8005b60:	080059dd 	.word	0x080059dd
 8005b64:	080059dd 	.word	0x080059dd
 8005b68:	080059dd 	.word	0x080059dd
 8005b6c:	08005c27 	.word	0x08005c27
 8005b70:	08005c09 	.word	0x08005c09
 8005b74:	080059dd 	.word	0x080059dd
 8005b78:	080059dd 	.word	0x080059dd
 8005b7c:	08006499 	.word	0x08006499
 8005b80:	08006743 	.word	0x08006743
 8005b84:	08006719 	.word	0x08006719
 8005b88:	080066ef 	.word	0x080066ef
 8005b8c:	080059dd 	.word	0x080059dd
 8005b90:	08006669 	.word	0x08006669
 8005b94:	08006793 	.word	0x08006793
 8005b98:	0800676d 	.word	0x0800676d
 8005b9c:	080067c9 	.word	0x080067c9
 8005ba0:	08005e55 	.word	0x08005e55
 8005ba4:	0800621d 	.word	0x0800621d
 8005ba8:	080061f7 	.word	0x080061f7
 8005bac:	080061d1 	.word	0x080061d1
 8005bb0:	080059dd 	.word	0x080059dd
 8005bb4:	080059dd 	.word	0x080059dd
 8005bb8:	080059dd 	.word	0x080059dd
 8005bbc:	080059dd 	.word	0x080059dd
 8005bc0:	080059dd 	.word	0x080059dd
 8005bc4:	080059dd 	.word	0x080059dd
 8005bc8:	080059dd 	.word	0x080059dd
 8005bcc:	080061b9 	.word	0x080061b9
 8005bd0:	08006103 	.word	0x08006103
 8005bd4:	080059dd 	.word	0x080059dd
 8005bd8:	080060d7 	.word	0x080060d7
 8005bdc:	080060ab 	.word	0x080060ab
 8005be0:	0800607f 	.word	0x0800607f
 8005be4:	080059dd 	.word	0x080059dd
 8005be8:	080059dd 	.word	0x080059dd
 8005bec:	080059dd 	.word	0x080059dd
 8005bf0:	080059dd 	.word	0x080059dd
 8005bf4:	080059dd 	.word	0x080059dd
 8005bf8:	080059dd 	.word	0x080059dd
 8005bfc:	08006053 	.word	0x08006053
 8005c00:	080064c3 	.word	0x080064c3
 8005c04:	080064f1 	.word	0x080064f1
 8005c08:	ee07 3a90 	vmov	s15, r3
 8005c0c:	eeb8 7ae7 	vcvt.f32.s32	s14, s15
 8005c10:	eddf 7a59 	vldr	s15, [pc, #356]	; 8005d78 <USBH_MIDI_Handle.4181+0x5c0>
 8005c14:	eeb4 7a67 	vcmp.f32	s14, s15
 8005c18:	eef1 fa10 	vmrs	APSR_nzcv, fpscr
 8005c1c:	f47f aede 	bne.w	80059dc <USBH_MIDI_Handle.4181+0x224>
 8005c20:	f000 fff2 	bl	8006c08 <MagicPatch.part.1.6386>
 8005c24:	e6da      	b.n	80059dc <USBH_MIDI_Handle.4181+0x224>
 8005c26:	ee05 3a90 	vmov	s11, r3
 8005c2a:	eddf 7a53 	vldr	s15, [pc, #332]	; 8005d78 <USBH_MIDI_Handle.4181+0x5c0>
 8005c2e:	eeb8 7ae5 	vcvt.f32.s32	s14, s11
 8005c32:	eeb4 7a67 	vcmp.f32	s14, s15
 8005c36:	eef1 fa10 	vmrs	APSR_nzcv, fpscr
 8005c3a:	f47f aecf 	bne.w	80059dc <USBH_MIDI_Handle.4181+0x224>
 8005c3e:	f001 fe5f 	bl	8007900 <MagicFX.part.0.6384>
 8005c42:	e6cb      	b.n	80059dc <USBH_MIDI_Handle.4181+0x224>
 8005c44:	2b7f      	cmp	r3, #127	; 0x7f
 8005c46:	f47f aec9 	bne.w	80059dc <USBH_MIDI_Handle.4181+0x224>
 8005c4a:	4b4c      	ldr	r3, [pc, #304]	; (8005d7c <USBH_MIDI_Handle.4181+0x5c4>)
 8005c4c:	4d4c      	ldr	r5, [pc, #304]	; (8005d80 <USBH_MIDI_Handle.4181+0x5c8>)
 8005c4e:	4a4d      	ldr	r2, [pc, #308]	; (8005d84 <USBH_MIDI_Handle.4181+0x5cc>)
 8005c50:	605a      	str	r2, [r3, #4]
 8005c52:	606a      	str	r2, [r5, #4]
 8005c54:	f04f 527c 	mov.w	r2, #1056964608	; 0x3f000000
 8005c58:	f241 51f4 	movw	r1, #5620	; 0x15f4
 8005c5c:	60aa      	str	r2, [r5, #8]
 8005c5e:	602a      	str	r2, [r5, #0]
 8005c60:	609a      	str	r2, [r3, #8]
 8005c62:	601a      	str	r2, [r3, #0]
 8005c64:	f240 5277 	movw	r2, #1399	; 0x577
 8005c68:	4f47      	ldr	r7, [pc, #284]	; (8005d88 <USBH_MIDI_Handle.4181+0x5d0>)
 8005c6a:	4e48      	ldr	r6, [pc, #288]	; (8005d8c <USBH_MIDI_Handle.4181+0x5d4>)
 8005c6c:	f8df c134 	ldr.w	ip, [pc, #308]	; 8005da4 <USBH_MIDI_Handle.4181+0x5ec>
 8005c70:	eddf 7a47 	vldr	s15, [pc, #284]	; 8005d90 <USBH_MIDI_Handle.4181+0x5d8>
 8005c74:	60ea      	str	r2, [r5, #12]
 8005c76:	60da      	str	r2, [r3, #12]
 8005c78:	f8df 912c 	ldr.w	r9, [pc, #300]	; 8005da8 <USBH_MIDI_Handle.4181+0x5f0>
 8005c7c:	f8df e12c 	ldr.w	lr, [pc, #300]	; 8005dac <USBH_MIDI_Handle.4181+0x5f4>
 8005c80:	f8df 812c 	ldr.w	r8, [pc, #300]	; 8005db0 <USBH_MIDI_Handle.4181+0x5f8>
 8005c84:	f8df b12c 	ldr.w	fp, [pc, #300]	; 8005db4 <USBH_MIDI_Handle.4181+0x5fc>
 8005c88:	f8df a12c 	ldr.w	sl, [pc, #300]	; 8005db8 <USBH_MIDI_Handle.4181+0x600>
 8005c8c:	f8c9 8000 	str.w	r8, [r9]
 8005c90:	2201      	movs	r2, #1
 8005c92:	545a      	strb	r2, [r3, r1]
 8005c94:	546a      	strb	r2, [r5, r1]
 8005c96:	f103 0010 	add.w	r0, r3, #16
 8005c9a:	2100      	movs	r1, #0
 8005c9c:	2300      	movs	r3, #0
 8005c9e:	f44f 52af 	mov.w	r2, #5600	; 0x15e0
 8005ca2:	f8cc 8000 	str.w	r8, [ip]
 8005ca6:	edc7 7a01 	vstr	s15, [r7, #4]
 8005caa:	f8c7 b008 	str.w	fp, [r7, #8]
 8005cae:	f8c7 e000 	str.w	lr, [r7]
 8005cb2:	f8c6 e000 	str.w	lr, [r6]
 8005cb6:	f8c6 a004 	str.w	sl, [r6, #4]
 8005cba:	60b3      	str	r3, [r6, #8]
 8005cbc:	f004 fa6a 	bl	800a194 <memset>
 8005cc0:	f105 0010 	add.w	r0, r5, #16
 8005cc4:	2100      	movs	r1, #0
 8005cc6:	f44f 52af 	mov.w	r2, #5600	; 0x15e0
 8005cca:	f004 fa63 	bl	800a194 <memset>
 8005cce:	e685      	b.n	80059dc <USBH_MIDI_Handle.4181+0x224>
 8005cd0:	ee05 3a90 	vmov	s11, r3
 8005cd4:	eddf 7a28 	vldr	s15, [pc, #160]	; 8005d78 <USBH_MIDI_Handle.4181+0x5c0>
 8005cd8:	eeb8 7ae5 	vcvt.f32.s32	s14, s11
 8005cdc:	eeb4 7a67 	vcmp.f32	s14, s15
 8005ce0:	eef1 fa10 	vmrs	APSR_nzcv, fpscr
 8005ce4:	f47f ae7a 	bne.w	80059dc <USBH_MIDI_Handle.4181+0x224>
 8005ce8:	4b2a      	ldr	r3, [pc, #168]	; (8005d94 <USBH_MIDI_Handle.4181+0x5dc>)
 8005cea:	2207      	movs	r2, #7
 8005cec:	729a      	strb	r2, [r3, #10]
 8005cee:	e675      	b.n	80059dc <USBH_MIDI_Handle.4181+0x224>
 8005cf0:	ee07 3a90 	vmov	s15, r3
 8005cf4:	eeb8 7ae7 	vcvt.f32.s32	s14, s15
 8005cf8:	eddf 7a1f 	vldr	s15, [pc, #124]	; 8005d78 <USBH_MIDI_Handle.4181+0x5c0>
 8005cfc:	eeb4 7a67 	vcmp.f32	s14, s15
 8005d00:	eef1 fa10 	vmrs	APSR_nzcv, fpscr
 8005d04:	f47f ae6a 	bne.w	80059dc <USBH_MIDI_Handle.4181+0x224>
 8005d08:	4b22      	ldr	r3, [pc, #136]	; (8005d94 <USBH_MIDI_Handle.4181+0x5dc>)
 8005d0a:	22f9      	movs	r2, #249	; 0xf9
 8005d0c:	729a      	strb	r2, [r3, #10]
 8005d0e:	e665      	b.n	80059dc <USBH_MIDI_Handle.4181+0x224>
 8005d10:	ee05 3a90 	vmov	s11, r3
 8005d14:	eddf 7a18 	vldr	s15, [pc, #96]	; 8005d78 <USBH_MIDI_Handle.4181+0x5c0>
 8005d18:	eeb8 7ae5 	vcvt.f32.s32	s14, s11
 8005d1c:	eeb4 7a67 	vcmp.f32	s14, s15
 8005d20:	eef1 fa10 	vmrs	APSR_nzcv, fpscr
 8005d24:	f47f ae5a 	bne.w	80059dc <USBH_MIDI_Handle.4181+0x224>
 8005d28:	4b1a      	ldr	r3, [pc, #104]	; (8005d94 <USBH_MIDI_Handle.4181+0x5dc>)
 8005d2a:	2202      	movs	r2, #2
 8005d2c:	729a      	strb	r2, [r3, #10]
 8005d2e:	e655      	b.n	80059dc <USBH_MIDI_Handle.4181+0x224>
 8005d30:	ee07 3a90 	vmov	s15, r3
 8005d34:	eeb8 7ae7 	vcvt.f32.s32	s14, s15
 8005d38:	eddf 7a0f 	vldr	s15, [pc, #60]	; 8005d78 <USBH_MIDI_Handle.4181+0x5c0>
 8005d3c:	eeb4 7a67 	vcmp.f32	s14, s15
 8005d40:	eef1 fa10 	vmrs	APSR_nzcv, fpscr
 8005d44:	f47f ae4a 	bne.w	80059dc <USBH_MIDI_Handle.4181+0x224>
 8005d48:	4b12      	ldr	r3, [pc, #72]	; (8005d94 <USBH_MIDI_Handle.4181+0x5dc>)
 8005d4a:	22fe      	movs	r2, #254	; 0xfe
 8005d4c:	729a      	strb	r2, [r3, #10]
 8005d4e:	e645      	b.n	80059dc <USBH_MIDI_Handle.4181+0x224>
 8005d50:	2b00      	cmp	r3, #0
 8005d52:	f000 8724 	beq.w	8006b9e <USBH_MIDI_Handle.4181+0x13e6>
 8005d56:	2b7f      	cmp	r3, #127	; 0x7f
 8005d58:	f47f ae40 	bne.w	80059dc <USBH_MIDI_Handle.4181+0x224>
 8005d5c:	490e      	ldr	r1, [pc, #56]	; (8005d98 <USBH_MIDI_Handle.4181+0x5e0>)
 8005d5e:	4a0f      	ldr	r2, [pc, #60]	; (8005d9c <USBH_MIDI_Handle.4181+0x5e4>)
 8005d60:	4b0f      	ldr	r3, [pc, #60]	; (8005da0 <USBH_MIDI_Handle.4181+0x5e8>)
 8005d62:	684e      	ldr	r6, [r1, #4]
 8005d64:	6855      	ldr	r5, [r2, #4]
 8005d66:	6858      	ldr	r0, [r3, #4]
 8005d68:	600e      	str	r6, [r1, #0]
 8005d6a:	6015      	str	r5, [r2, #0]
 8005d6c:	6018      	str	r0, [r3, #0]
 8005d6e:	e635      	b.n	80059dc <USBH_MIDI_Handle.4181+0x224>
 8005d70:	20000084 	.word	0x20000084
 8005d74:	20014d38 	.word	0x20014d38
 8005d78:	42fe0000 	.word	0x42fe0000
 8005d7c:	100016b4 	.word	0x100016b4
 8005d80:	100000bc 	.word	0x100000bc
 8005d84:	be4ccccd 	.word	0xbe4ccccd
 8005d88:	10002cac 	.word	0x10002cac
 8005d8c:	10002cbc 	.word	0x10002cbc
 8005d90:	3de147ae 	.word	0x3de147ae
 8005d94:	2000052c 	.word	0x2000052c
 8005d98:	10002d0c 	.word	0x10002d0c
 8005d9c:	10002d2c 	.word	0x10002d2c
 8005da0:	10002d4c 	.word	0x10002d4c
 8005da4:	10002ca4 	.word	0x10002ca4
 8005da8:	100016ac 	.word	0x100016ac
 8005dac:	42480000 	.word	0x42480000
 8005db0:	43700000 	.word	0x43700000
 8005db4:	3fc90fdb 	.word	0x3fc90fdb
 8005db8:	3df5c28f 	.word	0x3df5c28f
 8005dbc:	2b00      	cmp	r3, #0
 8005dbe:	f000 86d1 	beq.w	8006b64 <USBH_MIDI_Handle.4181+0x13ac>
 8005dc2:	2b7f      	cmp	r3, #127	; 0x7f
 8005dc4:	f47f ae0a 	bne.w	80059dc <USBH_MIDI_Handle.4181+0x224>
 8005dc8:	4ed4      	ldr	r6, [pc, #848]	; (800611c <USBH_MIDI_Handle.4181+0x964>)
 8005dca:	4dd5      	ldr	r5, [pc, #852]	; (8006120 <USBH_MIDI_Handle.4181+0x968>)
 8005dcc:	ed96 0a01 	vldr	s0, [r6, #4]
 8005dd0:	f004 fa2a 	bl	800a228 <fabsf>
 8005dd4:	ed86 0a01 	vstr	s0, [r6, #4]
 8005dd8:	ed95 0a01 	vldr	s0, [r5, #4]
 8005ddc:	f004 fa24 	bl	800a228 <fabsf>
 8005de0:	ed85 0a01 	vstr	s0, [r5, #4]
 8005de4:	e5fa      	b.n	80059dc <USBH_MIDI_Handle.4181+0x224>
 8005de6:	2b00      	cmp	r3, #0
 8005de8:	f000 86d0 	beq.w	8006b8c <USBH_MIDI_Handle.4181+0x13d4>
 8005dec:	2b7f      	cmp	r3, #127	; 0x7f
 8005dee:	f47f adf5 	bne.w	80059dc <USBH_MIDI_Handle.4181+0x224>
 8005df2:	f241 53f4 	movw	r3, #5620	; 0x15f4
 8005df6:	48ca      	ldr	r0, [pc, #808]	; (8006120 <USBH_MIDI_Handle.4181+0x968>)
 8005df8:	49c8      	ldr	r1, [pc, #800]	; (800611c <USBH_MIDI_Handle.4181+0x964>)
 8005dfa:	22ff      	movs	r2, #255	; 0xff
 8005dfc:	54c2      	strb	r2, [r0, r3]
 8005dfe:	54ca      	strb	r2, [r1, r3]
 8005e00:	e5ec      	b.n	80059dc <USBH_MIDI_Handle.4181+0x224>
 8005e02:	2b3f      	cmp	r3, #63	; 0x3f
 8005e04:	4bc7      	ldr	r3, [pc, #796]	; (8006124 <USBH_MIDI_Handle.4181+0x96c>)
 8005e06:	bf8c      	ite	hi
 8005e08:	2201      	movhi	r2, #1
 8005e0a:	2200      	movls	r2, #0
 8005e0c:	701a      	strb	r2, [r3, #0]
 8005e0e:	e5e5      	b.n	80059dc <USBH_MIDI_Handle.4181+0x224>
 8005e10:	2b3f      	cmp	r3, #63	; 0x3f
 8005e12:	4bc5      	ldr	r3, [pc, #788]	; (8006128 <USBH_MIDI_Handle.4181+0x970>)
 8005e14:	bf8c      	ite	hi
 8005e16:	2201      	movhi	r2, #1
 8005e18:	2200      	movls	r2, #0
 8005e1a:	701a      	strb	r2, [r3, #0]
 8005e1c:	e5de      	b.n	80059dc <USBH_MIDI_Handle.4181+0x224>
 8005e1e:	2b3f      	cmp	r3, #63	; 0x3f
 8005e20:	4bc2      	ldr	r3, [pc, #776]	; (800612c <USBH_MIDI_Handle.4181+0x974>)
 8005e22:	bf8c      	ite	hi
 8005e24:	2201      	movhi	r2, #1
 8005e26:	2200      	movls	r2, #0
 8005e28:	72da      	strb	r2, [r3, #11]
 8005e2a:	e5d7      	b.n	80059dc <USBH_MIDI_Handle.4181+0x224>
 8005e2c:	2b00      	cmp	r3, #0
 8005e2e:	f000 86c5 	beq.w	8006bbc <USBH_MIDI_Handle.4181+0x1404>
 8005e32:	2b7f      	cmp	r3, #127	; 0x7f
 8005e34:	f47f add2 	bne.w	80059dc <USBH_MIDI_Handle.4181+0x224>
 8005e38:	4bbc      	ldr	r3, [pc, #752]	; (800612c <USBH_MIDI_Handle.4181+0x974>)
 8005e3a:	2201      	movs	r2, #1
 8005e3c:	739a      	strb	r2, [r3, #14]
 8005e3e:	e5cd      	b.n	80059dc <USBH_MIDI_Handle.4181+0x224>
 8005e40:	2b00      	cmp	r3, #0
 8005e42:	f000 8674 	beq.w	8006b2e <USBH_MIDI_Handle.4181+0x1376>
 8005e46:	2b7f      	cmp	r3, #127	; 0x7f
 8005e48:	f47f adc8 	bne.w	80059dc <USBH_MIDI_Handle.4181+0x224>
 8005e4c:	4bb7      	ldr	r3, [pc, #732]	; (800612c <USBH_MIDI_Handle.4181+0x974>)
 8005e4e:	2201      	movs	r2, #1
 8005e50:	731a      	strb	r2, [r3, #12]
 8005e52:	e5c3      	b.n	80059dc <USBH_MIDI_Handle.4181+0x224>
 8005e54:	ee07 3a90 	vmov	s15, r3
 8005e58:	ed9f 7ab5 	vldr	s14, [pc, #724]	; 8006130 <USBH_MIDI_Handle.4181+0x978>
 8005e5c:	4bb5      	ldr	r3, [pc, #724]	; (8006134 <USBH_MIDI_Handle.4181+0x97c>)
 8005e5e:	eef8 6ae7 	vcvt.f32.s32	s13, s15
 8005e62:	eddf 7ab5 	vldr	s15, [pc, #724]	; 8006138 <USBH_MIDI_Handle.4181+0x980>
 8005e66:	ee26 7a87 	vmul.f32	s14, s13, s14
 8005e6a:	eec7 7a27 	vdiv.f32	s15, s14, s15
 8005e6e:	ee67 7aa7 	vmul.f32	s15, s15, s15
 8005e72:	edc3 7a05 	vstr	s15, [r3, #20]
 8005e76:	e5b1      	b.n	80059dc <USBH_MIDI_Handle.4181+0x224>
 8005e78:	ee05 3a90 	vmov	s11, r3
 8005e7c:	eef8 6ae5 	vcvt.f32.s32	s13, s11
 8005e80:	eddf 7aad 	vldr	s15, [pc, #692]	; 8006138 <USBH_MIDI_Handle.4181+0x980>
 8005e84:	ed9f 7aad 	vldr	s14, [pc, #692]	; 800613c <USBH_MIDI_Handle.4181+0x984>
 8005e88:	4bad      	ldr	r3, [pc, #692]	; (8006140 <USBH_MIDI_Handle.4181+0x988>)
 8005e8a:	eec6 7aa7 	vdiv.f32	s15, s13, s15
 8005e8e:	eef7 6a00 	vmov.f32	s13, #112	; 0x70
 8005e92:	ee76 7ae7 	vsub.f32	s15, s13, s15
 8005e96:	eef4 7ac7 	vcmpe.f32	s15, s14
 8005e9a:	eef1 fa10 	vmrs	APSR_nzcv, fpscr
 8005e9e:	edc3 7a03 	vstr	s15, [r3, #12]
 8005ea2:	f57f ad9b 	bpl.w	80059dc <USBH_MIDI_Handle.4181+0x224>
 8005ea6:	4aa7      	ldr	r2, [pc, #668]	; (8006144 <USBH_MIDI_Handle.4181+0x98c>)
 8005ea8:	60da      	str	r2, [r3, #12]
 8005eaa:	e597      	b.n	80059dc <USBH_MIDI_Handle.4181+0x224>
 8005eac:	ee07 3a90 	vmov	s15, r3
 8005eb0:	eef8 0ae7 	vcvt.f32.s32	s1, s15
 8005eb4:	eddf 7aa0 	vldr	s15, [pc, #640]	; 8006138 <USBH_MIDI_Handle.4181+0x980>
 8005eb8:	ed9f 0aa3 	vldr	s0, [pc, #652]	; 8006148 <USBH_MIDI_Handle.4181+0x990>
 8005ebc:	eec0 0aa7 	vdiv.f32	s1, s1, s15
 8005ec0:	f004 fafa 	bl	800a4b8 <powf>
 8005ec4:	4aa1      	ldr	r2, [pc, #644]	; (800614c <USBH_MIDI_Handle.4181+0x994>)
 8005ec6:	4b9e      	ldr	r3, [pc, #632]	; (8006140 <USBH_MIDI_Handle.4181+0x988>)
 8005ec8:	ed9f 7aa1 	vldr	s14, [pc, #644]	; 8006150 <USBH_MIDI_Handle.4181+0x998>
 8005ecc:	ed9f 6aa1 	vldr	s12, [pc, #644]	; 8006154 <USBH_MIDI_Handle.4181+0x99c>
 8005ed0:	eddf 6aa1 	vldr	s13, [pc, #644]	; 8006158 <USBH_MIDI_Handle.4181+0x9a0>
 8005ed4:	eddf 7aa1 	vldr	s15, [pc, #644]	; 800615c <USBH_MIDI_Handle.4181+0x9a4>
 8005ed8:	ee20 0a07 	vmul.f32	s0, s0, s14
 8005edc:	eef6 5a00 	vmov.f32	s11, #96	; 0x60
 8005ee0:	ee80 7a06 	vdiv.f32	s14, s0, s12
 8005ee4:	eeb9 6a04 	vmov.f32	s12, #148	; 0x94
 8005ee8:	eeb4 7a66 	vcmp.f32	s14, s13
 8005eec:	eef1 fa10 	vmrs	APSR_nzcv, fpscr
 8005ef0:	ed82 7a00 	vstr	s14, [r2]
 8005ef4:	bfc8      	it	gt
 8005ef6:	eeb0 7a66 	vmovgt.f32	s14, s13
 8005efa:	ee27 7a25 	vmul.f32	s14, s14, s11
 8005efe:	eefa 5a0e 	vmov.f32	s11, #174	; 0xae
 8005f02:	ee67 7a27 	vmul.f32	s15, s14, s15
 8005f06:	eeb0 5a08 	vmov.f32	s10, #8
 8005f0a:	ee77 4aa7 	vadd.f32	s9, s15, s15
 8005f0e:	ee67 6aa7 	vmul.f32	s13, s15, s15
 8005f12:	eea7 6aa4 	vfma.f32	s12, s15, s9
 8005f16:	ee67 6aa6 	vmul.f32	s13, s15, s13
 8005f1a:	ee26 6a05 	vmul.f32	s12, s12, s10
 8005f1e:	eee7 6aa5 	vfma.f32	s13, s15, s11
 8005f22:	ed83 7a01 	vstr	s14, [r3, #4]
 8005f26:	eec6 6a86 	vdiv.f32	s13, s13, s12
 8005f2a:	edc3 6a02 	vstr	s13, [r3, #8]
 8005f2e:	e555      	b.n	80059dc <USBH_MIDI_Handle.4181+0x224>
 8005f30:	ee07 3a90 	vmov	s15, r3
 8005f34:	eeb8 0ae7 	vcvt.f32.s32	s0, s15
 8005f38:	eddf 7a89 	vldr	s15, [pc, #548]	; 8006160 <USBH_MIDI_Handle.4181+0x9a8>
 8005f3c:	ee20 0a27 	vmul.f32	s0, s0, s15
 8005f40:	f004 fa14 	bl	800a36c <rintf>
 8005f44:	eebc 0ac0 	vcvt.u32.f32	s0, s0
 8005f48:	4a86      	ldr	r2, [pc, #536]	; (8006164 <USBH_MIDI_Handle.4181+0x9ac>)
 8005f4a:	ee10 3a10 	vmov	r3, s0
 8005f4e:	b2db      	uxtb	r3, r3
 8005f50:	2b04      	cmp	r3, #4
 8005f52:	7013      	strb	r3, [r2, #0]
 8005f54:	f43f ad42 	beq.w	80059dc <USBH_MIDI_Handle.4181+0x224>
 8005f58:	4e83      	ldr	r6, [pc, #524]	; (8006168 <USBH_MIDI_Handle.4181+0x9b0>)
 8005f5a:	4f84      	ldr	r7, [pc, #528]	; (800616c <USBH_MIDI_Handle.4181+0x9b4>)
 8005f5c:	ed9f 9a84 	vldr	s18, [pc, #528]	; 8006170 <USBH_MIDI_Handle.4181+0x9b8>
 8005f60:	eddf 8a84 	vldr	s17, [pc, #528]	; 8006174 <USBH_MIDI_Handle.4181+0x9bc>
 8005f64:	ed9f 8a84 	vldr	s16, [pc, #528]	; 8006178 <USBH_MIDI_Handle.4181+0x9c0>
 8005f68:	2300      	movs	r3, #0
 8005f6a:	f04f 527e 	mov.w	r2, #1065353216	; 0x3f800000
 8005f6e:	607b      	str	r3, [r7, #4]
 8005f70:	6072      	str	r2, [r6, #4]
 8005f72:	6032      	str	r2, [r6, #0]
 8005f74:	603b      	str	r3, [r7, #0]
 8005f76:	2500      	movs	r5, #0
 8005f78:	f006 fa4e 	bl	800c418 <rand>
 8005f7c:	ee05 0a90 	vmov	s11, r0
 8005f80:	eef8 7ae5 	vcvt.f32.s32	s15, s11
 8005f84:	eeb0 7a48 	vmov.f32	s14, s16
 8005f88:	ee67 7a89 	vmul.f32	s15, s15, s18
 8005f8c:	1972      	adds	r2, r6, r5
 8005f8e:	eea7 7aa8 	vfma.f32	s14, s15, s17
 8005f92:	1979      	adds	r1, r7, r5
 8005f94:	3504      	adds	r5, #4
 8005f96:	2000      	movs	r0, #0
 8005f98:	ed82 7a02 	vstr	s14, [r2, #8]
 8005f9c:	eef0 7a47 	vmov.f32	s15, s14
 8005fa0:	ed96 7a00 	vldr	s14, [r6]
 8005fa4:	4b70      	ldr	r3, [pc, #448]	; (8006168 <USBH_MIDI_Handle.4181+0x9b0>)
 8005fa6:	6088      	str	r0, [r1, #8]
 8005fa8:	ee77 7a87 	vadd.f32	s15, s15, s14
 8005fac:	2d24      	cmp	r5, #36	; 0x24
 8005fae:	edc6 7a00 	vstr	s15, [r6]
 8005fb2:	d1e1      	bne.n	8005f78 <USBH_MIDI_Handle.4181+0x7c0>
 8005fb4:	eeb7 7a00 	vmov.f32	s14, #112	; 0x70
 8005fb8:	eec7 7a27 	vdiv.f32	s15, s14, s15
 8005fbc:	edc3 7a00 	vstr	s15, [r3]
 8005fc0:	e50c      	b.n	80059dc <USBH_MIDI_Handle.4181+0x224>
 8005fc2:	ee07 3a10 	vmov	s14, r3
 8005fc6:	eddf 7a6d 	vldr	s15, [pc, #436]	; 800617c <USBH_MIDI_Handle.4181+0x9c4>
 8005fca:	eeb8 0ac7 	vcvt.f32.s32	s0, s14
 8005fce:	ee20 0a27 	vmul.f32	s0, s0, s15
 8005fd2:	f004 f9cb 	bl	800a36c <rintf>
 8005fd6:	eebc 0ac0 	vcvt.u32.f32	s0, s0
 8005fda:	4b54      	ldr	r3, [pc, #336]	; (800612c <USBH_MIDI_Handle.4181+0x974>)
 8005fdc:	ee10 2a10 	vmov	r2, s0
 8005fe0:	b2d2      	uxtb	r2, r2
 8005fe2:	2a0e      	cmp	r2, #14
 8005fe4:	bf98      	it	ls
 8005fe6:	4966      	ldrls	r1, [pc, #408]	; (8006180 <USBH_MIDI_Handle.4181+0x9c8>)
 8005fe8:	701a      	strb	r2, [r3, #0]
 8005fea:	bf94      	ite	ls
 8005fec:	f851 2022 	ldrls.w	r2, [r1, r2, lsl #2]
 8005ff0:	4a64      	ldrhi	r2, [pc, #400]	; (8006184 <USBH_MIDI_Handle.4181+0x9cc>)
 8005ff2:	605a      	str	r2, [r3, #4]
 8005ff4:	2101      	movs	r1, #1
 8005ff6:	7359      	strb	r1, [r3, #13]
 8005ff8:	e4f0      	b.n	80059dc <USBH_MIDI_Handle.4181+0x224>
 8005ffa:	ee05 3a90 	vmov	s11, r3
 8005ffe:	eddf 7a62 	vldr	s15, [pc, #392]	; 8006188 <USBH_MIDI_Handle.4181+0x9d0>
 8006002:	4b4a      	ldr	r3, [pc, #296]	; (800612c <USBH_MIDI_Handle.4181+0x974>)
 8006004:	eeb8 7ae5 	vcvt.f32.s32	s14, s11
 8006008:	2101      	movs	r1, #1
 800600a:	ee67 7a27 	vmul.f32	s15, s14, s15
 800600e:	7359      	strb	r1, [r3, #13]
 8006010:	eefc 7ae7 	vcvt.u32.f32	s15, s15
 8006014:	ee17 2a90 	vmov	r2, s15
 8006018:	721a      	strb	r2, [r3, #8]
 800601a:	e4df      	b.n	80059dc <USBH_MIDI_Handle.4181+0x224>
 800601c:	ee05 3a90 	vmov	s11, r3
 8006020:	eddf 7a5a 	vldr	s15, [pc, #360]	; 800618c <USBH_MIDI_Handle.4181+0x9d4>
 8006024:	ed9f 7a44 	vldr	s14, [pc, #272]	; 8006138 <USBH_MIDI_Handle.4181+0x980>
 8006028:	ed9f 0a59 	vldr	s0, [pc, #356]	; 8006190 <USBH_MIDI_Handle.4181+0x9d8>
 800602c:	4d59      	ldr	r5, [pc, #356]	; (8006194 <USBH_MIDI_Handle.4181+0x9dc>)
 800602e:	eef8 6ae5 	vcvt.f32.s32	s13, s11
 8006032:	ee66 6aa7 	vmul.f32	s13, s13, s15
 8006036:	eef3 7a04 	vmov.f32	s15, #52	; 0x34
 800603a:	ee86 7a87 	vdiv.f32	s14, s13, s14
 800603e:	ee77 7a27 	vadd.f32	s15, s14, s15
 8006042:	ee80 0a27 	vdiv.f32	s0, s0, s15
 8006046:	edc5 7a08 	vstr	s15, [r5, #32]
 800604a:	f004 f945 	bl	800a2d8 <lrintf>
 800604e:	6268      	str	r0, [r5, #36]	; 0x24
 8006050:	e4c4      	b.n	80059dc <USBH_MIDI_Handle.4181+0x224>
 8006052:	ee05 3a90 	vmov	s11, r3
 8006056:	eddf 7a38 	vldr	s15, [pc, #224]	; 8006138 <USBH_MIDI_Handle.4181+0x980>
 800605a:	eeb8 7ae5 	vcvt.f32.s32	s14, s11
 800605e:	eeb4 7a67 	vcmp.f32	s14, s15
 8006062:	eef1 fa10 	vmrs	APSR_nzcv, fpscr
 8006066:	f47f acb9 	bne.w	80059dc <USBH_MIDI_Handle.4181+0x224>
 800606a:	4b4b      	ldr	r3, [pc, #300]	; (8006198 <USBH_MIDI_Handle.4181+0x9e0>)
 800606c:	eddf 7a4b 	vldr	s15, [pc, #300]	; 800619c <USBH_MIDI_Handle.4181+0x9e4>
 8006070:	ed93 7a06 	vldr	s14, [r3, #24]
 8006074:	ee67 7a27 	vmul.f32	s15, s14, s15
 8006078:	edc3 7a06 	vstr	s15, [r3, #24]
 800607c:	e4ae      	b.n	80059dc <USBH_MIDI_Handle.4181+0x224>
 800607e:	ee07 3a90 	vmov	s15, r3
 8006082:	eeb8 7ae7 	vcvt.f32.s32	s14, s15
 8006086:	eddf 7a2c 	vldr	s15, [pc, #176]	; 8006138 <USBH_MIDI_Handle.4181+0x980>
 800608a:	eeb4 7a67 	vcmp.f32	s14, s15
 800608e:	eef1 fa10 	vmrs	APSR_nzcv, fpscr
 8006092:	f47f aca3 	bne.w	80059dc <USBH_MIDI_Handle.4181+0x224>
 8006096:	4b42      	ldr	r3, [pc, #264]	; (80061a0 <USBH_MIDI_Handle.4181+0x9e8>)
 8006098:	eddf 7a42 	vldr	s15, [pc, #264]	; 80061a4 <USBH_MIDI_Handle.4181+0x9ec>
 800609c:	ed93 7a06 	vldr	s14, [r3, #24]
 80060a0:	ee67 7a27 	vmul.f32	s15, s14, s15
 80060a4:	edc3 7a06 	vstr	s15, [r3, #24]
 80060a8:	e498      	b.n	80059dc <USBH_MIDI_Handle.4181+0x224>
 80060aa:	ee05 3a90 	vmov	s11, r3
 80060ae:	eddf 7a22 	vldr	s15, [pc, #136]	; 8006138 <USBH_MIDI_Handle.4181+0x980>
 80060b2:	eeb8 7ae5 	vcvt.f32.s32	s14, s11
 80060b6:	eeb4 7a67 	vcmp.f32	s14, s15
 80060ba:	eef1 fa10 	vmrs	APSR_nzcv, fpscr
 80060be:	f47f ac8d 	bne.w	80059dc <USBH_MIDI_Handle.4181+0x224>
 80060c2:	4b39      	ldr	r3, [pc, #228]	; (80061a8 <USBH_MIDI_Handle.4181+0x9f0>)
 80060c4:	eddf 7a37 	vldr	s15, [pc, #220]	; 80061a4 <USBH_MIDI_Handle.4181+0x9ec>
 80060c8:	ed93 7a06 	vldr	s14, [r3, #24]
 80060cc:	ee67 7a27 	vmul.f32	s15, s14, s15
 80060d0:	edc3 7a06 	vstr	s15, [r3, #24]
 80060d4:	e482      	b.n	80059dc <USBH_MIDI_Handle.4181+0x224>
 80060d6:	ee07 3a90 	vmov	s15, r3
 80060da:	eeb8 7ae7 	vcvt.f32.s32	s14, s15
 80060de:	eddf 7a16 	vldr	s15, [pc, #88]	; 8006138 <USBH_MIDI_Handle.4181+0x980>
 80060e2:	eeb4 7a67 	vcmp.f32	s14, s15
 80060e6:	eef1 fa10 	vmrs	APSR_nzcv, fpscr
 80060ea:	f47f ac77 	bne.w	80059dc <USBH_MIDI_Handle.4181+0x224>
 80060ee:	4b2a      	ldr	r3, [pc, #168]	; (8006198 <USBH_MIDI_Handle.4181+0x9e0>)
 80060f0:	eddf 7a2c 	vldr	s15, [pc, #176]	; 80061a4 <USBH_MIDI_Handle.4181+0x9ec>
 80060f4:	ed93 7a06 	vldr	s14, [r3, #24]
 80060f8:	ee67 7a27 	vmul.f32	s15, s14, s15
 80060fc:	edc3 7a06 	vstr	s15, [r3, #24]
 8006100:	e46c      	b.n	80059dc <USBH_MIDI_Handle.4181+0x224>
 8006102:	ee05 3a90 	vmov	s11, r3
 8006106:	eddf 7a29 	vldr	s15, [pc, #164]	; 80061ac <USBH_MIDI_Handle.4181+0x9f4>
 800610a:	4b29      	ldr	r3, [pc, #164]	; (80061b0 <USBH_MIDI_Handle.4181+0x9f8>)
 800610c:	eeb8 7ae5 	vcvt.f32.s32	s14, s11
 8006110:	ee67 7a27 	vmul.f32	s15, s14, s15
 8006114:	edc3 7a02 	vstr	s15, [r3, #8]
 8006118:	e460      	b.n	80059dc <USBH_MIDI_Handle.4181+0x224>
 800611a:	bf00      	nop
 800611c:	100016b4 	.word	0x100016b4
 8006120:	100000bc 	.word	0x100000bc
 8006124:	10000036 	.word	0x10000036
 8006128:	10000035 	.word	0x10000035
 800612c:	2000052c 	.word	0x2000052c
 8006130:	3fb33333 	.word	0x3fb33333
 8006134:	10002d0c 	.word	0x10002d0c
 8006138:	42fe0000 	.word	0x42fe0000
 800613c:	3c23d70a 	.word	0x3c23d70a
 8006140:	10002ccc 	.word	0x10002ccc
 8006144:	3c23d70a 	.word	0x3c23d70a
 8006148:	42c80000 	.word	0x42c80000
 800614c:	20014cf0 	.word	0x20014cf0
 8006150:	42a00000 	.word	0x42a00000
 8006154:	473b8000 	.word	0x473b8000
 8006158:	3f733333 	.word	0x3f733333
 800615c:	40490fdb 	.word	0x40490fdb
 8006160:	3e091224 	.word	0x3e091224
 8006164:	10000034 	.word	0x10000034
 8006168:	10000000 	.word	0x10000000
 800616c:	10002e0c 	.word	0x10002e0c
 8006170:	30000000 	.word	0x30000000
 8006174:	3f7a9fbf 	.word	0x3f7a9fbf
 8006178:	3a83126f 	.word	0x3a83126f
 800617c:	3de1c387 	.word	0x3de1c387
 8006180:	0800c474 	.word	0x0800c474
 8006184:	0800c4f0 	.word	0x0800c4f0
 8006188:	3d810204 	.word	0x3d810204
 800618c:	43fa0000 	.word	0x43fa0000
 8006190:	4a2fc800 	.word	0x4a2fc800
 8006194:	200004f0 	.word	0x200004f0
 8006198:	10002d2c 	.word	0x10002d2c
 800619c:	3f7d70a4 	.word	0x3f7d70a4
 80061a0:	10002d6c 	.word	0x10002d6c
 80061a4:	3f8147ae 	.word	0x3f8147ae
 80061a8:	10002d4c 	.word	0x10002d4c
 80061ac:	3dc18306 	.word	0x3dc18306
 80061b0:	10002dcc 	.word	0x10002dcc
 80061b4:	3e810204 	.word	0x3e810204
 80061b8:	ee07 3a90 	vmov	s15, r3
 80061bc:	eeb8 7ae7 	vcvt.f32.s32	s14, s15
 80061c0:	ed5f 7a04 	vldr	s15, [pc, #-16]	; 80061b4 <USBH_MIDI_Handle.4181+0x9fc>
 80061c4:	4bdf      	ldr	r3, [pc, #892]	; (8006544 <USBH_MIDI_Handle.4181+0xd8c>)
 80061c6:	ee67 7a27 	vmul.f32	s15, s14, s15
 80061ca:	edc3 7a00 	vstr	s15, [r3]
 80061ce:	e405      	b.n	80059dc <USBH_MIDI_Handle.4181+0x224>
 80061d0:	ee07 3a10 	vmov	s14, r3
 80061d4:	eef8 6ac7 	vcvt.f32.s32	s13, s14
 80061d8:	ed9f 7adb 	vldr	s14, [pc, #876]	; 8006548 <USBH_MIDI_Handle.4181+0xd90>
 80061dc:	eddf 7adb 	vldr	s15, [pc, #876]	; 800654c <USBH_MIDI_Handle.4181+0xd94>
 80061e0:	4bdb      	ldr	r3, [pc, #876]	; (8006550 <USBH_MIDI_Handle.4181+0xd98>)
 80061e2:	ee26 7a87 	vmul.f32	s14, s13, s14
 80061e6:	eec7 7a27 	vdiv.f32	s15, s14, s15
 80061ea:	ee67 7aa7 	vmul.f32	s15, s15, s15
 80061ee:	edc3 7a05 	vstr	s15, [r3, #20]
 80061f2:	f7ff bbf3 	b.w	80059dc <USBH_MIDI_Handle.4181+0x224>
 80061f6:	ee07 3a90 	vmov	s15, r3
 80061fa:	ed9f 7ad3 	vldr	s14, [pc, #844]	; 8006548 <USBH_MIDI_Handle.4181+0xd90>
 80061fe:	4bd5      	ldr	r3, [pc, #852]	; (8006554 <USBH_MIDI_Handle.4181+0xd9c>)
 8006200:	eef8 6ae7 	vcvt.f32.s32	s13, s15
 8006204:	eddf 7ad1 	vldr	s15, [pc, #836]	; 800654c <USBH_MIDI_Handle.4181+0xd94>
 8006208:	ee26 7a87 	vmul.f32	s14, s13, s14
 800620c:	eec7 7a27 	vdiv.f32	s15, s14, s15
 8006210:	ee67 7aa7 	vmul.f32	s15, s15, s15
 8006214:	edc3 7a05 	vstr	s15, [r3, #20]
 8006218:	f7ff bbe0 	b.w	80059dc <USBH_MIDI_Handle.4181+0x224>
 800621c:	ee07 3a10 	vmov	s14, r3
 8006220:	eef8 6ac7 	vcvt.f32.s32	s13, s14
 8006224:	ed9f 7ac8 	vldr	s14, [pc, #800]	; 8006548 <USBH_MIDI_Handle.4181+0xd90>
 8006228:	eddf 7ac8 	vldr	s15, [pc, #800]	; 800654c <USBH_MIDI_Handle.4181+0xd94>
 800622c:	4bca      	ldr	r3, [pc, #808]	; (8006558 <USBH_MIDI_Handle.4181+0xda0>)
 800622e:	ee26 7a87 	vmul.f32	s14, s13, s14
 8006232:	eec7 7a27 	vdiv.f32	s15, s14, s15
 8006236:	ee67 7aa7 	vmul.f32	s15, s15, s15
 800623a:	edc3 7a05 	vstr	s15, [r3, #20]
 800623e:	f7ff bbcd 	b.w	80059dc <USBH_MIDI_Handle.4181+0x224>
 8006242:	ee07 3a90 	vmov	s15, r3
 8006246:	eeb8 7ae7 	vcvt.f32.s32	s14, s15
 800624a:	eddf 7ac4 	vldr	s15, [pc, #784]	; 800655c <USBH_MIDI_Handle.4181+0xda4>
 800624e:	4ac4      	ldr	r2, [pc, #784]	; (8006560 <USBH_MIDI_Handle.4181+0xda8>)
 8006250:	4bc4      	ldr	r3, [pc, #784]	; (8006564 <USBH_MIDI_Handle.4181+0xdac>)
 8006252:	ee67 7a27 	vmul.f32	s15, s14, s15
 8006256:	edc2 7a00 	vstr	s15, [r2]
 800625a:	edc3 7a00 	vstr	s15, [r3]
 800625e:	f7ff bbbd 	b.w	80059dc <USBH_MIDI_Handle.4181+0x224>
 8006262:	ee05 3a90 	vmov	s11, r3
 8006266:	eddf 6ac0 	vldr	s13, [pc, #768]	; 8006568 <USBH_MIDI_Handle.4181+0xdb0>
 800626a:	eddf 7ac0 	vldr	s15, [pc, #768]	; 800656c <USBH_MIDI_Handle.4181+0xdb4>
 800626e:	ed9f 7ac0 	vldr	s14, [pc, #768]	; 8006570 <USBH_MIDI_Handle.4181+0xdb8>
 8006272:	4ac0      	ldr	r2, [pc, #768]	; (8006574 <USBH_MIDI_Handle.4181+0xdbc>)
 8006274:	4bc0      	ldr	r3, [pc, #768]	; (8006578 <USBH_MIDI_Handle.4181+0xdc0>)
 8006276:	eeb8 6ae5 	vcvt.f32.s32	s12, s11
 800627a:	eee6 7a26 	vfma.f32	s15, s12, s13
 800627e:	ee27 7a87 	vmul.f32	s14, s15, s14
 8006282:	edc2 7a01 	vstr	s15, [r2, #4]
 8006286:	ed83 7a01 	vstr	s14, [r3, #4]
 800628a:	f7ff bba7 	b.w	80059dc <USBH_MIDI_Handle.4181+0x224>
 800628e:	ee05 3a90 	vmov	s11, r3
 8006292:	eddf 7aba 	vldr	s15, [pc, #744]	; 800657c <USBH_MIDI_Handle.4181+0xdc4>
 8006296:	4bba      	ldr	r3, [pc, #744]	; (8006580 <USBH_MIDI_Handle.4181+0xdc8>)
 8006298:	eeb8 7ae5 	vcvt.f32.s32	s14, s11
 800629c:	ee67 7a27 	vmul.f32	s15, s14, s15
 80062a0:	edc3 7a02 	vstr	s15, [r3, #8]
 80062a4:	f7ff bb9a 	b.w	80059dc <USBH_MIDI_Handle.4181+0x224>
 80062a8:	ee07 3a90 	vmov	s15, r3
 80062ac:	eeb8 7ae7 	vcvt.f32.s32	s14, s15
 80062b0:	eddf 7ab4 	vldr	s15, [pc, #720]	; 8006584 <USBH_MIDI_Handle.4181+0xdcc>
 80062b4:	4bb2      	ldr	r3, [pc, #712]	; (8006580 <USBH_MIDI_Handle.4181+0xdc8>)
 80062b6:	ee67 7a27 	vmul.f32	s15, s14, s15
 80062ba:	edc3 7a00 	vstr	s15, [r3]
 80062be:	f7ff bb8d 	b.w	80059dc <USBH_MIDI_Handle.4181+0x224>
 80062c2:	ee05 3a90 	vmov	s11, r3
 80062c6:	eddf 7aa1 	vldr	s15, [pc, #644]	; 800654c <USBH_MIDI_Handle.4181+0xd94>
 80062ca:	4baf      	ldr	r3, [pc, #700]	; (8006588 <USBH_MIDI_Handle.4181+0xdd0>)
 80062cc:	eeb8 7ae5 	vcvt.f32.s32	s14, s11
 80062d0:	eec7 7a27 	vdiv.f32	s15, s14, s15
 80062d4:	edc3 7a00 	vstr	s15, [r3]
 80062d8:	f7ff bb80 	b.w	80059dc <USBH_MIDI_Handle.4181+0x224>
 80062dc:	ee07 3a90 	vmov	s15, r3
 80062e0:	ed9f 0aaa 	vldr	s0, [pc, #680]	; 800658c <USBH_MIDI_Handle.4181+0xdd4>
 80062e4:	eeb8 7ae7 	vcvt.f32.s32	s14, s15
 80062e8:	eddf 7aa9 	vldr	s15, [pc, #676]	; 8006590 <USBH_MIDI_Handle.4181+0xdd8>
 80062ec:	eea7 0a27 	vfma.f32	s0, s14, s15
 80062f0:	f003 fff2 	bl	800a2d8 <lrintf>
 80062f4:	4ba7      	ldr	r3, [pc, #668]	; (8006594 <USBH_MIDI_Handle.4181+0xddc>)
 80062f6:	4aa8      	ldr	r2, [pc, #672]	; (8006598 <USBH_MIDI_Handle.4181+0xde0>)
 80062f8:	681b      	ldr	r3, [r3, #0]
 80062fa:	49a8      	ldr	r1, [pc, #672]	; (800659c <USBH_MIDI_Handle.4181+0xde4>)
 80062fc:	eba3 0380 	sub.w	r3, r3, r0, lsl #2
 8006300:	4293      	cmp	r3, r2
 8006302:	bf36      	itet	cc
 8006304:	f503 339c 	addcc.w	r3, r3, #79872	; 0x13800
 8006308:	4aa5      	ldrcs	r2, [pc, #660]	; (80065a0 <USBH_MIDI_Handle.4181+0xde8>)
 800630a:	4aa5      	ldrcc	r2, [pc, #660]	; (80065a0 <USBH_MIDI_Handle.4181+0xde8>)
 800630c:	6008      	str	r0, [r1, #0]
 800630e:	bf38      	it	cc
 8006310:	337c      	addcc	r3, #124	; 0x7c
 8006312:	6013      	str	r3, [r2, #0]
 8006314:	f7ff bb62 	b.w	80059dc <USBH_MIDI_Handle.4181+0x224>
 8006318:	ee07 3a90 	vmov	s15, r3
 800631c:	eeb8 7ae7 	vcvt.f32.s32	s14, s15
 8006320:	eddf 7aa0 	vldr	s15, [pc, #640]	; 80065a4 <USBH_MIDI_Handle.4181+0xdec>
 8006324:	4aa0      	ldr	r2, [pc, #640]	; (80065a8 <USBH_MIDI_Handle.4181+0xdf0>)
 8006326:	ee67 7a27 	vmul.f32	s15, s14, s15
 800632a:	eefc 7ae7 	vcvt.u32.f32	s15, s15
 800632e:	ee17 3a90 	vmov	r3, s15
 8006332:	b2db      	uxtb	r3, r3
 8006334:	2b64      	cmp	r3, #100	; 0x64
 8006336:	7013      	strb	r3, [r2, #0]
 8006338:	f200 8411 	bhi.w	8006b5e <USBH_MIDI_Handle.4181+0x13a6>
 800633c:	ebc3 2303 	rsb	r3, r3, r3, lsl #8
 8006340:	2264      	movs	r2, #100	; 0x64
 8006342:	fb93 f3f2 	sdiv	r3, r3, r2
 8006346:	b2db      	uxtb	r3, r3
 8006348:	2be6      	cmp	r3, #230	; 0xe6
 800634a:	f200 83fc 	bhi.w	8006b46 <USBH_MIDI_Handle.4181+0x138e>
 800634e:	3319      	adds	r3, #25
 8006350:	b2dd      	uxtb	r5, r3
 8006352:	4629      	mov	r1, r5
 8006354:	2020      	movs	r0, #32
 8006356:	f001 fc27 	bl	8007ba8 <Codec_WriteRegister.4974>
 800635a:	4629      	mov	r1, r5
 800635c:	2021      	movs	r0, #33	; 0x21
 800635e:	f001 fc23 	bl	8007ba8 <Codec_WriteRegister.4974>
 8006362:	f7ff bb3b 	b.w	80059dc <USBH_MIDI_Handle.4181+0x224>
 8006366:	ee05 3a90 	vmov	s11, r3
 800636a:	eddf 7a78 	vldr	s15, [pc, #480]	; 800654c <USBH_MIDI_Handle.4181+0xd94>
 800636e:	4b8f      	ldr	r3, [pc, #572]	; (80065ac <USBH_MIDI_Handle.4181+0xdf4>)
 8006370:	eeb8 7ae5 	vcvt.f32.s32	s14, s11
 8006374:	eec7 7a27 	vdiv.f32	s15, s14, s15
 8006378:	eeb1 7a08 	vmov.f32	s14, #24
 800637c:	ee67 7aa7 	vmul.f32	s15, s15, s15
 8006380:	ee67 7a87 	vmul.f32	s15, s15, s14
 8006384:	edc3 7a06 	vstr	s15, [r3, #24]
 8006388:	f7ff bb28 	b.w	80059dc <USBH_MIDI_Handle.4181+0x224>
 800638c:	2b3f      	cmp	r3, #63	; 0x3f
 800638e:	4b88      	ldr	r3, [pc, #544]	; (80065b0 <USBH_MIDI_Handle.4181+0xdf8>)
 8006390:	bf8c      	ite	hi
 8006392:	2201      	movhi	r2, #1
 8006394:	2200      	movls	r2, #0
 8006396:	701a      	strb	r2, [r3, #0]
 8006398:	f7ff bb20 	b.w	80059dc <USBH_MIDI_Handle.4181+0x224>
 800639c:	ee07 3a90 	vmov	s15, r3
 80063a0:	eeb8 7ae7 	vcvt.f32.s32	s14, s15
 80063a4:	eef1 7a04 	vmov.f32	s15, #20
 80063a8:	ee27 7a27 	vmul.f32	s14, s14, s15
 80063ac:	eddf 7a67 	vldr	s15, [pc, #412]	; 800654c <USBH_MIDI_Handle.4181+0xd94>
 80063b0:	4980      	ldr	r1, [pc, #512]	; (80065b4 <USBH_MIDI_Handle.4181+0xdfc>)
 80063b2:	4a69      	ldr	r2, [pc, #420]	; (8006558 <USBH_MIDI_Handle.4181+0xda0>)
 80063b4:	4b67      	ldr	r3, [pc, #412]	; (8006554 <USBH_MIDI_Handle.4181+0xd9c>)
 80063b6:	eec7 7a27 	vdiv.f32	s15, s14, s15
 80063ba:	ee67 7aa7 	vmul.f32	s15, s15, s15
 80063be:	edc1 7a00 	vstr	s15, [r1]
 80063c2:	edc2 7a00 	vstr	s15, [r2]
 80063c6:	edc3 7a00 	vstr	s15, [r3]
 80063ca:	f7ff bb07 	b.w	80059dc <USBH_MIDI_Handle.4181+0x224>
 80063ce:	ee07 3a10 	vmov	s14, r3
 80063d2:	eef8 6ac7 	vcvt.f32.s32	s13, s14
 80063d6:	ed9f 7a78 	vldr	s14, [pc, #480]	; 80065b8 <USBH_MIDI_Handle.4181+0xe00>
 80063da:	eddf 7a5c 	vldr	s15, [pc, #368]	; 800654c <USBH_MIDI_Handle.4181+0xd94>
 80063de:	4a77      	ldr	r2, [pc, #476]	; (80065bc <USBH_MIDI_Handle.4181+0xe04>)
 80063e0:	4b77      	ldr	r3, [pc, #476]	; (80065c0 <USBH_MIDI_Handle.4181+0xe08>)
 80063e2:	ee26 7a87 	vmul.f32	s14, s13, s14
 80063e6:	eec7 7a27 	vdiv.f32	s15, s14, s15
 80063ea:	edc2 7a01 	vstr	s15, [r2, #4]
 80063ee:	edc3 7a01 	vstr	s15, [r3, #4]
 80063f2:	f7ff baf3 	b.w	80059dc <USBH_MIDI_Handle.4181+0x224>
 80063f6:	ee05 3a90 	vmov	s11, r3
 80063fa:	eddf 7a72 	vldr	s15, [pc, #456]	; 80065c4 <USBH_MIDI_Handle.4181+0xe0c>
 80063fe:	4a5d      	ldr	r2, [pc, #372]	; (8006574 <USBH_MIDI_Handle.4181+0xdbc>)
 8006400:	4b5d      	ldr	r3, [pc, #372]	; (8006578 <USBH_MIDI_Handle.4181+0xdc0>)
 8006402:	eeb8 7ae5 	vcvt.f32.s32	s14, s11
 8006406:	ee67 7a27 	vmul.f32	s15, s14, s15
 800640a:	edc2 7a00 	vstr	s15, [r2]
 800640e:	edc3 7a00 	vstr	s15, [r3]
 8006412:	f7ff bae3 	b.w	80059dc <USBH_MIDI_Handle.4181+0x224>
 8006416:	eb03 02c3 	add.w	r2, r3, r3, lsl #3
 800641a:	eb03 0242 	add.w	r2, r3, r2, lsl #1
 800641e:	ee06 2a10 	vmov	s12, r2
 8006422:	eddf 6a4a 	vldr	s13, [pc, #296]	; 800654c <USBH_MIDI_Handle.4181+0xd94>
 8006426:	4b68      	ldr	r3, [pc, #416]	; (80065c8 <USBH_MIDI_Handle.4181+0xe10>)
 8006428:	ed9f 7a68 	vldr	s14, [pc, #416]	; 80065cc <USBH_MIDI_Handle.4181+0xe14>
 800642c:	edd3 7a01 	vldr	s15, [r3, #4]
 8006430:	4967      	ldr	r1, [pc, #412]	; (80065d0 <USBH_MIDI_Handle.4181+0xe18>)
 8006432:	4a68      	ldr	r2, [pc, #416]	; (80065d4 <USBH_MIDI_Handle.4181+0xe1c>)
 8006434:	eeb8 6ac6 	vcvt.f32.s32	s12, s12
 8006438:	ee86 6a26 	vdiv.f32	s12, s12, s13
 800643c:	eef7 6a00 	vmov.f32	s13, #112	; 0x70
 8006440:	ee76 6a26 	vadd.f32	s13, s12, s13
 8006444:	ee66 7aa7 	vmul.f32	s15, s13, s15
 8006448:	eef4 7ac7 	vcmpe.f32	s15, s14
 800644c:	eef1 fa10 	vmrs	APSR_nzcv, fpscr
 8006450:	f300 8371 	bgt.w	8006b36 <USBH_MIDI_Handle.4181+0x137e>
 8006454:	edc3 7a00 	vstr	s15, [r3]
 8006458:	edc1 7a00 	vstr	s15, [r1]
 800645c:	edc2 7a00 	vstr	s15, [r2]
 8006460:	f7ff babc 	b.w	80059dc <USBH_MIDI_Handle.4181+0x224>
 8006464:	2232      	movs	r2, #50	; 0x32
 8006466:	fb13 f302 	smulbb	r3, r3, r2
 800646a:	ee05 3a90 	vmov	s11, r3
 800646e:	ed9f 7a37 	vldr	s14, [pc, #220]	; 800654c <USBH_MIDI_Handle.4181+0xd94>
 8006472:	eddf 7a59 	vldr	s15, [pc, #356]	; 80065d8 <USBH_MIDI_Handle.4181+0xe20>
 8006476:	4956      	ldr	r1, [pc, #344]	; (80065d0 <USBH_MIDI_Handle.4181+0xe18>)
 8006478:	4a56      	ldr	r2, [pc, #344]	; (80065d4 <USBH_MIDI_Handle.4181+0xe1c>)
 800647a:	4b53      	ldr	r3, [pc, #332]	; (80065c8 <USBH_MIDI_Handle.4181+0xe10>)
 800647c:	eef8 6ae5 	vcvt.f32.s32	s13, s11
 8006480:	ee86 7a87 	vdiv.f32	s14, s13, s14
 8006484:	ee77 7a27 	vadd.f32	s15, s14, s15
 8006488:	edc1 7a01 	vstr	s15, [r1, #4]
 800648c:	edc2 7a01 	vstr	s15, [r2, #4]
 8006490:	edc3 7a01 	vstr	s15, [r3, #4]
 8006494:	f7ff baa2 	b.w	80059dc <USBH_MIDI_Handle.4181+0x224>
 8006498:	ee07 3a10 	vmov	s14, r3
 800649c:	eddf 7a2b 	vldr	s15, [pc, #172]	; 800654c <USBH_MIDI_Handle.4181+0xd94>
 80064a0:	ed9f 0a4e 	vldr	s0, [pc, #312]	; 80065dc <USBH_MIDI_Handle.4181+0xe24>
 80064a4:	eef8 0ac7 	vcvt.f32.s32	s1, s14
 80064a8:	eec0 0aa7 	vdiv.f32	s1, s1, s15
 80064ac:	f004 f804 	bl	800a4b8 <powf>
 80064b0:	4b40      	ldr	r3, [pc, #256]	; (80065b4 <USBH_MIDI_Handle.4181+0xdfc>)
 80064b2:	eef6 7a00 	vmov.f32	s15, #96	; 0x60
 80064b6:	ee20 0a27 	vmul.f32	s0, s0, s15
 80064ba:	ed83 0a02 	vstr	s0, [r3, #8]
 80064be:	f7ff ba8d 	b.w	80059dc <USBH_MIDI_Handle.4181+0x224>
 80064c2:	ee07 3a90 	vmov	s15, r3
 80064c6:	eeb8 7ae7 	vcvt.f32.s32	s14, s15
 80064ca:	eddf 7a20 	vldr	s15, [pc, #128]	; 800654c <USBH_MIDI_Handle.4181+0xd94>
 80064ce:	eeb4 7a67 	vcmp.f32	s14, s15
 80064d2:	eef1 fa10 	vmrs	APSR_nzcv, fpscr
 80064d6:	f47f aa81 	bne.w	80059dc <USBH_MIDI_Handle.4181+0x224>
 80064da:	4b1e      	ldr	r3, [pc, #120]	; (8006554 <USBH_MIDI_Handle.4181+0xd9c>)
 80064dc:	eddf 7a40 	vldr	s15, [pc, #256]	; 80065e0 <USBH_MIDI_Handle.4181+0xe28>
 80064e0:	ed93 7a06 	vldr	s14, [r3, #24]
 80064e4:	ee67 7a27 	vmul.f32	s15, s14, s15
 80064e8:	edc3 7a06 	vstr	s15, [r3, #24]
 80064ec:	f7ff ba76 	b.w	80059dc <USBH_MIDI_Handle.4181+0x224>
 80064f0:	ee05 3a90 	vmov	s11, r3
 80064f4:	eddf 7a15 	vldr	s15, [pc, #84]	; 800654c <USBH_MIDI_Handle.4181+0xd94>
 80064f8:	eeb8 7ae5 	vcvt.f32.s32	s14, s11
 80064fc:	eeb4 7a67 	vcmp.f32	s14, s15
 8006500:	eef1 fa10 	vmrs	APSR_nzcv, fpscr
 8006504:	f47f aa6a 	bne.w	80059dc <USBH_MIDI_Handle.4181+0x224>
 8006508:	4b11      	ldr	r3, [pc, #68]	; (8006550 <USBH_MIDI_Handle.4181+0xd98>)
 800650a:	eddf 7a35 	vldr	s15, [pc, #212]	; 80065e0 <USBH_MIDI_Handle.4181+0xe28>
 800650e:	ed93 7a06 	vldr	s14, [r3, #24]
 8006512:	ee67 7a27 	vmul.f32	s15, s14, s15
 8006516:	edc3 7a06 	vstr	s15, [r3, #24]
 800651a:	f7ff ba5f 	b.w	80059dc <USBH_MIDI_Handle.4181+0x224>
 800651e:	ee05 3a90 	vmov	s11, r3
 8006522:	eddf 7a0a 	vldr	s15, [pc, #40]	; 800654c <USBH_MIDI_Handle.4181+0xd94>
 8006526:	eeb8 7ae5 	vcvt.f32.s32	s14, s11
 800652a:	eeb4 7a67 	vcmp.f32	s14, s15
 800652e:	eef1 fa10 	vmrs	APSR_nzcv, fpscr
 8006532:	f47f aa53 	bne.w	80059dc <USBH_MIDI_Handle.4181+0x224>
 8006536:	4b2b      	ldr	r3, [pc, #172]	; (80065e4 <USBH_MIDI_Handle.4181+0xe2c>)
 8006538:	781a      	ldrb	r2, [r3, #0]
 800653a:	f082 0201 	eor.w	r2, r2, #1
 800653e:	701a      	strb	r2, [r3, #0]
 8006540:	f7ff ba4c 	b.w	80059dc <USBH_MIDI_Handle.4181+0x224>
 8006544:	10002dcc 	.word	0x10002dcc
 8006548:	3fb33333 	.word	0x3fb33333
 800654c:	42fe0000 	.word	0x42fe0000
 8006550:	10002d6c 	.word	0x10002d6c
 8006554:	10002d4c 	.word	0x10002d4c
 8006558:	10002d2c 	.word	0x10002d2c
 800655c:	40b060c2 	.word	0x40b060c2
 8006560:	100016ac 	.word	0x100016ac
 8006564:	10002ca4 	.word	0x10002ca4
 8006568:	3d61c387 	.word	0x3d61c387
 800656c:	3ca3d70a 	.word	0x3ca3d70a
 8006570:	3f7ae148 	.word	0x3f7ae148
 8006574:	10002cac 	.word	0x10002cac
 8006578:	10002cbc 	.word	0x10002cbc
 800657c:	3dc18306 	.word	0x3dc18306
 8006580:	10002d8c 	.word	0x10002d8c
 8006584:	3b810204 	.word	0x3b810204
 8006588:	20000080 	.word	0x20000080
 800658c:	437a0000 	.word	0x437a0000
 8006590:	431b8102 	.word	0x431b8102
 8006594:	20014d1c 	.word	0x20014d1c
 8006598:	20001228 	.word	0x20001228
 800659c:	200004e0 	.word	0x200004e0
 80065a0:	200004e8 	.word	0x200004e8
 80065a4:	3f499326 	.word	0x3f499326
 80065a8:	20000094 	.word	0x20000094
 80065ac:	10002ccc 	.word	0x10002ccc
 80065b0:	10000037 	.word	0x10000037
 80065b4:	10002d0c 	.word	0x10002d0c
 80065b8:	3f733333 	.word	0x3f733333
 80065bc:	100000bc 	.word	0x100000bc
 80065c0:	100016b4 	.word	0x100016b4
 80065c4:	3f8c7f66 	.word	0x3f8c7f66
 80065c8:	10000038 	.word	0x10000038
 80065cc:	461c4000 	.word	0x461c4000
 80065d0:	10000090 	.word	0x10000090
 80065d4:	10000064 	.word	0x10000064
 80065d8:	3dcccccd 	.word	0x3dcccccd
 80065dc:	467a0000 	.word	0x467a0000
 80065e0:	3f7d70a4 	.word	0x3f7d70a4
 80065e4:	20014d3c 	.word	0x20014d3c
 80065e8:	42fe0000 	.word	0x42fe0000
 80065ec:	ee07 3a90 	vmov	s15, r3
 80065f0:	eeb8 7ae7 	vcvt.f32.s32	s14, s15
 80065f4:	ed5f 7a04 	vldr	s15, [pc, #-16]	; 80065e8 <USBH_MIDI_Handle.4181+0xe30>
 80065f8:	eeb4 7a67 	vcmp.f32	s14, s15
 80065fc:	eef1 fa10 	vmrs	APSR_nzcv, fpscr
 8006600:	f47f a9ec 	bne.w	80059dc <USBH_MIDI_Handle.4181+0x224>
 8006604:	4be8      	ldr	r3, [pc, #928]	; (80069a8 <USBH_MIDI_Handle.4181+0x11f0>)
 8006606:	781a      	ldrb	r2, [r3, #0]
 8006608:	f082 0201 	eor.w	r2, r2, #1
 800660c:	701a      	strb	r2, [r3, #0]
 800660e:	f7ff b9e5 	b.w	80059dc <USBH_MIDI_Handle.4181+0x224>
 8006612:	ee05 3a90 	vmov	s11, r3
 8006616:	eddf 7ae5 	vldr	s15, [pc, #916]	; 80069ac <USBH_MIDI_Handle.4181+0x11f4>
 800661a:	4be5      	ldr	r3, [pc, #916]	; (80069b0 <USBH_MIDI_Handle.4181+0x11f8>)
 800661c:	eeb8 7ae5 	vcvt.f32.s32	s14, s11
 8006620:	ee67 7a27 	vmul.f32	s15, s14, s15
 8006624:	edc3 7a02 	vstr	s15, [r3, #8]
 8006628:	f7ff b9d8 	b.w	80059dc <USBH_MIDI_Handle.4181+0x224>
 800662c:	ee07 3a90 	vmov	s15, r3
 8006630:	eeb8 7ae7 	vcvt.f32.s32	s14, s15
 8006634:	eddf 7adf 	vldr	s15, [pc, #892]	; 80069b4 <USBH_MIDI_Handle.4181+0x11fc>
 8006638:	4bdd      	ldr	r3, [pc, #884]	; (80069b0 <USBH_MIDI_Handle.4181+0x11f8>)
 800663a:	ee67 7a27 	vmul.f32	s15, s14, s15
 800663e:	edc3 7a00 	vstr	s15, [r3]
 8006642:	f7ff b9cb 	b.w	80059dc <USBH_MIDI_Handle.4181+0x224>
 8006646:	ee07 3a10 	vmov	s14, r3
 800664a:	eddf 7adb 	vldr	s15, [pc, #876]	; 80069b8 <USBH_MIDI_Handle.4181+0x1200>
 800664e:	ed9f 0adb 	vldr	s0, [pc, #876]	; 80069bc <USBH_MIDI_Handle.4181+0x1204>
 8006652:	eef8 0ac7 	vcvt.f32.s32	s1, s14
 8006656:	eec0 0aa7 	vdiv.f32	s1, s1, s15
 800665a:	f003 ff2d 	bl	800a4b8 <powf>
 800665e:	4bd8      	ldr	r3, [pc, #864]	; (80069c0 <USBH_MIDI_Handle.4181+0x1208>)
 8006660:	ed83 0a00 	vstr	s0, [r3]
 8006664:	f7ff b9ba 	b.w	80059dc <USBH_MIDI_Handle.4181+0x224>
 8006668:	ee07 3a10 	vmov	s14, r3
 800666c:	eddf 7ad2 	vldr	s15, [pc, #840]	; 80069b8 <USBH_MIDI_Handle.4181+0x1200>
 8006670:	ed9f 0ad4 	vldr	s0, [pc, #848]	; 80069c4 <USBH_MIDI_Handle.4181+0x120c>
 8006674:	eef8 0ac7 	vcvt.f32.s32	s1, s14
 8006678:	eec0 0aa7 	vdiv.f32	s1, s1, s15
 800667c:	f003 ff1c 	bl	800a4b8 <powf>
 8006680:	4ad1      	ldr	r2, [pc, #836]	; (80069c8 <USBH_MIDI_Handle.4181+0x1210>)
 8006682:	4bd2      	ldr	r3, [pc, #840]	; (80069cc <USBH_MIDI_Handle.4181+0x1214>)
 8006684:	ed9f 7ad2 	vldr	s14, [pc, #840]	; 80069d0 <USBH_MIDI_Handle.4181+0x1218>
 8006688:	ed9f 6ad2 	vldr	s12, [pc, #840]	; 80069d4 <USBH_MIDI_Handle.4181+0x121c>
 800668c:	eddf 6ad2 	vldr	s13, [pc, #840]	; 80069d8 <USBH_MIDI_Handle.4181+0x1220>
 8006690:	eddf 7ad2 	vldr	s15, [pc, #840]	; 80069dc <USBH_MIDI_Handle.4181+0x1224>
 8006694:	ee20 0a07 	vmul.f32	s0, s0, s14
 8006698:	eef6 5a00 	vmov.f32	s11, #96	; 0x60
 800669c:	ee80 7a06 	vdiv.f32	s14, s0, s12
 80066a0:	eeb9 6a04 	vmov.f32	s12, #148	; 0x94
 80066a4:	eeb4 7a66 	vcmp.f32	s14, s13
 80066a8:	eef1 fa10 	vmrs	APSR_nzcv, fpscr
 80066ac:	ed82 7a00 	vstr	s14, [r2]
 80066b0:	bfc8      	it	gt
 80066b2:	eeb0 7a66 	vmovgt.f32	s14, s13
 80066b6:	ee27 7a25 	vmul.f32	s14, s14, s11
 80066ba:	eefa 5a0e 	vmov.f32	s11, #174	; 0xae
 80066be:	ee67 7a27 	vmul.f32	s15, s14, s15
 80066c2:	eeb0 5a08 	vmov.f32	s10, #8
 80066c6:	ee77 4aa7 	vadd.f32	s9, s15, s15
 80066ca:	ee67 6aa7 	vmul.f32	s13, s15, s15
 80066ce:	eea7 6aa4 	vfma.f32	s12, s15, s9
 80066d2:	ee67 6aa6 	vmul.f32	s13, s15, s13
 80066d6:	ee26 6a05 	vmul.f32	s12, s12, s10
 80066da:	eee7 6aa5 	vfma.f32	s13, s15, s11
 80066de:	ed83 7a01 	vstr	s14, [r3, #4]
 80066e2:	eec6 6a86 	vdiv.f32	s13, s13, s12
 80066e6:	edc3 6a02 	vstr	s13, [r3, #8]
 80066ea:	f7ff b977 	b.w	80059dc <USBH_MIDI_Handle.4181+0x224>
 80066ee:	ee05 3a90 	vmov	s11, r3
 80066f2:	eddf 7ab1 	vldr	s15, [pc, #708]	; 80069b8 <USBH_MIDI_Handle.4181+0x1200>
 80066f6:	ed9f 0aba 	vldr	s0, [pc, #744]	; 80069e0 <USBH_MIDI_Handle.4181+0x1228>
 80066fa:	eef8 0ae5 	vcvt.f32.s32	s1, s11
 80066fe:	eec0 0aa7 	vdiv.f32	s1, s1, s15
 8006702:	f003 fed9 	bl	800a4b8 <powf>
 8006706:	4bb7      	ldr	r3, [pc, #732]	; (80069e4 <USBH_MIDI_Handle.4181+0x122c>)
 8006708:	eddf 7ab7 	vldr	s15, [pc, #732]	; 80069e8 <USBH_MIDI_Handle.4181+0x1230>
 800670c:	ee20 0a27 	vmul.f32	s0, s0, s15
 8006710:	ed83 0a06 	vstr	s0, [r3, #24]
 8006714:	f7ff b962 	b.w	80059dc <USBH_MIDI_Handle.4181+0x224>
 8006718:	ee07 3a10 	vmov	s14, r3
 800671c:	eddf 7aa6 	vldr	s15, [pc, #664]	; 80069b8 <USBH_MIDI_Handle.4181+0x1200>
 8006720:	ed9f 0aaf 	vldr	s0, [pc, #700]	; 80069e0 <USBH_MIDI_Handle.4181+0x1228>
 8006724:	eef8 0ac7 	vcvt.f32.s32	s1, s14
 8006728:	eec0 0aa7 	vdiv.f32	s1, s1, s15
 800672c:	f003 fec4 	bl	800a4b8 <powf>
 8006730:	4bae      	ldr	r3, [pc, #696]	; (80069ec <USBH_MIDI_Handle.4181+0x1234>)
 8006732:	eddf 7aad 	vldr	s15, [pc, #692]	; 80069e8 <USBH_MIDI_Handle.4181+0x1230>
 8006736:	ee20 0a27 	vmul.f32	s0, s0, s15
 800673a:	ed83 0a06 	vstr	s0, [r3, #24]
 800673e:	f7ff b94d 	b.w	80059dc <USBH_MIDI_Handle.4181+0x224>
 8006742:	ee05 3a90 	vmov	s11, r3
 8006746:	eddf 7a9c 	vldr	s15, [pc, #624]	; 80069b8 <USBH_MIDI_Handle.4181+0x1200>
 800674a:	ed9f 0aa5 	vldr	s0, [pc, #660]	; 80069e0 <USBH_MIDI_Handle.4181+0x1228>
 800674e:	eef8 0ae5 	vcvt.f32.s32	s1, s11
 8006752:	eec0 0aa7 	vdiv.f32	s1, s1, s15
 8006756:	f003 feaf 	bl	800a4b8 <powf>
 800675a:	4ba5      	ldr	r3, [pc, #660]	; (80069f0 <USBH_MIDI_Handle.4181+0x1238>)
 800675c:	eddf 7aa2 	vldr	s15, [pc, #648]	; 80069e8 <USBH_MIDI_Handle.4181+0x1230>
 8006760:	ee20 0a27 	vmul.f32	s0, s0, s15
 8006764:	ed83 0a06 	vstr	s0, [r3, #24]
 8006768:	f7ff b938 	b.w	80059dc <USBH_MIDI_Handle.4181+0x224>
 800676c:	ee05 3a90 	vmov	s11, r3
 8006770:	eddf 7a91 	vldr	s15, [pc, #580]	; 80069b8 <USBH_MIDI_Handle.4181+0x1200>
 8006774:	4b95      	ldr	r3, [pc, #596]	; (80069cc <USBH_MIDI_Handle.4181+0x1214>)
 8006776:	eeb8 7ae5 	vcvt.f32.s32	s14, s11
 800677a:	eec7 7a27 	vdiv.f32	s15, s14, s15
 800677e:	eeb1 7a08 	vmov.f32	s14, #24
 8006782:	ee67 7aa7 	vmul.f32	s15, s15, s15
 8006786:	ee67 7a87 	vmul.f32	s15, s15, s14
 800678a:	edc3 7a06 	vstr	s15, [r3, #24]
 800678e:	f7ff b925 	b.w	80059dc <USBH_MIDI_Handle.4181+0x224>
 8006792:	ee07 3a90 	vmov	s15, r3
 8006796:	ed9f 7a88 	vldr	s14, [pc, #544]	; 80069b8 <USBH_MIDI_Handle.4181+0x1200>
 800679a:	4b8c      	ldr	r3, [pc, #560]	; (80069cc <USBH_MIDI_Handle.4181+0x1214>)
 800679c:	eef8 6ae7 	vcvt.f32.s32	s13, s15
 80067a0:	eddf 7a94 	vldr	s15, [pc, #592]	; 80069f4 <USBH_MIDI_Handle.4181+0x123c>
 80067a4:	ee86 7a87 	vdiv.f32	s14, s13, s14
 80067a8:	eef7 6a00 	vmov.f32	s13, #112	; 0x70
 80067ac:	ee36 7ac7 	vsub.f32	s14, s13, s14
 80067b0:	eeb4 7ae7 	vcmpe.f32	s14, s15
 80067b4:	eef1 fa10 	vmrs	APSR_nzcv, fpscr
 80067b8:	ed83 7a03 	vstr	s14, [r3, #12]
 80067bc:	f57f a90e 	bpl.w	80059dc <USBH_MIDI_Handle.4181+0x224>
 80067c0:	edc3 7a03 	vstr	s15, [r3, #12]
 80067c4:	f7ff b90a 	b.w	80059dc <USBH_MIDI_Handle.4181+0x224>
 80067c8:	eb03 0383 	add.w	r3, r3, r3, lsl #2
 80067cc:	ee07 3a10 	vmov	s14, r3
 80067d0:	eddf 7a79 	vldr	s15, [pc, #484]	; 80069b8 <USBH_MIDI_Handle.4181+0x1200>
 80067d4:	eeb8 0ac7 	vcvt.f32.s32	s0, s14
 80067d8:	ee80 0a27 	vdiv.f32	s0, s0, s15
 80067dc:	f003 fd7c 	bl	800a2d8 <lrintf>
 80067e0:	4b7a      	ldr	r3, [pc, #488]	; (80069cc <USBH_MIDI_Handle.4181+0x1214>)
 80067e2:	7018      	strb	r0, [r3, #0]
 80067e4:	f7ff b8fa 	b.w	80059dc <USBH_MIDI_Handle.4181+0x224>
 80067e8:	ee07 3a10 	vmov	s14, r3
 80067ec:	eddf 7a72 	vldr	s15, [pc, #456]	; 80069b8 <USBH_MIDI_Handle.4181+0x1200>
 80067f0:	ed9f 0a74 	vldr	s0, [pc, #464]	; 80069c4 <USBH_MIDI_Handle.4181+0x120c>
 80067f4:	eef8 0ac7 	vcvt.f32.s32	s1, s14
 80067f8:	eec0 0aa7 	vdiv.f32	s1, s1, s15
 80067fc:	f003 fe5c 	bl	800a4b8 <powf>
 8006800:	4a7d      	ldr	r2, [pc, #500]	; (80069f8 <USBH_MIDI_Handle.4181+0x1240>)
 8006802:	4b7e      	ldr	r3, [pc, #504]	; (80069fc <USBH_MIDI_Handle.4181+0x1244>)
 8006804:	ed9f 7a72 	vldr	s14, [pc, #456]	; 80069d0 <USBH_MIDI_Handle.4181+0x1218>
 8006808:	ed9f 6a72 	vldr	s12, [pc, #456]	; 80069d4 <USBH_MIDI_Handle.4181+0x121c>
 800680c:	eddf 6a72 	vldr	s13, [pc, #456]	; 80069d8 <USBH_MIDI_Handle.4181+0x1220>
 8006810:	eddf 7a72 	vldr	s15, [pc, #456]	; 80069dc <USBH_MIDI_Handle.4181+0x1224>
 8006814:	ee20 0a07 	vmul.f32	s0, s0, s14
 8006818:	eef6 5a00 	vmov.f32	s11, #96	; 0x60
 800681c:	ee80 7a06 	vdiv.f32	s14, s0, s12
 8006820:	eeb9 6a04 	vmov.f32	s12, #148	; 0x94
 8006824:	eeb4 7a66 	vcmp.f32	s14, s13
 8006828:	eef1 fa10 	vmrs	APSR_nzcv, fpscr
 800682c:	ed82 7a00 	vstr	s14, [r2]
 8006830:	bfc8      	it	gt
 8006832:	eeb0 7a66 	vmovgt.f32	s14, s13
 8006836:	ee27 7a25 	vmul.f32	s14, s14, s11
 800683a:	eefa 5a0e 	vmov.f32	s11, #174	; 0xae
 800683e:	ee67 7a27 	vmul.f32	s15, s14, s15
 8006842:	eeb0 5a08 	vmov.f32	s10, #8
 8006846:	ee77 4aa7 	vadd.f32	s9, s15, s15
 800684a:	ee67 6aa7 	vmul.f32	s13, s15, s15
 800684e:	eea7 6aa4 	vfma.f32	s12, s15, s9
 8006852:	ee67 6aa6 	vmul.f32	s13, s15, s13
 8006856:	ee26 6a05 	vmul.f32	s12, s12, s10
 800685a:	eee7 6aa5 	vfma.f32	s13, s15, s11
 800685e:	ed83 7a01 	vstr	s14, [r3, #4]
 8006862:	eec6 6a86 	vdiv.f32	s13, s13, s12
 8006866:	edc3 6a02 	vstr	s13, [r3, #8]
 800686a:	f7ff b8b7 	b.w	80059dc <USBH_MIDI_Handle.4181+0x224>
 800686e:	ee06 3a10 	vmov	s12, r3
 8006872:	ed9f 7a51 	vldr	s14, [pc, #324]	; 80069b8 <USBH_MIDI_Handle.4181+0x1200>
 8006876:	eddf 6a62 	vldr	s13, [pc, #392]	; 8006a00 <USBH_MIDI_Handle.4181+0x1248>
 800687a:	4b62      	ldr	r3, [pc, #392]	; (8006a04 <USBH_MIDI_Handle.4181+0x124c>)
 800687c:	eddf 7a55 	vldr	s15, [pc, #340]	; 80069d4 <USBH_MIDI_Handle.4181+0x121c>
 8006880:	eeba 6aef 	vcvt.f32.s32	s12, s12, #1
 8006884:	ee86 6a07 	vdiv.f32	s12, s12, s14
 8006888:	ed93 7a02 	vldr	s14, [r3, #8]
 800688c:	ee76 6a26 	vadd.f32	s13, s12, s13
 8006890:	ee66 7aa7 	vmul.f32	s15, s13, s15
 8006894:	eec7 7a27 	vdiv.f32	s15, s14, s15
 8006898:	edc3 7a03 	vstr	s15, [r3, #12]
 800689c:	f7ff b89e 	b.w	80059dc <USBH_MIDI_Handle.4181+0x224>
 80068a0:	ee05 3a90 	vmov	s11, r3
 80068a4:	eddf 7a44 	vldr	s15, [pc, #272]	; 80069b8 <USBH_MIDI_Handle.4181+0x1200>
 80068a8:	4b56      	ldr	r3, [pc, #344]	; (8006a04 <USBH_MIDI_Handle.4181+0x124c>)
 80068aa:	eeb8 7ae5 	vcvt.f32.s32	s14, s11
 80068ae:	eec7 7a27 	vdiv.f32	s15, s14, s15
 80068b2:	edc3 7a02 	vstr	s15, [r3, #8]
 80068b6:	f7ff b891 	b.w	80059dc <USBH_MIDI_Handle.4181+0x224>
 80068ba:	ee07 3a90 	vmov	s15, r3
 80068be:	ed9f 7a4a 	vldr	s14, [pc, #296]	; 80069e8 <USBH_MIDI_Handle.4181+0x1230>
 80068c2:	ed9f 6a3d 	vldr	s12, [pc, #244]	; 80069b8 <USBH_MIDI_Handle.4181+0x1200>
 80068c6:	eddf 6a4e 	vldr	s13, [pc, #312]	; 8006a00 <USBH_MIDI_Handle.4181+0x1248>
 80068ca:	4b4e      	ldr	r3, [pc, #312]	; (8006a04 <USBH_MIDI_Handle.4181+0x124c>)
 80068cc:	eef8 5ae7 	vcvt.f32.s32	s11, s15
 80068d0:	eddf 7a40 	vldr	s15, [pc, #256]	; 80069d4 <USBH_MIDI_Handle.4181+0x121c>
 80068d4:	ee65 5a87 	vmul.f32	s11, s11, s14
 80068d8:	eeb7 7a00 	vmov.f32	s14, #112	; 0x70
 80068dc:	ee85 6a86 	vdiv.f32	s12, s11, s12
 80068e0:	ee76 6a26 	vadd.f32	s13, s12, s13
 80068e4:	ee66 7aa7 	vmul.f32	s15, s13, s15
 80068e8:	eec7 7a27 	vdiv.f32	s15, s14, s15
 80068ec:	edc3 7a01 	vstr	s15, [r3, #4]
 80068f0:	f7ff b874 	b.w	80059dc <USBH_MIDI_Handle.4181+0x224>
 80068f4:	ee07 3a10 	vmov	s14, r3
 80068f8:	eeb8 6ac7 	vcvt.f32.s32	s12, s14
 80068fc:	ed9f 7a2e 	vldr	s14, [pc, #184]	; 80069b8 <USBH_MIDI_Handle.4181+0x1200>
 8006900:	eddf 6a3f 	vldr	s13, [pc, #252]	; 8006a00 <USBH_MIDI_Handle.4181+0x1248>
 8006904:	eddf 7a33 	vldr	s15, [pc, #204]	; 80069d4 <USBH_MIDI_Handle.4181+0x121c>
 8006908:	4b3e      	ldr	r3, [pc, #248]	; (8006a04 <USBH_MIDI_Handle.4181+0x124c>)
 800690a:	ee86 6a07 	vdiv.f32	s12, s12, s14
 800690e:	eeb7 7a00 	vmov.f32	s14, #112	; 0x70
 8006912:	ee76 6a26 	vadd.f32	s13, s12, s13
 8006916:	ee66 7aa7 	vmul.f32	s15, s13, s15
 800691a:	eec7 7a27 	vdiv.f32	s15, s14, s15
 800691e:	edc3 7a00 	vstr	s15, [r3]
 8006922:	f7ff b85b 	b.w	80059dc <USBH_MIDI_Handle.4181+0x224>
 8006926:	ee07 3a10 	vmov	s14, r3
 800692a:	eeb8 6ac7 	vcvt.f32.s32	s12, s14
 800692e:	ed9f 7a36 	vldr	s14, [pc, #216]	; 8006a08 <USBH_MIDI_Handle.4181+0x1250>
 8006932:	eddf 6a21 	vldr	s13, [pc, #132]	; 80069b8 <USBH_MIDI_Handle.4181+0x1200>
 8006936:	4b35      	ldr	r3, [pc, #212]	; (8006a0c <USBH_MIDI_Handle.4181+0x1254>)
 8006938:	eddf 7a35 	vldr	s15, [pc, #212]	; 8006a10 <USBH_MIDI_Handle.4181+0x1258>
 800693c:	edd3 5a09 	vldr	s11, [r3, #36]	; 0x24
 8006940:	ee26 6a07 	vmul.f32	s12, s12, s14
 8006944:	eeb8 7ae5 	vcvt.f32.s32	s14, s11
 8006948:	eec6 6a26 	vdiv.f32	s13, s12, s13
 800694c:	ee76 7aa7 	vadd.f32	s15, s13, s15
 8006950:	ee67 7a27 	vmul.f32	s15, s14, s15
 8006954:	eefc 7ae7 	vcvt.u32.f32	s15, s15
 8006958:	edc3 7a0c 	vstr	s15, [r3, #48]	; 0x30
 800695c:	f7ff b83e 	b.w	80059dc <USBH_MIDI_Handle.4181+0x224>
 8006960:	ee05 3a90 	vmov	s11, r3
 8006964:	eddf 7a14 	vldr	s15, [pc, #80]	; 80069b8 <USBH_MIDI_Handle.4181+0x1200>
 8006968:	eeb8 7ae5 	vcvt.f32.s32	s14, s11
 800696c:	eeb4 7a67 	vcmp.f32	s14, s15
 8006970:	eef1 fa10 	vmrs	APSR_nzcv, fpscr
 8006974:	f47f a832 	bne.w	80059dc <USBH_MIDI_Handle.4181+0x224>
 8006978:	4b26      	ldr	r3, [pc, #152]	; (8006a14 <USBH_MIDI_Handle.4181+0x125c>)
 800697a:	681a      	ldr	r2, [r3, #0]
 800697c:	f644 610b 	movw	r1, #19979	; 0x4e0b
 8006980:	428a      	cmp	r2, r1
 8006982:	bf9c      	itt	ls
 8006984:	3214      	addls	r2, #20
 8006986:	601a      	strls	r2, [r3, #0]
 8006988:	4a23      	ldr	r2, [pc, #140]	; (8006a18 <USBH_MIDI_Handle.4181+0x1260>)
 800698a:	681b      	ldr	r3, [r3, #0]
 800698c:	6811      	ldr	r1, [r2, #0]
 800698e:	4a23      	ldr	r2, [pc, #140]	; (8006a1c <USBH_MIDI_Handle.4181+0x1264>)
 8006990:	eba1 0383 	sub.w	r3, r1, r3, lsl #2
 8006994:	4293      	cmp	r3, r2
 8006996:	bf37      	itett	cc
 8006998:	f503 339c 	addcc.w	r3, r3, #79872	; 0x13800
 800699c:	4a20      	ldrcs	r2, [pc, #128]	; (8006a20 <USBH_MIDI_Handle.4181+0x1268>)
 800699e:	4a20      	ldrcc	r2, [pc, #128]	; (8006a20 <USBH_MIDI_Handle.4181+0x1268>)
 80069a0:	337c      	addcc	r3, #124	; 0x7c
 80069a2:	6013      	str	r3, [r2, #0]
 80069a4:	f7ff b81a 	b.w	80059dc <USBH_MIDI_Handle.4181+0x224>
 80069a8:	20000000 	.word	0x20000000
 80069ac:	3dc18306 	.word	0x3dc18306
 80069b0:	10002dac 	.word	0x10002dac
 80069b4:	3e810204 	.word	0x3e810204
 80069b8:	42fe0000 	.word	0x42fe0000
 80069bc:	45bb8000 	.word	0x45bb8000
 80069c0:	20000098 	.word	0x20000098
 80069c4:	42c80000 	.word	0x42c80000
 80069c8:	200004e4 	.word	0x200004e4
 80069cc:	10002cec 	.word	0x10002cec
 80069d0:	42a00000 	.word	0x42a00000
 80069d4:	473b8000 	.word	0x473b8000
 80069d8:	3f733333 	.word	0x3f733333
 80069dc:	40490fdb 	.word	0x40490fdb
 80069e0:	43200000 	.word	0x43200000
 80069e4:	10002d6c 	.word	0x10002d6c
 80069e8:	3e4ccccd 	.word	0x3e4ccccd
 80069ec:	10002d4c 	.word	0x10002d4c
 80069f0:	10002d2c 	.word	0x10002d2c
 80069f4:	3c23d70a 	.word	0x3c23d70a
 80069f8:	20014cf0 	.word	0x20014cf0
 80069fc:	10002ccc 	.word	0x10002ccc
 8006a00:	38d1b717 	.word	0x38d1b717
 8006a04:	20014cf4 	.word	0x20014cf4
 8006a08:	3f4ccccc 	.word	0x3f4ccccc
 8006a0c:	200004f0 	.word	0x200004f0
 8006a10:	3dcccccd 	.word	0x3dcccccd
 8006a14:	200004e0 	.word	0x200004e0
 8006a18:	20014d1c 	.word	0x20014d1c
 8006a1c:	20001228 	.word	0x20001228
 8006a20:	200004e8 	.word	0x200004e8
 8006a24:	42fe0000 	.word	0x42fe0000
 8006a28:	ee07 3a90 	vmov	s15, r3
 8006a2c:	eeb8 7ae7 	vcvt.f32.s32	s14, s15
 8006a30:	ed5f 7a04 	vldr	s15, [pc, #-16]	; 8006a24 <USBH_MIDI_Handle.4181+0x126c>
 8006a34:	eeb4 7a67 	vcmp.f32	s14, s15
 8006a38:	eef1 fa10 	vmrs	APSR_nzcv, fpscr
 8006a3c:	f47e afce 	bne.w	80059dc <USBH_MIDI_Handle.4181+0x224>
 8006a40:	4b60      	ldr	r3, [pc, #384]	; (8006bc4 <USBH_MIDI_Handle.4181+0x140c>)
 8006a42:	681a      	ldr	r2, [r3, #0]
 8006a44:	f5b2 7f87 	cmp.w	r2, #270	; 0x10e
 8006a48:	bf84      	itt	hi
 8006a4a:	3a14      	subhi	r2, #20
 8006a4c:	601a      	strhi	r2, [r3, #0]
 8006a4e:	4a5e      	ldr	r2, [pc, #376]	; (8006bc8 <USBH_MIDI_Handle.4181+0x1410>)
 8006a50:	681b      	ldr	r3, [r3, #0]
 8006a52:	6811      	ldr	r1, [r2, #0]
 8006a54:	4a5d      	ldr	r2, [pc, #372]	; (8006bcc <USBH_MIDI_Handle.4181+0x1414>)
 8006a56:	eba1 0383 	sub.w	r3, r1, r3, lsl #2
 8006a5a:	4293      	cmp	r3, r2
 8006a5c:	bf37      	itett	cc
 8006a5e:	f503 339c 	addcc.w	r3, r3, #79872	; 0x13800
 8006a62:	4a5b      	ldrcs	r2, [pc, #364]	; (8006bd0 <USBH_MIDI_Handle.4181+0x1418>)
 8006a64:	4a5a      	ldrcc	r2, [pc, #360]	; (8006bd0 <USBH_MIDI_Handle.4181+0x1418>)
 8006a66:	337c      	addcc	r3, #124	; 0x7c
 8006a68:	6013      	str	r3, [r2, #0]
 8006a6a:	f7fe bfb7 	b.w	80059dc <USBH_MIDI_Handle.4181+0x224>
 8006a6e:	ee07 3a90 	vmov	s15, r3
 8006a72:	eeb8 7ae7 	vcvt.f32.s32	s14, s15
 8006a76:	eddf 7a57 	vldr	s15, [pc, #348]	; 8006bd4 <USBH_MIDI_Handle.4181+0x141c>
 8006a7a:	4b57      	ldr	r3, [pc, #348]	; (8006bd8 <USBH_MIDI_Handle.4181+0x1420>)
 8006a7c:	eec7 7a27 	vdiv.f32	s15, s14, s15
 8006a80:	edc3 7a00 	vstr	s15, [r3]
 8006a84:	f7fe bfaa 	b.w	80059dc <USBH_MIDI_Handle.4181+0x224>
 8006a88:	eb03 0383 	add.w	r3, r3, r3, lsl #2
 8006a8c:	ee05 3a90 	vmov	s11, r3
 8006a90:	eddf 7a50 	vldr	s15, [pc, #320]	; 8006bd4 <USBH_MIDI_Handle.4181+0x141c>
 8006a94:	eeb8 0ae5 	vcvt.f32.s32	s0, s11
 8006a98:	ee80 0a27 	vdiv.f32	s0, s0, s15
 8006a9c:	f003 fc1c 	bl	800a2d8 <lrintf>
 8006aa0:	4b4e      	ldr	r3, [pc, #312]	; (8006bdc <USBH_MIDI_Handle.4181+0x1424>)
 8006aa2:	7018      	strb	r0, [r3, #0]
 8006aa4:	f7fe bf9a 	b.w	80059dc <USBH_MIDI_Handle.4181+0x224>
 8006aa8:	ee07 3a90 	vmov	s15, r3
 8006aac:	eeb8 7ae7 	vcvt.f32.s32	s14, s15
 8006ab0:	eddf 7a48 	vldr	s15, [pc, #288]	; 8006bd4 <USBH_MIDI_Handle.4181+0x141c>
 8006ab4:	4b49      	ldr	r3, [pc, #292]	; (8006bdc <USBH_MIDI_Handle.4181+0x1424>)
 8006ab6:	eec7 7a27 	vdiv.f32	s15, s14, s15
 8006aba:	eeb1 7a08 	vmov.f32	s14, #24
 8006abe:	ee67 7aa7 	vmul.f32	s15, s15, s15
 8006ac2:	ee67 7a87 	vmul.f32	s15, s15, s14
 8006ac6:	edc3 7a06 	vstr	s15, [r3, #24]
 8006aca:	f7fe bf87 	b.w	80059dc <USBH_MIDI_Handle.4181+0x224>
 8006ace:	ee07 3a90 	vmov	s15, r3
 8006ad2:	eef8 6ae7 	vcvt.f32.s32	s13, s15
 8006ad6:	f7ff b9d3 	b.w	8005e80 <USBH_MIDI_Handle.4181+0x6c8>
 8006ada:	ee07 3a90 	vmov	s15, r3
 8006ade:	eeb8 7ae7 	vcvt.f32.s32	s14, s15
 8006ae2:	eddf 7a3c 	vldr	s15, [pc, #240]	; 8006bd4 <USBH_MIDI_Handle.4181+0x141c>
 8006ae6:	493e      	ldr	r1, [pc, #248]	; (8006be0 <USBH_MIDI_Handle.4181+0x1428>)
 8006ae8:	4a3e      	ldr	r2, [pc, #248]	; (8006be4 <USBH_MIDI_Handle.4181+0x142c>)
 8006aea:	4b3f      	ldr	r3, [pc, #252]	; (8006be8 <USBH_MIDI_Handle.4181+0x1430>)
 8006aec:	eec7 7a27 	vdiv.f32	s15, s14, s15
 8006af0:	ee67 7aa7 	vmul.f32	s15, s15, s15
 8006af4:	edc1 7a02 	vstr	s15, [r1, #8]
 8006af8:	edc2 7a02 	vstr	s15, [r2, #8]
 8006afc:	edc3 7a02 	vstr	s15, [r3, #8]
 8006b00:	f7fe bf6c 	b.w	80059dc <USBH_MIDI_Handle.4181+0x224>
 8006b04:	ee05 3a90 	vmov	s11, r3
 8006b08:	eddf 7a38 	vldr	s15, [pc, #224]	; 8006bec <USBH_MIDI_Handle.4181+0x1434>
 8006b0c:	4b32      	ldr	r3, [pc, #200]	; (8006bd8 <USBH_MIDI_Handle.4181+0x1420>)
 8006b0e:	eeb8 7ae5 	vcvt.f32.s32	s14, s11
 8006b12:	ee67 7a27 	vmul.f32	s15, s14, s15
 8006b16:	edc3 7a02 	vstr	s15, [r3, #8]
 8006b1a:	f7fe bf5f 	b.w	80059dc <USBH_MIDI_Handle.4181+0x224>
 8006b1e:	2001      	movs	r0, #1
 8006b20:	2200      	movs	r2, #0
 8006b22:	2303      	movs	r3, #3
 8006b24:	70c8      	strb	r0, [r1, #3]
 8006b26:	770a      	strb	r2, [r1, #28]
 8006b28:	7023      	strb	r3, [r4, #0]
 8006b2a:	f7fe be60 	b.w	80057ee <USBH_MIDI_Handle.4181+0x36>
 8006b2e:	4a30      	ldr	r2, [pc, #192]	; (8006bf0 <USBH_MIDI_Handle.4181+0x1438>)
 8006b30:	7313      	strb	r3, [r2, #12]
 8006b32:	f7fe bf53 	b.w	80059dc <USBH_MIDI_Handle.4181+0x224>
 8006b36:	ed83 7a00 	vstr	s14, [r3]
 8006b3a:	ed81 7a00 	vstr	s14, [r1]
 8006b3e:	ed82 7a00 	vstr	s14, [r2]
 8006b42:	f7fe bf4b 	b.w	80059dc <USBH_MIDI_Handle.4181+0x224>
 8006b46:	3319      	adds	r3, #25
 8006b48:	b2dd      	uxtb	r5, r3
 8006b4a:	4629      	mov	r1, r5
 8006b4c:	2020      	movs	r0, #32
 8006b4e:	f001 f82b 	bl	8007ba8 <Codec_WriteRegister.4974>
 8006b52:	4629      	mov	r1, r5
 8006b54:	2021      	movs	r0, #33	; 0x21
 8006b56:	f001 f827 	bl	8007ba8 <Codec_WriteRegister.4974>
 8006b5a:	f7fe bf3f 	b.w	80059dc <USBH_MIDI_Handle.4181+0x224>
 8006b5e:	2364      	movs	r3, #100	; 0x64
 8006b60:	f7ff bbf5 	b.w	800634e <USBH_MIDI_Handle.4181+0xb96>
 8006b64:	4e23      	ldr	r6, [pc, #140]	; (8006bf4 <USBH_MIDI_Handle.4181+0x143c>)
 8006b66:	4d24      	ldr	r5, [pc, #144]	; (8006bf8 <USBH_MIDI_Handle.4181+0x1440>)
 8006b68:	ed96 0a01 	vldr	s0, [r6, #4]
 8006b6c:	f003 fb5c 	bl	800a228 <fabsf>
 8006b70:	eef1 7a40 	vneg.f32	s15, s0
 8006b74:	ed95 0a01 	vldr	s0, [r5, #4]
 8006b78:	edc6 7a01 	vstr	s15, [r6, #4]
 8006b7c:	f003 fb54 	bl	800a228 <fabsf>
 8006b80:	eeb1 0a40 	vneg.f32	s0, s0
 8006b84:	ed85 0a01 	vstr	s0, [r5, #4]
 8006b88:	f7fe bf28 	b.w	80059dc <USBH_MIDI_Handle.4181+0x224>
 8006b8c:	f241 53f4 	movw	r3, #5620	; 0x15f4
 8006b90:	4819      	ldr	r0, [pc, #100]	; (8006bf8 <USBH_MIDI_Handle.4181+0x1440>)
 8006b92:	4918      	ldr	r1, [pc, #96]	; (8006bf4 <USBH_MIDI_Handle.4181+0x143c>)
 8006b94:	2201      	movs	r2, #1
 8006b96:	54c2      	strb	r2, [r0, r3]
 8006b98:	54ca      	strb	r2, [r1, r3]
 8006b9a:	f7fe bf1f 	b.w	80059dc <USBH_MIDI_Handle.4181+0x224>
 8006b9e:	4917      	ldr	r1, [pc, #92]	; (8006bfc <USBH_MIDI_Handle.4181+0x1444>)
 8006ba0:	4a17      	ldr	r2, [pc, #92]	; (8006c00 <USBH_MIDI_Handle.4181+0x1448>)
 8006ba2:	4b18      	ldr	r3, [pc, #96]	; (8006c04 <USBH_MIDI_Handle.4181+0x144c>)
 8006ba4:	680f      	ldr	r7, [r1, #0]
 8006ba6:	6816      	ldr	r6, [r2, #0]
 8006ba8:	681d      	ldr	r5, [r3, #0]
 8006baa:	604f      	str	r7, [r1, #4]
 8006bac:	2000      	movs	r0, #0
 8006bae:	6008      	str	r0, [r1, #0]
 8006bb0:	6056      	str	r6, [r2, #4]
 8006bb2:	6010      	str	r0, [r2, #0]
 8006bb4:	6018      	str	r0, [r3, #0]
 8006bb6:	605d      	str	r5, [r3, #4]
 8006bb8:	f7fe bf10 	b.w	80059dc <USBH_MIDI_Handle.4181+0x224>
 8006bbc:	4a0c      	ldr	r2, [pc, #48]	; (8006bf0 <USBH_MIDI_Handle.4181+0x1438>)
 8006bbe:	7393      	strb	r3, [r2, #14]
 8006bc0:	f7fe bf0c 	b.w	80059dc <USBH_MIDI_Handle.4181+0x224>
 8006bc4:	200004e0 	.word	0x200004e0
 8006bc8:	20014d1c 	.word	0x20014d1c
 8006bcc:	20001228 	.word	0x20001228
 8006bd0:	200004e8 	.word	0x200004e8
 8006bd4:	42fe0000 	.word	0x42fe0000
 8006bd8:	10002dec 	.word	0x10002dec
 8006bdc:	10002ccc 	.word	0x10002ccc
 8006be0:	10000090 	.word	0x10000090
 8006be4:	10000064 	.word	0x10000064
 8006be8:	10000038 	.word	0x10000038
 8006bec:	3dc18306 	.word	0x3dc18306
 8006bf0:	2000052c 	.word	0x2000052c
 8006bf4:	100016b4 	.word	0x100016b4
 8006bf8:	100000bc 	.word	0x100000bc
 8006bfc:	10002d0c 	.word	0x10002d0c
 8006c00:	10002d2c 	.word	0x10002d2c
 8006c04:	10002d4c 	.word	0x10002d4c

08006c08 <MagicPatch.part.1.6386>:
MagicPatch.part.1.6386():
 8006c08:	e92d 41f0 	stmdb	sp!, {r4, r5, r6, r7, r8, lr}
 8006c0c:	ed2d 8b08 	vpush	{d8-d11}
 8006c10:	f005 fc02 	bl	800c418 <rand>
 8006c14:	ee06 0a10 	vmov	s12, r0
 8006c18:	ed9f 9aec 	vldr	s18, [pc, #944]	; 8006fcc <MagicPatch.part.1.6386+0x3c4>
 8006c1c:	eddf 8aec 	vldr	s17, [pc, #944]	; 8006fd0 <MagicPatch.part.1.6386+0x3c8>
 8006c20:	ed9f 8aec 	vldr	s16, [pc, #944]	; 8006fd4 <MagicPatch.part.1.6386+0x3cc>
 8006c24:	4dec      	ldr	r5, [pc, #944]	; (8006fd8 <MagicPatch.part.1.6386+0x3d0>)
 8006c26:	4ced      	ldr	r4, [pc, #948]	; (8006fdc <MagicPatch.part.1.6386+0x3d4>)
 8006c28:	4fec      	ldr	r7, [pc, #944]	; (8006fdc <MagicPatch.part.1.6386+0x3d4>)
 8006c2a:	eef8 7ac6 	vcvt.f32.s32	s15, s12
 8006c2e:	eeb0 0a68 	vmov.f32	s0, s17
 8006c32:	ee67 7a89 	vmul.f32	s15, s15, s18
 8006c36:	2601      	movs	r6, #1
 8006c38:	eea7 0a88 	vfma.f32	s0, s15, s16
 8006c3c:	f003 fb4c 	bl	800a2d8 <lrintf>
 8006c40:	b2c0      	uxtb	r0, r0
 8006c42:	ee07 0a10 	vmov	s14, r0
 8006c46:	eef8 7ac7 	vcvt.f32.s32	s15, s14
 8006c4a:	ed9f 7ae5 	vldr	s14, [pc, #916]	; 8006fe0 <MagicPatch.part.1.6386+0x3d8>
 8006c4e:	ed9f 0ae5 	vldr	s0, [pc, #916]	; 8006fe4 <MagicPatch.part.1.6386+0x3dc>
 8006c52:	ee67 7a87 	vmul.f32	s15, s15, s14
 8006c56:	eeb3 7a04 	vmov.f32	s14, #52	; 0x34
 8006c5a:	eec7 7a88 	vdiv.f32	s15, s15, s16
 8006c5e:	ee77 7a87 	vadd.f32	s15, s15, s14
 8006c62:	ee80 0a27 	vdiv.f32	s0, s0, s15
 8006c66:	edc5 7a08 	vstr	s15, [r5, #32]
 8006c6a:	f003 fb35 	bl	800a2d8 <lrintf>
 8006c6e:	6268      	str	r0, [r5, #36]	; 0x24
 8006c70:	f005 fbd2 	bl	800c418 <rand>
 8006c74:	ee06 0a10 	vmov	s12, r0
 8006c78:	eef8 7ac6 	vcvt.f32.s32	s15, s12
 8006c7c:	eeb0 0a68 	vmov.f32	s0, s17
 8006c80:	ee67 7a89 	vmul.f32	s15, s15, s18
 8006c84:	eea7 0a88 	vfma.f32	s0, s15, s16
 8006c88:	f003 fb26 	bl	800a2d8 <lrintf>
 8006c8c:	b2c0      	uxtb	r0, r0
 8006c8e:	ee07 0a10 	vmov	s14, r0
 8006c92:	eef8 7ac7 	vcvt.f32.s32	s15, s14
 8006c96:	ed9f 7ad4 	vldr	s14, [pc, #848]	; 8006fe8 <MagicPatch.part.1.6386+0x3e0>
 8006c9a:	ee67 7a87 	vmul.f32	s15, s15, s14
 8006c9e:	2201      	movs	r2, #1
 8006ca0:	eefc 7ae7 	vcvt.u32.f32	s15, s15
 8006ca4:	7362      	strb	r2, [r4, #13]
 8006ca6:	ee17 3a90 	vmov	r3, s15
 8006caa:	7223      	strb	r3, [r4, #8]
 8006cac:	f005 fbb4 	bl	800c418 <rand>
 8006cb0:	ee06 0a10 	vmov	s12, r0
 8006cb4:	eef8 7ac6 	vcvt.f32.s32	s15, s12
 8006cb8:	eeb0 0a68 	vmov.f32	s0, s17
 8006cbc:	ee27 9a89 	vmul.f32	s18, s15, s18
 8006cc0:	eddf 8ac4 	vldr	s17, [pc, #784]	; 8006fd4 <MagicPatch.part.1.6386+0x3cc>
 8006cc4:	eea9 0a08 	vfma.f32	s0, s18, s16
 8006cc8:	f003 fb06 	bl	800a2d8 <lrintf>
 8006ccc:	b2c0      	uxtb	r0, r0
 8006cce:	ee07 0a10 	vmov	s14, r0
 8006cd2:	eddf 7ac6 	vldr	s15, [pc, #792]	; 8006fec <MagicPatch.part.1.6386+0x3e4>
 8006cd6:	ed9f 9abd 	vldr	s18, [pc, #756]	; 8006fcc <MagicPatch.part.1.6386+0x3c4>
 8006cda:	ed9f 8abd 	vldr	s16, [pc, #756]	; 8006fd0 <MagicPatch.part.1.6386+0x3c8>
 8006cde:	eeb8 0ac7 	vcvt.f32.s32	s0, s14
 8006ce2:	ee20 0a27 	vmul.f32	s0, s0, s15
 8006ce6:	f003 fb41 	bl	800a36c <rintf>
 8006cea:	eebc 0ac0 	vcvt.u32.f32	s0, s0
 8006cee:	7366      	strb	r6, [r4, #13]
 8006cf0:	ee10 3a10 	vmov	r3, s0
 8006cf4:	b2db      	uxtb	r3, r3
 8006cf6:	2b0e      	cmp	r3, #14
 8006cf8:	bf98      	it	ls
 8006cfa:	4abd      	ldrls	r2, [pc, #756]	; (8006ff0 <MagicPatch.part.1.6386+0x3e8>)
 8006cfc:	7023      	strb	r3, [r4, #0]
 8006cfe:	bf94      	ite	ls
 8006d00:	f852 3023 	ldrls.w	r3, [r2, r3, lsl #2]
 8006d04:	4bbb      	ldrhi	r3, [pc, #748]	; (8006ff4 <MagicPatch.part.1.6386+0x3ec>)
 8006d06:	6063      	str	r3, [r4, #4]
 8006d08:	f005 fb86 	bl	800c418 <rand>
 8006d0c:	ee06 0a10 	vmov	s12, r0
 8006d10:	eef8 7ac6 	vcvt.f32.s32	s15, s12
 8006d14:	eeb0 0a48 	vmov.f32	s0, s16
 8006d18:	ee67 7a89 	vmul.f32	s15, s15, s18
 8006d1c:	eea7 0aa8 	vfma.f32	s0, s15, s17
 8006d20:	f003 fada 	bl	800a2d8 <lrintf>
 8006d24:	b2c0      	uxtb	r0, r0
 8006d26:	283f      	cmp	r0, #63	; 0x3f
 8006d28:	bf94      	ite	ls
 8006d2a:	2300      	movls	r3, #0
 8006d2c:	2301      	movhi	r3, #1
 8006d2e:	72e3      	strb	r3, [r4, #11]
 8006d30:	f005 fb72 	bl	800c418 <rand>
 8006d34:	ee07 0a10 	vmov	s14, r0
 8006d38:	eef8 7ac7 	vcvt.f32.s32	s15, s14
 8006d3c:	eeb0 0a48 	vmov.f32	s0, s16
 8006d40:	ee27 9a89 	vmul.f32	s18, s15, s18
 8006d44:	eea9 0a28 	vfma.f32	s0, s18, s17
 8006d48:	f003 fac6 	bl	800a2d8 <lrintf>
 8006d4c:	b2c0      	uxtb	r0, r0
 8006d4e:	2800      	cmp	r0, #0
 8006d50:	f000 83c8 	beq.w	80074e4 <MagicPatch.part.1.6386+0x8dc>
 8006d54:	287f      	cmp	r0, #127	; 0x7f
 8006d56:	f000 8359 	beq.w	800740c <MagicPatch.part.1.6386+0x804>
 8006d5a:	f005 fb5d 	bl	800c418 <rand>
 8006d5e:	ee06 0a10 	vmov	s12, r0
 8006d62:	eddf 9a9a 	vldr	s19, [pc, #616]	; 8006fcc <MagicPatch.part.1.6386+0x3c4>
 8006d66:	ed9f 9a9a 	vldr	s18, [pc, #616]	; 8006fd0 <MagicPatch.part.1.6386+0x3c8>
 8006d6a:	ed9f 8a9a 	vldr	s16, [pc, #616]	; 8006fd4 <MagicPatch.part.1.6386+0x3cc>
 8006d6e:	f8df 82c8 	ldr.w	r8, [pc, #712]	; 8007038 <MagicPatch.part.1.6386+0x430>
 8006d72:	eef8 7ac6 	vcvt.f32.s32	s15, s12
 8006d76:	eeb0 0a49 	vmov.f32	s0, s18
 8006d7a:	ee67 7aa9 	vmul.f32	s15, s15, s19
 8006d7e:	eea7 0a88 	vfma.f32	s0, s15, s16
 8006d82:	f003 faa9 	bl	800a2d8 <lrintf>
 8006d86:	b2c0      	uxtb	r0, r0
 8006d88:	ee07 0a10 	vmov	s14, r0
 8006d8c:	eef8 7ac7 	vcvt.f32.s32	s15, s14
 8006d90:	ed9f 7a99 	vldr	s14, [pc, #612]	; 8006ff8 <MagicPatch.part.1.6386+0x3f0>
 8006d94:	eddf 6a99 	vldr	s13, [pc, #612]	; 8006ffc <MagicPatch.part.1.6386+0x3f4>
 8006d98:	ed95 6a09 	vldr	s12, [r5, #36]	; 0x24
 8006d9c:	ee67 7a87 	vmul.f32	s15, s15, s14
 8006da0:	eeb8 7ac6 	vcvt.f32.s32	s14, s12
 8006da4:	eec7 7a88 	vdiv.f32	s15, s15, s16
 8006da8:	ee77 7aa6 	vadd.f32	s15, s15, s13
 8006dac:	ee67 7a27 	vmul.f32	s15, s14, s15
 8006db0:	eefc 7ae7 	vcvt.u32.f32	s15, s15
 8006db4:	edc5 7a0c 	vstr	s15, [r5, #48]	; 0x30
 8006db8:	f005 fb2e 	bl	800c418 <rand>
 8006dbc:	ee07 0a10 	vmov	s14, r0
 8006dc0:	eef8 7ac7 	vcvt.f32.s32	s15, s14
 8006dc4:	eeb0 0a49 	vmov.f32	s0, s18
 8006dc8:	ee67 7aa9 	vmul.f32	s15, s15, s19
 8006dcc:	eea7 0a88 	vfma.f32	s0, s15, s16
 8006dd0:	f003 fa82 	bl	800a2d8 <lrintf>
 8006dd4:	b2c0      	uxtb	r0, r0
 8006dd6:	ee07 0a90 	vmov	s15, r0
 8006dda:	eeb8 0ae7 	vcvt.f32.s32	s0, s15
 8006dde:	eddf 7a88 	vldr	s15, [pc, #544]	; 8007000 <MagicPatch.part.1.6386+0x3f8>
 8006de2:	ee20 0a27 	vmul.f32	s0, s0, s15
 8006de6:	f003 fac1 	bl	800a36c <rintf>
 8006dea:	eebc 0ac0 	vcvt.u32.f32	s0, s0
 8006dee:	ee10 3a10 	vmov	r3, s0
 8006df2:	b2db      	uxtb	r3, r3
 8006df4:	2b04      	cmp	r3, #4
 8006df6:	f888 3000 	strb.w	r3, [r8]
 8006dfa:	d040      	beq.n	8006e7e <MagicPatch.part.1.6386+0x276>
 8006dfc:	4d81      	ldr	r5, [pc, #516]	; (8007004 <MagicPatch.part.1.6386+0x3fc>)
 8006dfe:	4e82      	ldr	r6, [pc, #520]	; (8007008 <MagicPatch.part.1.6386+0x400>)
 8006e00:	eddf aa82 	vldr	s21, [pc, #520]	; 800700c <MagicPatch.part.1.6386+0x404>
 8006e04:	ed86 9a01 	vstr	s18, [r6, #4]
 8006e08:	462c      	mov	r4, r5
 8006e0a:	ee19 2a10 	vmov	r2, s18
 8006e0e:	f04f 537e 	mov.w	r3, #1065353216	; 0x3f800000
 8006e12:	ed9f aa7f 	vldr	s20, [pc, #508]	; 8007010 <MagicPatch.part.1.6386+0x408>
 8006e16:	f844 3b08 	str.w	r3, [r4], #8
 8006e1a:	f846 2b08 	str.w	r2, [r6], #8
 8006e1e:	606b      	str	r3, [r5, #4]
 8006e20:	f105 072c 	add.w	r7, r5, #44	; 0x2c
 8006e24:	f005 faf8 	bl	800c418 <rand>
 8006e28:	ee06 0a10 	vmov	s12, r0
 8006e2c:	eef8 7ac6 	vcvt.f32.s32	s15, s12
 8006e30:	eeb0 7a4a 	vmov.f32	s14, s20
 8006e34:	ee67 7aa9 	vmul.f32	s15, s15, s19
 8006e38:	eca6 9a01 	vstmia	r6!, {s18}
 8006e3c:	eea7 7aaa 	vfma.f32	s14, s15, s21
 8006e40:	4b70      	ldr	r3, [pc, #448]	; (8007004 <MagicPatch.part.1.6386+0x3fc>)
 8006e42:	eddf 8a62 	vldr	s17, [pc, #392]	; 8006fcc <MagicPatch.part.1.6386+0x3c4>
 8006e46:	eca4 7a01 	vstmia	r4!, {s14}
 8006e4a:	eef0 7a47 	vmov.f32	s15, s14
 8006e4e:	ed95 7a00 	vldr	s14, [r5]
 8006e52:	ed9f 8a5f 	vldr	s16, [pc, #380]	; 8006fd0 <MagicPatch.part.1.6386+0x3c8>
 8006e56:	ee77 7a87 	vadd.f32	s15, s15, s14
 8006e5a:	42bc      	cmp	r4, r7
 8006e5c:	edc5 7a00 	vstr	s15, [r5]
 8006e60:	d1e0      	bne.n	8006e24 <MagicPatch.part.1.6386+0x21c>
 8006e62:	eeb7 9a00 	vmov.f32	s18, #112	; 0x70
 8006e66:	eec9 7a27 	vdiv.f32	s15, s18, s15
 8006e6a:	f898 2000 	ldrb.w	r2, [r8]
 8006e6e:	2a10      	cmp	r2, #16
 8006e70:	edc3 7a00 	vstr	s15, [r3]
 8006e74:	f000 8338 	beq.w	80074e8 <MagicPatch.part.1.6386+0x8e0>
 8006e78:	2a0f      	cmp	r2, #15
 8006e7a:	f000 8423 	beq.w	80076c4 <MagicPatch.part.1.6386+0xabc>
 8006e7e:	f005 facb 	bl	800c418 <rand>
 8006e82:	ee07 0a90 	vmov	s15, r0
 8006e86:	ed9f 8a53 	vldr	s16, [pc, #332]	; 8006fd4 <MagicPatch.part.1.6386+0x3cc>
 8006e8a:	ed9f 0a51 	vldr	s0, [pc, #324]	; 8006fd0 <MagicPatch.part.1.6386+0x3c8>
 8006e8e:	eefa 7ae0 	vcvt.f32.s32	s15, s15, #31
 8006e92:	eea7 0a88 	vfma.f32	s0, s15, s16
 8006e96:	f003 fa1f 	bl	800a2d8 <lrintf>
 8006e9a:	b2c0      	uxtb	r0, r0
 8006e9c:	ee07 0a10 	vmov	s14, r0
 8006ea0:	eef8 0ac7 	vcvt.f32.s32	s1, s14
 8006ea4:	ed9f 0a67 	vldr	s0, [pc, #412]	; 8007044 <MagicPatch.part.1.6386+0x43c>
 8006ea8:	eec0 0a88 	vdiv.f32	s1, s1, s16
 8006eac:	f003 fb04 	bl	800a4b8 <powf>
 8006eb0:	4b58      	ldr	r3, [pc, #352]	; (8007014 <MagicPatch.part.1.6386+0x40c>)
 8006eb2:	eddf 7a59 	vldr	s15, [pc, #356]	; 8007018 <MagicPatch.part.1.6386+0x410>
 8006eb6:	eddf 6a59 	vldr	s13, [pc, #356]	; 800701c <MagicPatch.part.1.6386+0x414>
 8006eba:	ed9f 7a59 	vldr	s14, [pc, #356]	; 8007020 <MagicPatch.part.1.6386+0x418>
 8006ebe:	ee20 0a27 	vmul.f32	s0, s0, s15
 8006ec2:	eec0 7a26 	vdiv.f32	s15, s0, s13
 8006ec6:	eef4 7ac7 	vcmpe.f32	s15, s14
 8006eca:	eef1 fa10 	vmrs	APSR_nzcv, fpscr
 8006ece:	edc3 7a00 	vstr	s15, [r3]
 8006ed2:	f340 82ba 	ble.w	800744a <MagicPatch.part.1.6386+0x842>
 8006ed6:	ed9f 7a53 	vldr	s14, [pc, #332]	; 8007024 <MagicPatch.part.1.6386+0x41c>
 8006eda:	eddf 7a53 	vldr	s15, [pc, #332]	; 8007028 <MagicPatch.part.1.6386+0x420>
 8006ede:	4c53      	ldr	r4, [pc, #332]	; (800702c <MagicPatch.part.1.6386+0x424>)
 8006ee0:	ed9f 9a3a 	vldr	s18, [pc, #232]	; 8006fcc <MagicPatch.part.1.6386+0x3c4>
 8006ee4:	ed84 7a02 	vstr	s14, [r4, #8]
 8006ee8:	edc4 7a01 	vstr	s15, [r4, #4]
 8006eec:	f005 fa94 	bl	800c418 <rand>
 8006ef0:	ee06 0a10 	vmov	s12, r0
 8006ef4:	eef8 7ac6 	vcvt.f32.s32	s15, s12
 8006ef8:	eddf 8a35 	vldr	s17, [pc, #212]	; 8006fd0 <MagicPatch.part.1.6386+0x3c8>
 8006efc:	ed9f 8a35 	vldr	s16, [pc, #212]	; 8006fd4 <MagicPatch.part.1.6386+0x3cc>
 8006f00:	4d4b      	ldr	r5, [pc, #300]	; (8007030 <MagicPatch.part.1.6386+0x428>)
 8006f02:	ee67 7a89 	vmul.f32	s15, s15, s18
 8006f06:	eeb0 0a68 	vmov.f32	s0, s17
 8006f0a:	eea7 0a88 	vfma.f32	s0, s15, s16
 8006f0e:	f003 f9e3 	bl	800a2d8 <lrintf>
 8006f12:	b2c0      	uxtb	r0, r0
 8006f14:	ee07 0a10 	vmov	s14, r0
 8006f18:	eef8 7ac7 	vcvt.f32.s32	s15, s14
 8006f1c:	eef7 6a00 	vmov.f32	s13, #112	; 0x70
 8006f20:	eec7 7a88 	vdiv.f32	s15, s15, s16
 8006f24:	ed9f 7a43 	vldr	s14, [pc, #268]	; 8007034 <MagicPatch.part.1.6386+0x42c>
 8006f28:	ee76 7ae7 	vsub.f32	s15, s13, s15
 8006f2c:	eef4 7ac7 	vcmpe.f32	s15, s14
 8006f30:	eef1 fa10 	vmrs	APSR_nzcv, fpscr
 8006f34:	bf48      	it	mi
 8006f36:	eef0 7a47 	vmovmi.f32	s15, s14
 8006f3a:	edc4 7a03 	vstr	s15, [r4, #12]
 8006f3e:	f005 fa6b 	bl	800c418 <rand>
 8006f42:	ee06 0a10 	vmov	s12, r0
 8006f46:	eef8 7ac6 	vcvt.f32.s32	s15, s12
 8006f4a:	eeb0 0a68 	vmov.f32	s0, s17
 8006f4e:	ee67 7a89 	vmul.f32	s15, s15, s18
 8006f52:	eea7 0a88 	vfma.f32	s0, s15, s16
 8006f56:	f003 f9bf 	bl	800a2d8 <lrintf>
 8006f5a:	b2c0      	uxtb	r0, r0
 8006f5c:	ee07 0a10 	vmov	s14, r0
 8006f60:	eef8 7ac7 	vcvt.f32.s32	s15, s14
 8006f64:	eeb1 7a08 	vmov.f32	s14, #24
 8006f68:	eec7 7a88 	vdiv.f32	s15, s15, s16
 8006f6c:	ee67 7aa7 	vmul.f32	s15, s15, s15
 8006f70:	ee67 7a87 	vmul.f32	s15, s15, s14
 8006f74:	edc4 7a06 	vstr	s15, [r4, #24]
 8006f78:	f005 fa4e 	bl	800c418 <rand>
 8006f7c:	ee06 0a10 	vmov	s12, r0
 8006f80:	eef8 7ac6 	vcvt.f32.s32	s15, s12
 8006f84:	eeb0 0a68 	vmov.f32	s0, s17
 8006f88:	ee67 7a89 	vmul.f32	s15, s15, s18
 8006f8c:	eea7 0a88 	vfma.f32	s0, s15, s16
 8006f90:	f003 f9a2 	bl	800a2d8 <lrintf>
 8006f94:	b2c0      	uxtb	r0, r0
 8006f96:	eb00 0080 	add.w	r0, r0, r0, lsl #2
 8006f9a:	ee07 0a10 	vmov	s14, r0
 8006f9e:	eeb8 0ac7 	vcvt.f32.s32	s0, s14
 8006fa2:	ee80 0a08 	vdiv.f32	s0, s0, s16
 8006fa6:	f003 f997 	bl	800a2d8 <lrintf>
 8006faa:	7020      	strb	r0, [r4, #0]
 8006fac:	f005 fa34 	bl	800c418 <rand>
 8006fb0:	ee06 0a10 	vmov	s12, r0
 8006fb4:	eef8 7ac6 	vcvt.f32.s32	s15, s12
 8006fb8:	eeb0 0a68 	vmov.f32	s0, s17
 8006fbc:	ee67 7a89 	vmul.f32	s15, s15, s18
 8006fc0:	eea7 0a88 	vfma.f32	s0, s15, s16
 8006fc4:	f003 f988 	bl	800a2d8 <lrintf>
 8006fc8:	e03e      	b.n	8007048 <MagicPatch.part.1.6386+0x440>
 8006fca:	bf00      	nop
 8006fcc:	30000000 	.word	0x30000000
 8006fd0:	00000000 	.word	0x00000000
 8006fd4:	42fe0000 	.word	0x42fe0000
 8006fd8:	200004f0 	.word	0x200004f0
 8006fdc:	2000052c 	.word	0x2000052c
 8006fe0:	43fa0000 	.word	0x43fa0000
 8006fe4:	4a2fc800 	.word	0x4a2fc800
 8006fe8:	3d810204 	.word	0x3d810204
 8006fec:	3de1c387 	.word	0x3de1c387
 8006ff0:	0800c474 	.word	0x0800c474
 8006ff4:	0800c4f0 	.word	0x0800c4f0
 8006ff8:	3f4ccccc 	.word	0x3f4ccccc
 8006ffc:	3dcccccd 	.word	0x3dcccccd
 8007000:	3e091224 	.word	0x3e091224
 8007004:	10000000 	.word	0x10000000
 8007008:	10002e0c 	.word	0x10002e0c
 800700c:	3f7a9fbf 	.word	0x3f7a9fbf
 8007010:	3a83126f 	.word	0x3a83126f
 8007014:	20014cf0 	.word	0x20014cf0
 8007018:	42a00000 	.word	0x42a00000
 800701c:	473b8000 	.word	0x473b8000
 8007020:	3f733333 	.word	0x3f733333
 8007024:	413a1203 	.word	0x413a1203
 8007028:	3ef33333 	.word	0x3ef33333
 800702c:	10002ccc 	.word	0x10002ccc
 8007030:	10002dac 	.word	0x10002dac
 8007034:	3c23d70a 	.word	0x3c23d70a
 8007038:	10000034 	.word	0x10000034
 800703c:	3e810204 	.word	0x3e810204
 8007040:	3dc18306 	.word	0x3dc18306
 8007044:	42c80000 	.word	0x42c80000
 8007048:	b2c0      	uxtb	r0, r0
 800704a:	ee07 0a10 	vmov	s14, r0
 800704e:	eef8 7ac7 	vcvt.f32.s32	s15, s14
 8007052:	ed1f 7a06 	vldr	s14, [pc, #-24]	; 800703c <MagicPatch.part.1.6386+0x434>
 8007056:	ee67 7a87 	vmul.f32	s15, s15, s14
 800705a:	edc5 7a00 	vstr	s15, [r5]
 800705e:	f005 f9db 	bl	800c418 <rand>
 8007062:	ee06 0a10 	vmov	s12, r0
 8007066:	eef8 7ac6 	vcvt.f32.s32	s15, s12
 800706a:	eeb0 0a68 	vmov.f32	s0, s17
 800706e:	ee67 7a89 	vmul.f32	s15, s15, s18
 8007072:	eea7 0a88 	vfma.f32	s0, s15, s16
 8007076:	f003 f92f 	bl	800a2d8 <lrintf>
 800707a:	b2c0      	uxtb	r0, r0
 800707c:	ee07 0a10 	vmov	s14, r0
 8007080:	eef8 7ac7 	vcvt.f32.s32	s15, s14
 8007084:	ed1f 7a12 	vldr	s14, [pc, #-72]	; 8007040 <MagicPatch.part.1.6386+0x438>
 8007088:	ee67 7a87 	vmul.f32	s15, s15, s14
 800708c:	edc5 7a02 	vstr	s15, [r5, #8]
 8007090:	f005 f9c2 	bl	800c418 <rand>
 8007094:	ee06 0a10 	vmov	s12, r0
 8007098:	eef8 7ac6 	vcvt.f32.s32	s15, s12
 800709c:	eeb0 0a68 	vmov.f32	s0, s17
 80070a0:	ee27 9a89 	vmul.f32	s18, s15, s18
 80070a4:	eea9 0a08 	vfma.f32	s0, s18, s16
 80070a8:	f003 f916 	bl	800a2d8 <lrintf>
 80070ac:	b2c0      	uxtb	r0, r0
 80070ae:	ee07 0a10 	vmov	s14, r0
 80070b2:	eef8 0ac7 	vcvt.f32.s32	s1, s14
 80070b6:	ed1f 0a1d 	vldr	s0, [pc, #-116]	; 8007044 <MagicPatch.part.1.6386+0x43c>
 80070ba:	eec0 0a88 	vdiv.f32	s1, s1, s16
 80070be:	f003 f9fb 	bl	800a4b8 <powf>
 80070c2:	4bf0      	ldr	r3, [pc, #960]	; (8007484 <MagicPatch.part.1.6386+0x87c>)
 80070c4:	eddf 7af0 	vldr	s15, [pc, #960]	; 8007488 <MagicPatch.part.1.6386+0x880>
 80070c8:	eddf 6af0 	vldr	s13, [pc, #960]	; 800748c <MagicPatch.part.1.6386+0x884>
 80070cc:	ed9f 7af0 	vldr	s14, [pc, #960]	; 8007490 <MagicPatch.part.1.6386+0x888>
 80070d0:	ee20 0a27 	vmul.f32	s0, s0, s15
 80070d4:	eec0 7a26 	vdiv.f32	s15, s0, s13
 80070d8:	eef4 7ac7 	vcmpe.f32	s15, s14
 80070dc:	eef1 fa10 	vmrs	APSR_nzcv, fpscr
 80070e0:	edc3 7a00 	vstr	s15, [r3]
 80070e4:	f340 8194 	ble.w	8007410 <MagicPatch.part.1.6386+0x808>
 80070e8:	ed9f 7aea 	vldr	s14, [pc, #936]	; 8007494 <MagicPatch.part.1.6386+0x88c>
 80070ec:	eddf 7aea 	vldr	s15, [pc, #936]	; 8007498 <MagicPatch.part.1.6386+0x890>
 80070f0:	4dea      	ldr	r5, [pc, #936]	; (800749c <MagicPatch.part.1.6386+0x894>)
 80070f2:	ed9f 9aeb 	vldr	s18, [pc, #940]	; 80074a0 <MagicPatch.part.1.6386+0x898>
 80070f6:	ed85 7a02 	vstr	s14, [r5, #8]
 80070fa:	edc5 7a01 	vstr	s15, [r5, #4]
 80070fe:	f005 f98b 	bl	800c418 <rand>
 8007102:	ee06 0a10 	vmov	s12, r0
 8007106:	eef8 7ac6 	vcvt.f32.s32	s15, s12
 800710a:	eddf 8ae6 	vldr	s17, [pc, #920]	; 80074a4 <MagicPatch.part.1.6386+0x89c>
 800710e:	ed9f 8ae6 	vldr	s16, [pc, #920]	; 80074a8 <MagicPatch.part.1.6386+0x8a0>
 8007112:	f8df 83c8 	ldr.w	r8, [pc, #968]	; 80074dc <MagicPatch.part.1.6386+0x8d4>
 8007116:	eddf 9ae5 	vldr	s19, [pc, #916]	; 80074ac <MagicPatch.part.1.6386+0x8a4>
 800711a:	eddf aae5 	vldr	s21, [pc, #916]	; 80074b0 <MagicPatch.part.1.6386+0x8a8>
 800711e:	ed9f aadb 	vldr	s20, [pc, #876]	; 800748c <MagicPatch.part.1.6386+0x884>
 8007122:	4ce4      	ldr	r4, [pc, #912]	; (80074b4 <MagicPatch.part.1.6386+0x8ac>)
 8007124:	4fe4      	ldr	r7, [pc, #912]	; (80074b8 <MagicPatch.part.1.6386+0x8b0>)
 8007126:	4ee5      	ldr	r6, [pc, #916]	; (80074bc <MagicPatch.part.1.6386+0x8b4>)
 8007128:	ee67 7a89 	vmul.f32	s15, s15, s18
 800712c:	eeb0 0a68 	vmov.f32	s0, s17
 8007130:	eea7 0a88 	vfma.f32	s0, s15, s16
 8007134:	f003 f8d0 	bl	800a2d8 <lrintf>
 8007138:	b2c0      	uxtb	r0, r0
 800713a:	ee07 0a10 	vmov	s14, r0
 800713e:	eef8 7ac7 	vcvt.f32.s32	s15, s14
 8007142:	eeb7 ba00 	vmov.f32	s22, #112	; 0x70
 8007146:	eec7 7a88 	vdiv.f32	s15, s15, s16
 800714a:	ed9f 7add 	vldr	s14, [pc, #884]	; 80074c0 <MagicPatch.part.1.6386+0x8b8>
 800714e:	ee7b 7a67 	vsub.f32	s15, s22, s15
 8007152:	eef4 7ac7 	vcmpe.f32	s15, s14
 8007156:	eef1 fa10 	vmrs	APSR_nzcv, fpscr
 800715a:	bf48      	it	mi
 800715c:	eef0 7a47 	vmovmi.f32	s15, s14
 8007160:	edc5 7a03 	vstr	s15, [r5, #12]
 8007164:	f005 f958 	bl	800c418 <rand>
 8007168:	ee06 0a10 	vmov	s12, r0
 800716c:	eef8 7ac6 	vcvt.f32.s32	s15, s12
 8007170:	eeb0 0a68 	vmov.f32	s0, s17
 8007174:	ee67 7a89 	vmul.f32	s15, s15, s18
 8007178:	eea7 0a88 	vfma.f32	s0, s15, s16
 800717c:	f003 f8ac 	bl	800a2d8 <lrintf>
 8007180:	b2c0      	uxtb	r0, r0
 8007182:	ee07 0a10 	vmov	s14, r0
 8007186:	eef8 7ac7 	vcvt.f32.s32	s15, s14
 800718a:	eeb1 7a08 	vmov.f32	s14, #24
 800718e:	eec7 7a88 	vdiv.f32	s15, s15, s16
 8007192:	ee67 7aa7 	vmul.f32	s15, s15, s15
 8007196:	ee67 7a87 	vmul.f32	s15, s15, s14
 800719a:	edc5 7a06 	vstr	s15, [r5, #24]
 800719e:	f005 f93b 	bl	800c418 <rand>
 80071a2:	ee06 0a10 	vmov	s12, r0
 80071a6:	eef8 7ac6 	vcvt.f32.s32	s15, s12
 80071aa:	eeb0 0a68 	vmov.f32	s0, s17
 80071ae:	ee67 7a89 	vmul.f32	s15, s15, s18
 80071b2:	eea7 0a88 	vfma.f32	s0, s15, s16
 80071b6:	f003 f88f 	bl	800a2d8 <lrintf>
 80071ba:	b2c0      	uxtb	r0, r0
 80071bc:	eb00 0080 	add.w	r0, r0, r0, lsl #2
 80071c0:	ee07 0a10 	vmov	s14, r0
 80071c4:	eeb8 0ac7 	vcvt.f32.s32	s0, s14
 80071c8:	ee80 0a08 	vdiv.f32	s0, s0, s16
 80071cc:	f003 f884 	bl	800a2d8 <lrintf>
 80071d0:	7028      	strb	r0, [r5, #0]
 80071d2:	f005 f921 	bl	800c418 <rand>
 80071d6:	ee06 0a10 	vmov	s12, r0
 80071da:	eef8 7ac6 	vcvt.f32.s32	s15, s12
 80071de:	eeb0 0a68 	vmov.f32	s0, s17
 80071e2:	ee67 7a89 	vmul.f32	s15, s15, s18
 80071e6:	eea7 0a88 	vfma.f32	s0, s15, s16
 80071ea:	f003 f875 	bl	800a2d8 <lrintf>
 80071ee:	b2c0      	uxtb	r0, r0
 80071f0:	ee07 0a10 	vmov	s14, r0
 80071f4:	eef8 7ac7 	vcvt.f32.s32	s15, s14
 80071f8:	ed9f 7ab2 	vldr	s14, [pc, #712]	; 80074c4 <MagicPatch.part.1.6386+0x8bc>
 80071fc:	ee67 7a87 	vmul.f32	s15, s15, s14
 8007200:	edc8 7a00 	vstr	s15, [r8]
 8007204:	f005 f908 	bl	800c418 <rand>
 8007208:	ee06 0a10 	vmov	s12, r0
 800720c:	eef8 7ac6 	vcvt.f32.s32	s15, s12
 8007210:	eeb0 0a68 	vmov.f32	s0, s17
 8007214:	ee67 7a89 	vmul.f32	s15, s15, s18
 8007218:	eea7 0a88 	vfma.f32	s0, s15, s16
 800721c:	f003 f85c 	bl	800a2d8 <lrintf>
 8007220:	b2c0      	uxtb	r0, r0
 8007222:	ee07 0a10 	vmov	s14, r0
 8007226:	eef8 7ac7 	vcvt.f32.s32	s15, s14
 800722a:	ee67 7aa9 	vmul.f32	s15, s15, s19
 800722e:	edc8 7a02 	vstr	s15, [r8, #8]
 8007232:	f005 f8f1 	bl	800c418 <rand>
 8007236:	ee06 0a10 	vmov	s12, r0
 800723a:	eef8 7ac6 	vcvt.f32.s32	s15, s12
 800723e:	eeb0 0a68 	vmov.f32	s0, s17
 8007242:	ee67 7a89 	vmul.f32	s15, s15, s18
 8007246:	eea7 0a88 	vfma.f32	s0, s15, s16
 800724a:	f003 f845 	bl	800a2d8 <lrintf>
 800724e:	b2c0      	uxtb	r0, r0
 8007250:	283f      	cmp	r0, #63	; 0x3f
 8007252:	4b9d      	ldr	r3, [pc, #628]	; (80074c8 <MagicPatch.part.1.6386+0x8c0>)
 8007254:	bf94      	ite	ls
 8007256:	2200      	movls	r2, #0
 8007258:	2201      	movhi	r2, #1
 800725a:	701a      	strb	r2, [r3, #0]
 800725c:	f005 f8dc 	bl	800c418 <rand>
 8007260:	ee07 0a90 	vmov	s15, r0
 8007264:	eeb8 7ae7 	vcvt.f32.s32	s14, s15
 8007268:	eddf 7a98 	vldr	s15, [pc, #608]	; 80074cc <MagicPatch.part.1.6386+0x8c4>
 800726c:	ee27 7a09 	vmul.f32	s14, s14, s18
 8007270:	eeb0 0a68 	vmov.f32	s0, s17
 8007274:	eea7 0a27 	vfma.f32	s0, s14, s15
 8007278:	f003 f82e 	bl	800a2d8 <lrintf>
 800727c:	b2c0      	uxtb	r0, r0
 800727e:	ee06 0a10 	vmov	s12, r0
 8007282:	eef8 7ac6 	vcvt.f32.s32	s15, s12
 8007286:	eec7 7a88 	vdiv.f32	s15, s15, s16
 800728a:	ee77 7aaa 	vadd.f32	s15, s15, s21
 800728e:	ee67 7a8a 	vmul.f32	s15, s15, s20
 8007292:	eecb 7a27 	vdiv.f32	s15, s22, s15
 8007296:	edc4 7a00 	vstr	s15, [r4]
 800729a:	f005 f8bd 	bl	800c418 <rand>
 800729e:	ee07 0a10 	vmov	s14, r0
 80072a2:	eef8 7ac7 	vcvt.f32.s32	s15, s14
 80072a6:	eeb0 0a68 	vmov.f32	s0, s17
 80072aa:	ee67 7a89 	vmul.f32	s15, s15, s18
 80072ae:	eea7 0a88 	vfma.f32	s0, s15, s16
 80072b2:	f003 f811 	bl	800a2d8 <lrintf>
 80072b6:	b2c0      	uxtb	r0, r0
 80072b8:	ee06 0a10 	vmov	s12, r0
 80072bc:	ed9f 7a84 	vldr	s14, [pc, #528]	; 80074d0 <MagicPatch.part.1.6386+0x8c8>
 80072c0:	eef8 7ac6 	vcvt.f32.s32	s15, s12
 80072c4:	ee67 7a87 	vmul.f32	s15, s15, s14
 80072c8:	eec7 7a88 	vdiv.f32	s15, s15, s16
 80072cc:	ee77 7aaa 	vadd.f32	s15, s15, s21
 80072d0:	ee67 7a8a 	vmul.f32	s15, s15, s20
 80072d4:	ee8b ba27 	vdiv.f32	s22, s22, s15
 80072d8:	ed84 ba01 	vstr	s22, [r4, #4]
 80072dc:	f005 f89c 	bl	800c418 <rand>
 80072e0:	ee07 0a10 	vmov	s14, r0
 80072e4:	eef8 7ac7 	vcvt.f32.s32	s15, s14
 80072e8:	eeb0 0a68 	vmov.f32	s0, s17
 80072ec:	ee67 7a89 	vmul.f32	s15, s15, s18
 80072f0:	eea7 0a88 	vfma.f32	s0, s15, s16
 80072f4:	f002 fff0 	bl	800a2d8 <lrintf>
 80072f8:	b2c0      	uxtb	r0, r0
 80072fa:	ee06 0a10 	vmov	s12, r0
 80072fe:	eef8 7ac6 	vcvt.f32.s32	s15, s12
 8007302:	eec7 7a88 	vdiv.f32	s15, s15, s16
 8007306:	edc4 7a02 	vstr	s15, [r4, #8]
 800730a:	f005 f885 	bl	800c418 <rand>
 800730e:	ee07 0a10 	vmov	s14, r0
 8007312:	eef8 7ac7 	vcvt.f32.s32	s15, s14
 8007316:	eeb0 0a68 	vmov.f32	s0, s17
 800731a:	ee67 7a89 	vmul.f32	s15, s15, s18
 800731e:	eea7 0a88 	vfma.f32	s0, s15, s16
 8007322:	f002 ffd9 	bl	800a2d8 <lrintf>
 8007326:	b2c0      	uxtb	r0, r0
 8007328:	ee07 0a10 	vmov	s14, r0
 800732c:	eeba 7aef 	vcvt.f32.s32	s14, s14, #1
 8007330:	edd4 7a02 	vldr	s15, [r4, #8]
 8007334:	ee87 7a08 	vdiv.f32	s14, s14, s16
 8007338:	ee77 aa2a 	vadd.f32	s21, s14, s21
 800733c:	ee2a aa8a 	vmul.f32	s20, s21, s20
 8007340:	ee87 aa8a 	vdiv.f32	s20, s15, s20
 8007344:	ed84 aa03 	vstr	s20, [r4, #12]
 8007348:	f005 f866 	bl	800c418 <rand>
 800734c:	ee06 0a10 	vmov	s12, r0
 8007350:	eef8 7ac6 	vcvt.f32.s32	s15, s12
 8007354:	eeb0 0a68 	vmov.f32	s0, s17
 8007358:	ee67 7a89 	vmul.f32	s15, s15, s18
 800735c:	eea7 0a88 	vfma.f32	s0, s15, s16
 8007360:	f002 ffba 	bl	800a2d8 <lrintf>
 8007364:	b2c0      	uxtb	r0, r0
 8007366:	ee07 0a10 	vmov	s14, r0
 800736a:	eef8 7ac7 	vcvt.f32.s32	s15, s14
 800736e:	ed9f 7a59 	vldr	s14, [pc, #356]	; 80074d4 <MagicPatch.part.1.6386+0x8cc>
 8007372:	ee67 7a87 	vmul.f32	s15, s15, s14
 8007376:	edc7 7a00 	vstr	s15, [r7]
 800737a:	f005 f84d 	bl	800c418 <rand>
 800737e:	ee06 0a10 	vmov	s12, r0
 8007382:	eef8 7ac6 	vcvt.f32.s32	s15, s12
 8007386:	eeb0 0a68 	vmov.f32	s0, s17
 800738a:	ee67 7a89 	vmul.f32	s15, s15, s18
 800738e:	eea7 0a88 	vfma.f32	s0, s15, s16
 8007392:	f002 ffa1 	bl	800a2d8 <lrintf>
 8007396:	b2c0      	uxtb	r0, r0
 8007398:	ee07 0a10 	vmov	s14, r0
 800739c:	eef8 7ac7 	vcvt.f32.s32	s15, s14
 80073a0:	ee67 7aa9 	vmul.f32	s15, s15, s19
 80073a4:	edc7 7a02 	vstr	s15, [r7, #8]
 80073a8:	f005 f836 	bl	800c418 <rand>
 80073ac:	ee06 0a10 	vmov	s12, r0
 80073b0:	eef8 7ac6 	vcvt.f32.s32	s15, s12
 80073b4:	eeb0 0a68 	vmov.f32	s0, s17
 80073b8:	ee67 7a89 	vmul.f32	s15, s15, s18
 80073bc:	eea7 0a88 	vfma.f32	s0, s15, s16
 80073c0:	f002 ff8a 	bl	800a2d8 <lrintf>
 80073c4:	b2c0      	uxtb	r0, r0
 80073c6:	ee07 0a10 	vmov	s14, r0
 80073ca:	eef8 7ac7 	vcvt.f32.s32	s15, s14
 80073ce:	eec7 7a88 	vdiv.f32	s15, s15, s16
 80073d2:	edc6 7a00 	vstr	s15, [r6]
 80073d6:	f005 f81f 	bl	800c418 <rand>
 80073da:	ee06 0a10 	vmov	s12, r0
 80073de:	eef8 7ac6 	vcvt.f32.s32	s15, s12
 80073e2:	eeb0 0a68 	vmov.f32	s0, s17
 80073e6:	ee27 9a89 	vmul.f32	s18, s15, s18
 80073ea:	eea9 0a08 	vfma.f32	s0, s18, s16
 80073ee:	f002 ff73 	bl	800a2d8 <lrintf>
 80073f2:	b2c0      	uxtb	r0, r0
 80073f4:	ee07 0a10 	vmov	s14, r0
 80073f8:	eef8 7ac7 	vcvt.f32.s32	s15, s14
 80073fc:	ee67 9aa9 	vmul.f32	s19, s15, s19
 8007400:	edc6 9a02 	vstr	s19, [r6, #8]
 8007404:	ecbd 8b08 	vpop	{d8-d11}
 8007408:	e8bd 81f0 	ldmia.w	sp!, {r4, r5, r6, r7, r8, pc}
 800740c:	73be      	strb	r6, [r7, #14]
 800740e:	e4a4      	b.n	8006d5a <MagicPatch.part.1.6386+0x152>
 8007410:	eeb6 7a00 	vmov.f32	s14, #96	; 0x60
 8007414:	ee67 7a87 	vmul.f32	s15, s15, s14
 8007418:	ed9f 7a2f 	vldr	s14, [pc, #188]	; 80074d8 <MagicPatch.part.1.6386+0x8d0>
 800741c:	ee27 7a87 	vmul.f32	s14, s15, s14
 8007420:	eeb9 6a04 	vmov.f32	s12, #148	; 0x94
 8007424:	ee77 5a07 	vadd.f32	s11, s14, s14
 8007428:	ee67 6a07 	vmul.f32	s13, s14, s14
 800742c:	eea7 6a25 	vfma.f32	s12, s14, s11
 8007430:	ee67 6a26 	vmul.f32	s13, s14, s13
 8007434:	eefa 5a0e 	vmov.f32	s11, #174	; 0xae
 8007438:	eee7 6a25 	vfma.f32	s13, s14, s11
 800743c:	eeb0 7a08 	vmov.f32	s14, #8
 8007440:	ee26 7a07 	vmul.f32	s14, s12, s14
 8007444:	ee86 7a87 	vdiv.f32	s14, s13, s14
 8007448:	e652      	b.n	80070f0 <MagicPatch.part.1.6386+0x4e8>
 800744a:	eeb6 7a00 	vmov.f32	s14, #96	; 0x60
 800744e:	ee67 7a87 	vmul.f32	s15, s15, s14
 8007452:	ed9f 7a21 	vldr	s14, [pc, #132]	; 80074d8 <MagicPatch.part.1.6386+0x8d0>
 8007456:	ee27 7a87 	vmul.f32	s14, s15, s14
 800745a:	eeb9 6a04 	vmov.f32	s12, #148	; 0x94
 800745e:	ee77 5a07 	vadd.f32	s11, s14, s14
 8007462:	ee67 6a07 	vmul.f32	s13, s14, s14
 8007466:	eea5 6a87 	vfma.f32	s12, s11, s14
 800746a:	ee66 6a87 	vmul.f32	s13, s13, s14
 800746e:	eefa 5a0e 	vmov.f32	s11, #174	; 0xae
 8007472:	eee7 6a25 	vfma.f32	s13, s14, s11
 8007476:	eeb0 7a08 	vmov.f32	s14, #8
 800747a:	ee26 7a07 	vmul.f32	s14, s12, s14
 800747e:	ee86 7a87 	vdiv.f32	s14, s13, s14
 8007482:	e52c      	b.n	8006ede <MagicPatch.part.1.6386+0x2d6>
 8007484:	200004e4 	.word	0x200004e4
 8007488:	42a00000 	.word	0x42a00000
 800748c:	473b8000 	.word	0x473b8000
 8007490:	3f733333 	.word	0x3f733333
 8007494:	413a1203 	.word	0x413a1203
 8007498:	3ef33333 	.word	0x3ef33333
 800749c:	10002cec 	.word	0x10002cec
 80074a0:	30000000 	.word	0x30000000
 80074a4:	00000000 	.word	0x00000000
 80074a8:	42fe0000 	.word	0x42fe0000
 80074ac:	3dc18306 	.word	0x3dc18306
 80074b0:	38d1b717 	.word	0x38d1b717
 80074b4:	20014cf4 	.word	0x20014cf4
 80074b8:	10002d8c 	.word	0x10002d8c
 80074bc:	10002dec 	.word	0x10002dec
 80074c0:	3c23d70a 	.word	0x3c23d70a
 80074c4:	3e810204 	.word	0x3e810204
 80074c8:	10000035 	.word	0x10000035
 80074cc:	414b3333 	.word	0x414b3333
 80074d0:	3e4ccccd 	.word	0x3e4ccccd
 80074d4:	3b810204 	.word	0x3b810204
 80074d8:	40490fdb 	.word	0x40490fdb
 80074dc:	10002dcc 	.word	0x10002dcc
 80074e0:	42fe0000 	.word	0x42fe0000
 80074e4:	73b8      	strb	r0, [r7, #14]
 80074e6:	e438      	b.n	8006d5a <MagicPatch.part.1.6386+0x152>
 80074e8:	f004 ff96 	bl	800c418 <rand>
 80074ec:	ee06 0a10 	vmov	s12, r0
 80074f0:	eef8 7ac6 	vcvt.f32.s32	s15, s12
 80074f4:	ed1f 9a06 	vldr	s18, [pc, #-24]	; 80074e0 <MagicPatch.part.1.6386+0x8d8>
 80074f8:	4fbd      	ldr	r7, [pc, #756]	; (80077f0 <MagicPatch.part.1.6386+0xbe8>)
 80074fa:	eddf 9abe 	vldr	s19, [pc, #760]	; 80077f4 <MagicPatch.part.1.6386+0xbec>
 80074fe:	ed9f aabe 	vldr	s20, [pc, #760]	; 80077f8 <MagicPatch.part.1.6386+0xbf0>
 8007502:	4ebe      	ldr	r6, [pc, #760]	; (80077fc <MagicPatch.part.1.6386+0xbf4>)
 8007504:	4dbe      	ldr	r5, [pc, #760]	; (8007800 <MagicPatch.part.1.6386+0xbf8>)
 8007506:	4cbf      	ldr	r4, [pc, #764]	; (8007804 <MagicPatch.part.1.6386+0xbfc>)
 8007508:	ee67 7aa8 	vmul.f32	s15, s15, s17
 800750c:	eeb0 0a48 	vmov.f32	s0, s16
 8007510:	eea7 0a89 	vfma.f32	s0, s15, s18
 8007514:	f002 fee0 	bl	800a2d8 <lrintf>
 8007518:	b2c0      	uxtb	r0, r0
 800751a:	ee07 0a10 	vmov	s14, r0
 800751e:	eef8 0ac7 	vcvt.f32.s32	s1, s14
 8007522:	ed9f 0ab9 	vldr	s0, [pc, #740]	; 8007808 <MagicPatch.part.1.6386+0xc00>
 8007526:	eec0 0a89 	vdiv.f32	s1, s1, s18
 800752a:	f002 ffc5 	bl	800a4b8 <powf>
 800752e:	eef6 7a00 	vmov.f32	s15, #96	; 0x60
 8007532:	ee20 0a27 	vmul.f32	s0, s0, s15
 8007536:	ed87 0a02 	vstr	s0, [r7, #8]
 800753a:	f004 ff6d 	bl	800c418 <rand>
 800753e:	ee06 0a10 	vmov	s12, r0
 8007542:	eef8 7ac6 	vcvt.f32.s32	s15, s12
 8007546:	eeb0 0a48 	vmov.f32	s0, s16
 800754a:	ee67 7aa8 	vmul.f32	s15, s15, s17
 800754e:	eea7 0a89 	vfma.f32	s0, s15, s18
 8007552:	f002 fec1 	bl	800a2d8 <lrintf>
 8007556:	b2c0      	uxtb	r0, r0
 8007558:	ee07 0a10 	vmov	s14, r0
 800755c:	eef8 7ac7 	vcvt.f32.s32	s15, s14
 8007560:	ee67 7aa9 	vmul.f32	s15, s15, s19
 8007564:	eec7 7a89 	vdiv.f32	s15, s15, s18
 8007568:	ee67 7aa7 	vmul.f32	s15, s15, s15
 800756c:	edc7 7a05 	vstr	s15, [r7, #20]
 8007570:	f004 ff52 	bl	800c418 <rand>
 8007574:	ee06 0a10 	vmov	s12, r0
 8007578:	eef8 7ac6 	vcvt.f32.s32	s15, s12
 800757c:	eeb0 0a48 	vmov.f32	s0, s16
 8007580:	ee67 7aa8 	vmul.f32	s15, s15, s17
 8007584:	eea7 0a89 	vfma.f32	s0, s15, s18
 8007588:	f002 fea6 	bl	800a2d8 <lrintf>
 800758c:	b2c0      	uxtb	r0, r0
 800758e:	ee07 0a10 	vmov	s14, r0
 8007592:	eef8 0ac7 	vcvt.f32.s32	s1, s14
 8007596:	ed9f 0a9d 	vldr	s0, [pc, #628]	; 800780c <MagicPatch.part.1.6386+0xc04>
 800759a:	eec0 0a89 	vdiv.f32	s1, s1, s18
 800759e:	f002 ff8b 	bl	800a4b8 <powf>
 80075a2:	ee20 0a0a 	vmul.f32	s0, s0, s20
 80075a6:	ed86 0a06 	vstr	s0, [r6, #24]
 80075aa:	f004 ff35 	bl	800c418 <rand>
 80075ae:	ee06 0a10 	vmov	s12, r0
 80075b2:	eef8 7ac6 	vcvt.f32.s32	s15, s12
 80075b6:	eeb0 0a48 	vmov.f32	s0, s16
 80075ba:	ee67 7aa8 	vmul.f32	s15, s15, s17
 80075be:	eea7 0a89 	vfma.f32	s0, s15, s18
 80075c2:	f002 fe89 	bl	800a2d8 <lrintf>
 80075c6:	b2c0      	uxtb	r0, r0
 80075c8:	ee07 0a10 	vmov	s14, r0
 80075cc:	eef8 7ac7 	vcvt.f32.s32	s15, s14
 80075d0:	ee67 7aa9 	vmul.f32	s15, s15, s19
 80075d4:	eec7 7a89 	vdiv.f32	s15, s15, s18
 80075d8:	ee67 7aa7 	vmul.f32	s15, s15, s15
 80075dc:	edc6 7a05 	vstr	s15, [r6, #20]
 80075e0:	f004 ff1a 	bl	800c418 <rand>
 80075e4:	ee06 0a10 	vmov	s12, r0
 80075e8:	eef8 7ac6 	vcvt.f32.s32	s15, s12
 80075ec:	eeb0 0a48 	vmov.f32	s0, s16
 80075f0:	ee67 7aa8 	vmul.f32	s15, s15, s17
 80075f4:	eea7 0a89 	vfma.f32	s0, s15, s18
 80075f8:	f002 fe6e 	bl	800a2d8 <lrintf>
 80075fc:	b2c0      	uxtb	r0, r0
 80075fe:	ee07 0a10 	vmov	s14, r0
 8007602:	eef8 0ac7 	vcvt.f32.s32	s1, s14
 8007606:	ed9f 0a81 	vldr	s0, [pc, #516]	; 800780c <MagicPatch.part.1.6386+0xc04>
 800760a:	eec0 0a89 	vdiv.f32	s1, s1, s18
 800760e:	f002 ff53 	bl	800a4b8 <powf>
 8007612:	ee20 0a0a 	vmul.f32	s0, s0, s20
 8007616:	ed85 0a06 	vstr	s0, [r5, #24]
 800761a:	f004 fefd 	bl	800c418 <rand>
 800761e:	ee06 0a10 	vmov	s12, r0
 8007622:	eef8 7ac6 	vcvt.f32.s32	s15, s12
 8007626:	eeb0 0a48 	vmov.f32	s0, s16
 800762a:	ee67 7aa8 	vmul.f32	s15, s15, s17
 800762e:	eea7 0a89 	vfma.f32	s0, s15, s18
 8007632:	f002 fe51 	bl	800a2d8 <lrintf>
 8007636:	b2c0      	uxtb	r0, r0
 8007638:	ee07 0a10 	vmov	s14, r0
 800763c:	eef8 7ac7 	vcvt.f32.s32	s15, s14
 8007640:	ee67 7aa9 	vmul.f32	s15, s15, s19
 8007644:	eec7 7a89 	vdiv.f32	s15, s15, s18
 8007648:	ee67 7aa7 	vmul.f32	s15, s15, s15
 800764c:	edc5 7a05 	vstr	s15, [r5, #20]
 8007650:	f004 fee2 	bl	800c418 <rand>
 8007654:	ee06 0a10 	vmov	s12, r0
 8007658:	eef8 7ac6 	vcvt.f32.s32	s15, s12
 800765c:	eeb0 0a48 	vmov.f32	s0, s16
 8007660:	ee67 7aa8 	vmul.f32	s15, s15, s17
 8007664:	eea7 0a89 	vfma.f32	s0, s15, s18
 8007668:	f002 fe36 	bl	800a2d8 <lrintf>
 800766c:	b2c0      	uxtb	r0, r0
 800766e:	ee07 0a10 	vmov	s14, r0
 8007672:	eef8 0ac7 	vcvt.f32.s32	s1, s14
 8007676:	ed9f 0a65 	vldr	s0, [pc, #404]	; 800780c <MagicPatch.part.1.6386+0xc04>
 800767a:	eec0 0a89 	vdiv.f32	s1, s1, s18
 800767e:	f002 ff1b 	bl	800a4b8 <powf>
 8007682:	ee20 0a0a 	vmul.f32	s0, s0, s20
 8007686:	ed84 0a06 	vstr	s0, [r4, #24]
 800768a:	f004 fec5 	bl	800c418 <rand>
 800768e:	ee06 0a10 	vmov	s12, r0
 8007692:	eef8 7ac6 	vcvt.f32.s32	s15, s12
 8007696:	eeb0 0a48 	vmov.f32	s0, s16
 800769a:	ee67 8aa8 	vmul.f32	s17, s15, s17
 800769e:	eea8 0a89 	vfma.f32	s0, s17, s18
 80076a2:	f002 fe19 	bl	800a2d8 <lrintf>
 80076a6:	b2c0      	uxtb	r0, r0
 80076a8:	ee07 0a10 	vmov	s14, r0
 80076ac:	eef8 7ac7 	vcvt.f32.s32	s15, s14
 80076b0:	ee67 9aa9 	vmul.f32	s19, s15, s19
 80076b4:	ee89 9a89 	vdiv.f32	s18, s19, s18
 80076b8:	ee29 9a09 	vmul.f32	s18, s18, s18
 80076bc:	ed84 9a05 	vstr	s18, [r4, #20]
 80076c0:	f7ff bbdd 	b.w	8006e7e <MagicPatch.part.1.6386+0x276>
 80076c4:	f004 fea8 	bl	800c418 <rand>
 80076c8:	ee06 0a10 	vmov	s12, r0
 80076cc:	eef8 7ac6 	vcvt.f32.s32	s15, s12
 80076d0:	eddf 9a4f 	vldr	s19, [pc, #316]	; 8007810 <MagicPatch.part.1.6386+0xc08>
 80076d4:	4c4f      	ldr	r4, [pc, #316]	; (8007814 <MagicPatch.part.1.6386+0xc0c>)
 80076d6:	4e50      	ldr	r6, [pc, #320]	; (8007818 <MagicPatch.part.1.6386+0xc10>)
 80076d8:	4d50      	ldr	r5, [pc, #320]	; (800781c <MagicPatch.part.1.6386+0xc14>)
 80076da:	ee67 7aa8 	vmul.f32	s15, s15, s17
 80076de:	eeb0 0a48 	vmov.f32	s0, s16
 80076e2:	eea7 0aa9 	vfma.f32	s0, s15, s19
 80076e6:	f002 fdf7 	bl	800a2d8 <lrintf>
 80076ea:	b2c0      	uxtb	r0, r0
 80076ec:	ee07 0a10 	vmov	s14, r0
 80076f0:	eef8 7ac7 	vcvt.f32.s32	s15, s14
 80076f4:	eec7 7aa9 	vdiv.f32	s15, s15, s19
 80076f8:	ee67 7aa7 	vmul.f32	s15, s15, s15
 80076fc:	edc6 7a02 	vstr	s15, [r6, #8]
 8007700:	edc5 7a02 	vstr	s15, [r5, #8]
 8007704:	edc4 7a02 	vstr	s15, [r4, #8]
 8007708:	f004 fe86 	bl	800c418 <rand>
 800770c:	ee06 0a10 	vmov	s12, r0
 8007710:	eef8 7ac6 	vcvt.f32.s32	s15, s12
 8007714:	eeb0 0a48 	vmov.f32	s0, s16
 8007718:	ee67 7aa8 	vmul.f32	s15, s15, s17
 800771c:	eea7 0aa9 	vfma.f32	s0, s15, s19
 8007720:	f002 fdda 	bl	800a2d8 <lrintf>
 8007724:	2332      	movs	r3, #50	; 0x32
 8007726:	b2c0      	uxtb	r0, r0
 8007728:	fb03 f300 	mul.w	r3, r3, r0
 800772c:	ee07 3a90 	vmov	s15, r3
 8007730:	eef8 7ae7 	vcvt.f32.s32	s15, s15
 8007734:	ed9f 7a3a 	vldr	s14, [pc, #232]	; 8007820 <MagicPatch.part.1.6386+0xc18>
 8007738:	eec7 7aa9 	vdiv.f32	s15, s15, s19
 800773c:	ee77 7a87 	vadd.f32	s15, s15, s14
 8007740:	edc6 7a01 	vstr	s15, [r6, #4]
 8007744:	edc5 7a01 	vstr	s15, [r5, #4]
 8007748:	edc4 7a01 	vstr	s15, [r4, #4]
 800774c:	f004 fe64 	bl	800c418 <rand>
 8007750:	ee07 0a10 	vmov	s14, r0
 8007754:	eef8 7ac7 	vcvt.f32.s32	s15, s14
 8007758:	eeb0 0a48 	vmov.f32	s0, s16
 800775c:	ee67 8aa8 	vmul.f32	s17, s15, s17
 8007760:	eea8 0aa9 	vfma.f32	s0, s17, s19
 8007764:	f002 fdb8 	bl	800a2d8 <lrintf>
 8007768:	b2c0      	uxtb	r0, r0
 800776a:	eb00 03c0 	add.w	r3, r0, r0, lsl #3
 800776e:	eb00 0043 	add.w	r0, r0, r3, lsl #1
 8007772:	ee07 0a90 	vmov	s15, r0
 8007776:	eef8 6ae7 	vcvt.f32.s32	s13, s15
 800777a:	ed94 7a01 	vldr	s14, [r4, #4]
 800777e:	eddf 7a29 	vldr	s15, [pc, #164]	; 8007824 <MagicPatch.part.1.6386+0xc1c>
 8007782:	eec6 9aa9 	vdiv.f32	s19, s13, s19
 8007786:	ee39 9a89 	vadd.f32	s18, s19, s18
 800778a:	ee29 9a07 	vmul.f32	s18, s18, s14
 800778e:	eeb4 9ae7 	vcmpe.f32	s18, s15
 8007792:	eef1 fa10 	vmrs	APSR_nzcv, fpscr
 8007796:	dc23      	bgt.n	80077e0 <MagicPatch.part.1.6386+0xbd8>
 8007798:	ed86 9a00 	vstr	s18, [r6]
 800779c:	ed85 9a00 	vstr	s18, [r5]
 80077a0:	ed84 9a00 	vstr	s18, [r4]
 80077a4:	f004 fe38 	bl	800c418 <rand>
 80077a8:	ee07 0a90 	vmov	s15, r0
 80077ac:	ed9f 8a18 	vldr	s16, [pc, #96]	; 8007810 <MagicPatch.part.1.6386+0xc08>
 80077b0:	ed9f 0a1d 	vldr	s0, [pc, #116]	; 8007828 <MagicPatch.part.1.6386+0xc20>
 80077b4:	eefa 7ae0 	vcvt.f32.s32	s15, s15, #31
 80077b8:	eea7 0a88 	vfma.f32	s0, s15, s16
 80077bc:	f002 fd8c 	bl	800a2d8 <lrintf>
 80077c0:	b2c0      	uxtb	r0, r0
 80077c2:	ee06 0a10 	vmov	s12, r0
 80077c6:	eef8 0ac6 	vcvt.f32.s32	s1, s12
 80077ca:	ed9f 0a18 	vldr	s0, [pc, #96]	; 800782c <MagicPatch.part.1.6386+0xc24>
 80077ce:	eec0 0a88 	vdiv.f32	s1, s1, s16
 80077d2:	f002 fe71 	bl	800a4b8 <powf>
 80077d6:	4b16      	ldr	r3, [pc, #88]	; (8007830 <MagicPatch.part.1.6386+0xc28>)
 80077d8:	ed83 0a00 	vstr	s0, [r3]
 80077dc:	f7ff bb4f 	b.w	8006e7e <MagicPatch.part.1.6386+0x276>
 80077e0:	edc6 7a00 	vstr	s15, [r6]
 80077e4:	edc5 7a00 	vstr	s15, [r5]
 80077e8:	edc4 7a00 	vstr	s15, [r4]
 80077ec:	e7da      	b.n	80077a4 <MagicPatch.part.1.6386+0xb9c>
 80077ee:	bf00      	nop
 80077f0:	10002d0c 	.word	0x10002d0c
 80077f4:	3fb33333 	.word	0x3fb33333
 80077f8:	3e4ccccd 	.word	0x3e4ccccd
 80077fc:	10002d2c 	.word	0x10002d2c
 8007800:	10002d4c 	.word	0x10002d4c
 8007804:	10002d6c 	.word	0x10002d6c
 8007808:	467a0000 	.word	0x467a0000
 800780c:	43200000 	.word	0x43200000
 8007810:	42fe0000 	.word	0x42fe0000
 8007814:	10000038 	.word	0x10000038
 8007818:	10000090 	.word	0x10000090
 800781c:	10000064 	.word	0x10000064
 8007820:	3dcccccd 	.word	0x3dcccccd
 8007824:	461c4000 	.word	0x461c4000
 8007828:	00000000 	.word	0x00000000
 800782c:	45bb8000 	.word	0x45bb8000
 8007830:	20000098 	.word	0x20000098

08007834 <USBH_MIDI_InterfaceDeInit.4173>:
USBH_MIDI_InterfaceDeInit.4173():
 8007834:	b410      	push	{r4}
 8007836:	4b30      	ldr	r3, [pc, #192]	; (80078f8 <USBH_MIDI_InterfaceDeInit.4173+0xc4>)
 8007838:	f893 2042 	ldrb.w	r2, [r3, #66]	; 0x42
 800783c:	b087      	sub	sp, #28
 800783e:	bb8a      	cbnz	r2, 80078a4 <USBH_MIDI_InterfaceDeInit.4173+0x70>
 8007840:	f893 2041 	ldrb.w	r2, [r3, #65]	; 0x41
 8007844:	b932      	cbnz	r2, 8007854 <USBH_MIDI_InterfaceDeInit.4173+0x20>
 8007846:	4b2d      	ldr	r3, [pc, #180]	; (80078fc <USBH_MIDI_InterfaceDeInit.4173+0xc8>)
 8007848:	2200      	movs	r2, #0
 800784a:	701a      	strb	r2, [r3, #0]
 800784c:	b007      	add	sp, #28
 800784e:	f85d 4b04 	ldr.w	r4, [sp], #4
 8007852:	4770      	bx	lr
 8007854:	eb00 0282 	add.w	r2, r0, r2, lsl #2
 8007858:	f8d2 1090 	ldr.w	r1, [r2, #144]	; 0x90
 800785c:	680a      	ldr	r2, [r1, #0]
 800785e:	f042 4240 	orr.w	r2, r2, #3221225472	; 0xc0000000
 8007862:	0354      	lsls	r4, r2, #13
 8007864:	d415      	bmi.n	8007892 <USBH_MIDI_InterfaceDeInit.4173+0x5e>
 8007866:	68c4      	ldr	r4, [r0, #12]
 8007868:	6ae4      	ldr	r4, [r4, #44]	; 0x2c
 800786a:	f3c4 4407 	ubfx	r4, r4, #16, #8
 800786e:	b1b4      	cbz	r4, 800789e <USBH_MIDI_InterfaceDeInit.4173+0x6a>
 8007870:	600a      	str	r2, [r1, #0]
 8007872:	f893 2041 	ldrb.w	r2, [r3, #65]	; 0x41
 8007876:	2a07      	cmp	r2, #7
 8007878:	d807      	bhi.n	800788a <USBH_MIDI_InterfaceDeInit.4173+0x56>
 800787a:	eb00 0042 	add.w	r0, r0, r2, lsl #1
 800787e:	f8b0 258c 	ldrh.w	r2, [r0, #1420]	; 0x58c
 8007882:	f3c2 020e 	ubfx	r2, r2, #0, #15
 8007886:	f8a0 258c 	strh.w	r2, [r0, #1420]	; 0x58c
 800788a:	2200      	movs	r2, #0
 800788c:	f883 2041 	strb.w	r2, [r3, #65]	; 0x41
 8007890:	e7d9      	b.n	8007846 <USBH_MIDI_InterfaceDeInit.4173+0x12>
 8007892:	6944      	ldr	r4, [r0, #20]
 8007894:	6924      	ldr	r4, [r4, #16]
 8007896:	f3c4 4407 	ubfx	r4, r4, #16, #8
 800789a:	2c00      	cmp	r4, #0
 800789c:	d1e8      	bne.n	8007870 <USBH_MIDI_InterfaceDeInit.4173+0x3c>
 800789e:	f364 72df 	bfi	r2, r4, #31, #1
 80078a2:	e7e5      	b.n	8007870 <USBH_MIDI_InterfaceDeInit.4173+0x3c>
 80078a4:	eb00 0282 	add.w	r2, r0, r2, lsl #2
 80078a8:	f8d2 1090 	ldr.w	r1, [r2, #144]	; 0x90
 80078ac:	680a      	ldr	r2, [r1, #0]
 80078ae:	f042 4240 	orr.w	r2, r2, #3221225472	; 0xc0000000
 80078b2:	0354      	lsls	r4, r2, #13
 80078b4:	d418      	bmi.n	80078e8 <USBH_MIDI_InterfaceDeInit.4173+0xb4>
 80078b6:	68c4      	ldr	r4, [r0, #12]
 80078b8:	6ae4      	ldr	r4, [r4, #44]	; 0x2c
 80078ba:	9403      	str	r4, [sp, #12]
 80078bc:	f3c4 4407 	ubfx	r4, r4, #16, #8
 80078c0:	b90c      	cbnz	r4, 80078c6 <USBH_MIDI_InterfaceDeInit.4173+0x92>
 80078c2:	f364 72df 	bfi	r2, r4, #31, #1
 80078c6:	600a      	str	r2, [r1, #0]
 80078c8:	f893 2042 	ldrb.w	r2, [r3, #66]	; 0x42
 80078cc:	2a07      	cmp	r2, #7
 80078ce:	d807      	bhi.n	80078e0 <USBH_MIDI_InterfaceDeInit.4173+0xac>
 80078d0:	eb00 0242 	add.w	r2, r0, r2, lsl #1
 80078d4:	f8b2 158c 	ldrh.w	r1, [r2, #1420]	; 0x58c
 80078d8:	f3c1 010e 	ubfx	r1, r1, #0, #15
 80078dc:	f8a2 158c 	strh.w	r1, [r2, #1420]	; 0x58c
 80078e0:	2200      	movs	r2, #0
 80078e2:	f883 2042 	strb.w	r2, [r3, #66]	; 0x42
 80078e6:	e7ab      	b.n	8007840 <USBH_MIDI_InterfaceDeInit.4173+0xc>
 80078e8:	6944      	ldr	r4, [r0, #20]
 80078ea:	6924      	ldr	r4, [r4, #16]
 80078ec:	9401      	str	r4, [sp, #4]
 80078ee:	f3c4 4407 	ubfx	r4, r4, #16, #8
 80078f2:	2c00      	cmp	r4, #0
 80078f4:	d0e5      	beq.n	80078c2 <USBH_MIDI_InterfaceDeInit.4173+0x8e>
 80078f6:	e7e6      	b.n	80078c6 <USBH_MIDI_InterfaceDeInit.4173+0x92>
 80078f8:	20014d40 	.word	0x20014d40
 80078fc:	20014d3d 	.word	0x20014d3d

08007900 <MagicFX.part.0.6384>:
MagicFX.part.0.6384():
 8007900:	e92d 41f0 	stmdb	sp!, {r4, r5, r6, r7, r8, lr}
 8007904:	4b90      	ldr	r3, [pc, #576]	; (8007b48 <MagicFX.part.0.6384+0x248>)
 8007906:	4e91      	ldr	r6, [pc, #580]	; (8007b4c <MagicFX.part.0.6384+0x24c>)
 8007908:	4f91      	ldr	r7, [pc, #580]	; (8007b50 <MagicFX.part.0.6384+0x250>)
 800790a:	4c92      	ldr	r4, [pc, #584]	; (8007b54 <MagicFX.part.0.6384+0x254>)
 800790c:	4d92      	ldr	r5, [pc, #584]	; (8007b58 <MagicFX.part.0.6384+0x258>)
 800790e:	ed2d 8b04 	vpush	{d8-d9}
 8007912:	2201      	movs	r2, #1
 8007914:	701a      	strb	r2, [r3, #0]
 8007916:	f004 fd7f 	bl	800c418 <rand>
 800791a:	ee07 0a10 	vmov	s14, r0
 800791e:	eddf 7a8f 	vldr	s15, [pc, #572]	; 8007b5c <MagicFX.part.0.6384+0x25c>
 8007922:	ed9f 0a8f 	vldr	s0, [pc, #572]	; 8007b60 <MagicFX.part.0.6384+0x260>
 8007926:	ed9f 9a8f 	vldr	s18, [pc, #572]	; 8007b64 <MagicFX.part.0.6384+0x264>
 800792a:	eddf 8a8d 	vldr	s17, [pc, #564]	; 8007b60 <MagicFX.part.0.6384+0x260>
 800792e:	ed9f 8a8b 	vldr	s16, [pc, #556]	; 8007b5c <MagicFX.part.0.6384+0x25c>
 8007932:	eeba 7ae0 	vcvt.f32.s32	s14, s14, #31
 8007936:	f04f 0801 	mov.w	r8, #1
 800793a:	eea7 0a27 	vfma.f32	s0, s14, s15
 800793e:	f002 fccb 	bl	800a2d8 <lrintf>
 8007942:	b2c0      	uxtb	r0, r0
 8007944:	ee07 0a90 	vmov	s15, r0
 8007948:	ed9f 0a87 	vldr	s0, [pc, #540]	; 8007b68 <MagicFX.part.0.6384+0x268>
 800794c:	eeb8 7ae7 	vcvt.f32.s32	s14, s15
 8007950:	eddf 7a86 	vldr	s15, [pc, #536]	; 8007b6c <MagicFX.part.0.6384+0x26c>
 8007954:	eea7 0a27 	vfma.f32	s0, s14, s15
 8007958:	f002 fcbe 	bl	800a2d8 <lrintf>
 800795c:	4b84      	ldr	r3, [pc, #528]	; (8007b70 <MagicFX.part.0.6384+0x270>)
 800795e:	4985      	ldr	r1, [pc, #532]	; (8007b74 <MagicFX.part.0.6384+0x274>)
 8007960:	681a      	ldr	r2, [r3, #0]
 8007962:	4b85      	ldr	r3, [pc, #532]	; (8007b78 <MagicFX.part.0.6384+0x278>)
 8007964:	6008      	str	r0, [r1, #0]
 8007966:	eba2 0080 	sub.w	r0, r2, r0, lsl #2
 800796a:	4298      	cmp	r0, r3
 800796c:	bf38      	it	cc
 800796e:	f500 309c 	addcc.w	r0, r0, #79872	; 0x13800
 8007972:	4b82      	ldr	r3, [pc, #520]	; (8007b7c <MagicFX.part.0.6384+0x27c>)
 8007974:	bf38      	it	cc
 8007976:	307c      	addcc	r0, #124	; 0x7c
 8007978:	6018      	str	r0, [r3, #0]
 800797a:	f004 fd4d 	bl	800c418 <rand>
 800797e:	ee07 0a10 	vmov	s14, r0
 8007982:	eef8 7ac7 	vcvt.f32.s32	s15, s14
 8007986:	eeb0 0a68 	vmov.f32	s0, s17
 800798a:	ee67 7a89 	vmul.f32	s15, s15, s18
 800798e:	eea7 0a88 	vfma.f32	s0, s15, s16
 8007992:	f002 fca1 	bl	800a2d8 <lrintf>
 8007996:	b2c0      	uxtb	r0, r0
 8007998:	ee07 0a10 	vmov	s14, r0
 800799c:	eef8 7ac7 	vcvt.f32.s32	s15, s14
 80079a0:	4b77      	ldr	r3, [pc, #476]	; (8007b80 <MagicFX.part.0.6384+0x280>)
 80079a2:	4a78      	ldr	r2, [pc, #480]	; (8007b84 <MagicFX.part.0.6384+0x284>)
 80079a4:	eec7 7a88 	vdiv.f32	s15, s15, s16
 80079a8:	f882 8000 	strb.w	r8, [r2]
 80079ac:	edc3 7a00 	vstr	s15, [r3]
 80079b0:	f004 fd32 	bl	800c418 <rand>
 80079b4:	ee07 0a10 	vmov	s14, r0
 80079b8:	eef8 7ac7 	vcvt.f32.s32	s15, s14
 80079bc:	eeb0 0a68 	vmov.f32	s0, s17
 80079c0:	ee67 7a89 	vmul.f32	s15, s15, s18
 80079c4:	eea7 0a88 	vfma.f32	s0, s15, s16
 80079c8:	f002 fc86 	bl	800a2d8 <lrintf>
 80079cc:	b2c0      	uxtb	r0, r0
 80079ce:	ee07 0a90 	vmov	s15, r0
 80079d2:	eddf 6a6d 	vldr	s13, [pc, #436]	; 8007b88 <MagicFX.part.0.6384+0x288>
 80079d6:	ed9f 7a6d 	vldr	s14, [pc, #436]	; 8007b8c <MagicFX.part.0.6384+0x28c>
 80079da:	eeb8 6ae7 	vcvt.f32.s32	s12, s15
 80079de:	eddf 7a6c 	vldr	s15, [pc, #432]	; 8007b90 <MagicFX.part.0.6384+0x290>
 80079e2:	eee6 7a26 	vfma.f32	s15, s12, s13
 80079e6:	ee27 7a87 	vmul.f32	s14, s15, s14
 80079ea:	edc7 7a01 	vstr	s15, [r7, #4]
 80079ee:	ed86 7a01 	vstr	s14, [r6, #4]
 80079f2:	f004 fd11 	bl	800c418 <rand>
 80079f6:	ee07 0a10 	vmov	s14, r0
 80079fa:	eef8 7ac7 	vcvt.f32.s32	s15, s14
 80079fe:	eeb0 0a68 	vmov.f32	s0, s17
 8007a02:	ee67 7a89 	vmul.f32	s15, s15, s18
 8007a06:	eea7 0a88 	vfma.f32	s0, s15, s16
 8007a0a:	f002 fc65 	bl	800a2d8 <lrintf>
 8007a0e:	b2c0      	uxtb	r0, r0
 8007a10:	ee07 0a10 	vmov	s14, r0
 8007a14:	eef8 7ac7 	vcvt.f32.s32	s15, s14
 8007a18:	ed9f 7a5e 	vldr	s14, [pc, #376]	; 8007b94 <MagicFX.part.0.6384+0x294>
 8007a1c:	4a5e      	ldr	r2, [pc, #376]	; (8007b98 <MagicFX.part.0.6384+0x298>)
 8007a1e:	4b5f      	ldr	r3, [pc, #380]	; (8007b9c <MagicFX.part.0.6384+0x29c>)
 8007a20:	ee67 7a87 	vmul.f32	s15, s15, s14
 8007a24:	edc2 7a00 	vstr	s15, [r2]
 8007a28:	edc3 7a00 	vstr	s15, [r3]
 8007a2c:	f004 fcf4 	bl	800c418 <rand>
 8007a30:	ee07 0a10 	vmov	s14, r0
 8007a34:	eef8 7ac7 	vcvt.f32.s32	s15, s14
 8007a38:	eeb0 0a68 	vmov.f32	s0, s17
 8007a3c:	ee67 7a89 	vmul.f32	s15, s15, s18
 8007a40:	eea7 0a88 	vfma.f32	s0, s15, s16
 8007a44:	f002 fc48 	bl	800a2d8 <lrintf>
 8007a48:	b2c0      	uxtb	r0, r0
 8007a4a:	ee07 0a10 	vmov	s14, r0
 8007a4e:	eef8 7ac7 	vcvt.f32.s32	s15, s14
 8007a52:	ed9f 7a53 	vldr	s14, [pc, #332]	; 8007ba0 <MagicFX.part.0.6384+0x2a0>
 8007a56:	ee67 7a87 	vmul.f32	s15, s15, s14
 8007a5a:	edc7 7a00 	vstr	s15, [r7]
 8007a5e:	edc6 7a00 	vstr	s15, [r6]
 8007a62:	f004 fcd9 	bl	800c418 <rand>
 8007a66:	ee07 0a10 	vmov	s14, r0
 8007a6a:	eef8 7ac7 	vcvt.f32.s32	s15, s14
 8007a6e:	eeb0 0a68 	vmov.f32	s0, s17
 8007a72:	ee67 7a89 	vmul.f32	s15, s15, s18
 8007a76:	eea7 0a88 	vfma.f32	s0, s15, s16
 8007a7a:	f002 fc2d 	bl	800a2d8 <lrintf>
 8007a7e:	b2c0      	uxtb	r0, r0
 8007a80:	ee07 0a10 	vmov	s14, r0
 8007a84:	eef8 7ac7 	vcvt.f32.s32	s15, s14
 8007a88:	ed9f 7a46 	vldr	s14, [pc, #280]	; 8007ba4 <MagicFX.part.0.6384+0x2a4>
 8007a8c:	ee67 7a87 	vmul.f32	s15, s15, s14
 8007a90:	eec7 7a88 	vdiv.f32	s15, s15, s16
 8007a94:	edc4 7a01 	vstr	s15, [r4, #4]
 8007a98:	edc5 7a01 	vstr	s15, [r5, #4]
 8007a9c:	f004 fcbc 	bl	800c418 <rand>
 8007aa0:	ee07 0a10 	vmov	s14, r0
 8007aa4:	eef8 7ac7 	vcvt.f32.s32	s15, s14
 8007aa8:	eeb0 0a68 	vmov.f32	s0, s17
 8007aac:	ee27 9a89 	vmul.f32	s18, s15, s18
 8007ab0:	eea9 0a08 	vfma.f32	s0, s18, s16
 8007ab4:	f002 fc10 	bl	800a2d8 <lrintf>
 8007ab8:	b2c0      	uxtb	r0, r0
 8007aba:	b348      	cbz	r0, 8007b10 <MagicFX.part.0.6384+0x210>
 8007abc:	287f      	cmp	r0, #127	; 0x7f
 8007abe:	d021      	beq.n	8007b04 <MagicFX.part.0.6384+0x204>
 8007ac0:	f004 fcaa 	bl	800c418 <rand>
 8007ac4:	ee07 0a10 	vmov	s14, r0
 8007ac8:	eddf 7a24 	vldr	s15, [pc, #144]	; 8007b5c <MagicFX.part.0.6384+0x25c>
 8007acc:	ed9f 0a24 	vldr	s0, [pc, #144]	; 8007b60 <MagicFX.part.0.6384+0x260>
 8007ad0:	eeba 7ae0 	vcvt.f32.s32	s14, s14, #31
 8007ad4:	eea7 0a27 	vfma.f32	s0, s14, s15
 8007ad8:	f002 fbfe 	bl	800a2d8 <lrintf>
 8007adc:	b2c0      	uxtb	r0, r0
 8007ade:	b1f0      	cbz	r0, 8007b1e <MagicFX.part.0.6384+0x21e>
 8007ae0:	287f      	cmp	r0, #127	; 0x7f
 8007ae2:	d10b      	bne.n	8007afc <MagicFX.part.0.6384+0x1fc>
 8007ae4:	ed95 0a01 	vldr	s0, [r5, #4]
 8007ae8:	f002 fb9e 	bl	800a228 <fabsf>
 8007aec:	ed85 0a01 	vstr	s0, [r5, #4]
 8007af0:	ed94 0a01 	vldr	s0, [r4, #4]
 8007af4:	f002 fb98 	bl	800a228 <fabsf>
 8007af8:	ed84 0a01 	vstr	s0, [r4, #4]
 8007afc:	ecbd 8b04 	vpop	{d8-d9}
 8007b00:	e8bd 81f0 	ldmia.w	sp!, {r4, r5, r6, r7, r8, pc}
 8007b04:	f241 53f4 	movw	r3, #5620	; 0x15f4
 8007b08:	22ff      	movs	r2, #255	; 0xff
 8007b0a:	54e2      	strb	r2, [r4, r3]
 8007b0c:	54ea      	strb	r2, [r5, r3]
 8007b0e:	e7d7      	b.n	8007ac0 <MagicFX.part.0.6384+0x1c0>
 8007b10:	f241 53f4 	movw	r3, #5620	; 0x15f4
 8007b14:	f804 8003 	strb.w	r8, [r4, r3]
 8007b18:	f805 8003 	strb.w	r8, [r5, r3]
 8007b1c:	e7d0      	b.n	8007ac0 <MagicFX.part.0.6384+0x1c0>
 8007b1e:	ed95 0a01 	vldr	s0, [r5, #4]
 8007b22:	f002 fb81 	bl	800a228 <fabsf>
 8007b26:	eef1 7a40 	vneg.f32	s15, s0
 8007b2a:	ed94 0a01 	vldr	s0, [r4, #4]
 8007b2e:	edc5 7a01 	vstr	s15, [r5, #4]
 8007b32:	f002 fb79 	bl	800a228 <fabsf>
 8007b36:	ecbd 8b04 	vpop	{d8-d9}
 8007b3a:	eeb1 0a40 	vneg.f32	s0, s0
 8007b3e:	ed84 0a01 	vstr	s0, [r4, #4]
 8007b42:	e8bd 81f0 	ldmia.w	sp!, {r4, r5, r6, r7, r8, pc}
 8007b46:	bf00      	nop
 8007b48:	10000037 	.word	0x10000037
 8007b4c:	10002cbc 	.word	0x10002cbc
 8007b50:	10002cac 	.word	0x10002cac
 8007b54:	100000bc 	.word	0x100000bc
 8007b58:	100016b4 	.word	0x100016b4
 8007b5c:	42fe0000 	.word	0x42fe0000
 8007b60:	00000000 	.word	0x00000000
 8007b64:	30000000 	.word	0x30000000
 8007b68:	437a0000 	.word	0x437a0000
 8007b6c:	431b8102 	.word	0x431b8102
 8007b70:	20014d1c 	.word	0x20014d1c
 8007b74:	200004e0 	.word	0x200004e0
 8007b78:	20001228 	.word	0x20001228
 8007b7c:	200004e8 	.word	0x200004e8
 8007b80:	20000080 	.word	0x20000080
 8007b84:	10000036 	.word	0x10000036
 8007b88:	3d61c387 	.word	0x3d61c387
 8007b8c:	3f7ae148 	.word	0x3f7ae148
 8007b90:	3ca3d70a 	.word	0x3ca3d70a
 8007b94:	40b060c2 	.word	0x40b060c2
 8007b98:	100016ac 	.word	0x100016ac
 8007b9c:	10002ca4 	.word	0x10002ca4
 8007ba0:	3f8c7f66 	.word	0x3f8c7f66
 8007ba4:	3f733333 	.word	0x3f733333

08007ba8 <Codec_WriteRegister.4974>:
Codec_WriteRegister.4974():
 8007ba8:	e92d 01f0 	stmdb	sp!, {r4, r5, r6, r7, r8}
 8007bac:	4b9a      	ldr	r3, [pc, #616]	; (8007e18 <Codec_WriteRegister.4974+0x270>)
 8007bae:	4e9b      	ldr	r6, [pc, #620]	; (8007e1c <Codec_WriteRegister.4974+0x274>)
 8007bb0:	f44f 1296 	mov.w	r2, #1228800	; 0x12c000
 8007bb4:	601a      	str	r2, [r3, #0]
 8007bb6:	b08d      	sub	sp, #52	; 0x34
 8007bb8:	4607      	mov	r7, r0
 8007bba:	2200      	movs	r2, #0
 8007bbc:	9200      	str	r2, [sp, #0]
 8007bbe:	9201      	str	r2, [sp, #4]
 8007bc0:	9601      	str	r6, [sp, #4]
 8007bc2:	9200      	str	r2, [sp, #0]
 8007bc4:	9c00      	ldr	r4, [sp, #0]
 8007bc6:	9801      	ldr	r0, [sp, #4]
 8007bc8:	b344      	cbz	r4, 8007c1c <Codec_WriteRegister.4974+0x74>
 8007bca:	3014      	adds	r0, #20
 8007bcc:	9001      	str	r0, [sp, #4]
 8007bce:	9c01      	ldr	r4, [sp, #4]
 8007bd0:	6824      	ldr	r4, [r4, #0]
 8007bd2:	f44f 3500 	mov.w	r5, #131072	; 0x20000
 8007bd6:	ea15 0004 	ands.w	r0, r5, r4
 8007bda:	d127      	bne.n	8007c2c <Codec_WriteRegister.4974+0x84>
 8007bdc:	4a8f      	ldr	r2, [pc, #572]	; (8007e1c <Codec_WriteRegister.4974+0x274>)
 8007bde:	f8df c240 	ldr.w	ip, [pc, #576]	; 8007e20 <Codec_WriteRegister.4974+0x278>
 8007be2:	8815      	ldrh	r5, [r2, #0]
 8007be4:	b2ad      	uxth	r5, r5
 8007be6:	f445 7580 	orr.w	r5, r5, #256	; 0x100
 8007bea:	f44f 5480 	mov.w	r4, #4096	; 0x1000
 8007bee:	8015      	strh	r5, [r2, #0]
 8007bf0:	601c      	str	r4, [r3, #0]
 8007bf2:	8a94      	ldrh	r4, [r2, #20]
 8007bf4:	8b15      	ldrh	r5, [r2, #24]
 8007bf6:	4e8a      	ldr	r6, [pc, #552]	; (8007e20 <Codec_WriteRegister.4974+0x278>)
 8007bf8:	f8df 8220 	ldr.w	r8, [pc, #544]	; 8007e1c <Codec_WriteRegister.4974+0x274>
 8007bfc:	b2a4      	uxth	r4, r4
 8007bfe:	ea44 4405 	orr.w	r4, r4, r5, lsl #16
 8007c02:	4026      	ands	r6, r4
 8007c04:	4566      	cmp	r6, ip
 8007c06:	d018      	beq.n	8007c3a <Codec_WriteRegister.4974+0x92>
 8007c08:	681e      	ldr	r6, [r3, #0]
 8007c0a:	1e74      	subs	r4, r6, #1
 8007c0c:	601c      	str	r4, [r3, #0]
 8007c0e:	2e00      	cmp	r6, #0
 8007c10:	d1ef      	bne.n	8007bf2 <Codec_WriteRegister.4974+0x4a>
 8007c12:	2000      	movs	r0, #0
 8007c14:	b00d      	add	sp, #52	; 0x34
 8007c16:	e8bd 01f0 	ldmia.w	sp!, {r4, r5, r6, r7, r8}
 8007c1a:	4770      	bx	lr
 8007c1c:	3018      	adds	r0, #24
 8007c1e:	9001      	str	r0, [sp, #4]
 8007c20:	9c01      	ldr	r4, [sp, #4]
 8007c22:	6824      	ldr	r4, [r4, #0]
 8007c24:	2502      	movs	r5, #2
 8007c26:	ea15 0004 	ands.w	r0, r5, r4
 8007c2a:	d0d7      	beq.n	8007bdc <Codec_WriteRegister.4974+0x34>
 8007c2c:	6818      	ldr	r0, [r3, #0]
 8007c2e:	1e44      	subs	r4, r0, #1
 8007c30:	601c      	str	r4, [r3, #0]
 8007c32:	2800      	cmp	r0, #0
 8007c34:	d1c2      	bne.n	8007bbc <Codec_WriteRegister.4974+0x14>
 8007c36:	2000      	movs	r0, #0
 8007c38:	e7ec      	b.n	8007c14 <Codec_WriteRegister.4974+0x6c>
 8007c3a:	2494      	movs	r4, #148	; 0x94
 8007c3c:	f44f 5280 	mov.w	r2, #4096	; 0x1000
 8007c40:	4e78      	ldr	r6, [pc, #480]	; (8007e24 <Codec_WriteRegister.4974+0x27c>)
 8007c42:	f8a8 4010 	strh.w	r4, [r8, #16]
 8007c46:	601a      	str	r2, [r3, #0]
 8007c48:	f8b8 4014 	ldrh.w	r4, [r8, #20]
 8007c4c:	f8b8 5018 	ldrh.w	r5, [r8, #24]
 8007c50:	4a74      	ldr	r2, [pc, #464]	; (8007e24 <Codec_WriteRegister.4974+0x27c>)
 8007c52:	f8df c1c8 	ldr.w	ip, [pc, #456]	; 8007e1c <Codec_WriteRegister.4974+0x274>
 8007c56:	b2a4      	uxth	r4, r4
 8007c58:	ea44 4405 	orr.w	r4, r4, r5, lsl #16
 8007c5c:	4022      	ands	r2, r4
 8007c5e:	42b2      	cmp	r2, r6
 8007c60:	d005      	beq.n	8007c6e <Codec_WriteRegister.4974+0xc6>
 8007c62:	681a      	ldr	r2, [r3, #0]
 8007c64:	1e54      	subs	r4, r2, #1
 8007c66:	601c      	str	r4, [r3, #0]
 8007c68:	2a00      	cmp	r2, #0
 8007c6a:	d1ed      	bne.n	8007c48 <Codec_WriteRegister.4974+0xa0>
 8007c6c:	e7d2      	b.n	8007c14 <Codec_WriteRegister.4974+0x6c>
 8007c6e:	f44f 5280 	mov.w	r2, #4096	; 0x1000
 8007c72:	4e6d      	ldr	r6, [pc, #436]	; (8007e28 <Codec_WriteRegister.4974+0x280>)
 8007c74:	f8ac 7010 	strh.w	r7, [ip, #16]
 8007c78:	601a      	str	r2, [r3, #0]
 8007c7a:	f8bc 4014 	ldrh.w	r4, [ip, #20]
 8007c7e:	f8bc 5018 	ldrh.w	r5, [ip, #24]
 8007c82:	4a69      	ldr	r2, [pc, #420]	; (8007e28 <Codec_WriteRegister.4974+0x280>)
 8007c84:	f8df 8194 	ldr.w	r8, [pc, #404]	; 8007e1c <Codec_WriteRegister.4974+0x274>
 8007c88:	b2a4      	uxth	r4, r4
 8007c8a:	ea44 4405 	orr.w	r4, r4, r5, lsl #16
 8007c8e:	4022      	ands	r2, r4
 8007c90:	42b2      	cmp	r2, r6
 8007c92:	d005      	beq.n	8007ca0 <Codec_WriteRegister.4974+0xf8>
 8007c94:	681a      	ldr	r2, [r3, #0]
 8007c96:	1e54      	subs	r4, r2, #1
 8007c98:	601c      	str	r4, [r3, #0]
 8007c9a:	2a00      	cmp	r2, #0
 8007c9c:	d1ed      	bne.n	8007c7a <Codec_WriteRegister.4974+0xd2>
 8007c9e:	e7b9      	b.n	8007c14 <Codec_WriteRegister.4974+0x6c>
 8007ca0:	f44f 1296 	mov.w	r2, #1228800	; 0x12c000
 8007ca4:	f8a8 1010 	strh.w	r1, [r8, #16]
 8007ca8:	2601      	movs	r6, #1
 8007caa:	601a      	str	r2, [r3, #0]
 8007cac:	2200      	movs	r2, #0
 8007cae:	9202      	str	r2, [sp, #8]
 8007cb0:	9203      	str	r2, [sp, #12]
 8007cb2:	f8cd 800c 	str.w	r8, [sp, #12]
 8007cb6:	9602      	str	r6, [sp, #8]
 8007cb8:	9d02      	ldr	r5, [sp, #8]
 8007cba:	4c58      	ldr	r4, [pc, #352]	; (8007e1c <Codec_WriteRegister.4974+0x274>)
 8007cbc:	2d00      	cmp	r5, #0
 8007cbe:	d03e      	beq.n	8007d3e <Codec_WriteRegister.4974+0x196>
 8007cc0:	9d03      	ldr	r5, [sp, #12]
 8007cc2:	3514      	adds	r5, #20
 8007cc4:	9503      	str	r5, [sp, #12]
 8007cc6:	9d03      	ldr	r5, [sp, #12]
 8007cc8:	682d      	ldr	r5, [r5, #0]
 8007cca:	076d      	lsls	r5, r5, #29
 8007ccc:	d53c      	bpl.n	8007d48 <Codec_WriteRegister.4974+0x1a0>
 8007cce:	8825      	ldrh	r5, [r4, #0]
 8007cd0:	b2ad      	uxth	r5, r5
 8007cd2:	f44f 1296 	mov.w	r2, #1228800	; 0x12c000
 8007cd6:	f445 7500 	orr.w	r5, r5, #512	; 0x200
 8007cda:	8025      	strh	r5, [r4, #0]
 8007cdc:	601a      	str	r2, [r3, #0]
 8007cde:	2200      	movs	r2, #0
 8007ce0:	9204      	str	r2, [sp, #16]
 8007ce2:	9205      	str	r2, [sp, #20]
 8007ce4:	9405      	str	r4, [sp, #20]
 8007ce6:	9204      	str	r2, [sp, #16]
 8007ce8:	9d04      	ldr	r5, [sp, #16]
 8007cea:	2d00      	cmp	r5, #0
 8007cec:	d030      	beq.n	8007d50 <Codec_WriteRegister.4974+0x1a8>
 8007cee:	9d05      	ldr	r5, [sp, #20]
 8007cf0:	3514      	adds	r5, #20
 8007cf2:	9505      	str	r5, [sp, #20]
 8007cf4:	9d05      	ldr	r5, [sp, #20]
 8007cf6:	682d      	ldr	r5, [r5, #0]
 8007cf8:	f44f 3600 	mov.w	r6, #131072	; 0x20000
 8007cfc:	422e      	tst	r6, r5
 8007cfe:	d12f      	bne.n	8007d60 <Codec_WriteRegister.4974+0x1b8>
 8007d00:	4a46      	ldr	r2, [pc, #280]	; (8007e1c <Codec_WriteRegister.4974+0x274>)
 8007d02:	4e47      	ldr	r6, [pc, #284]	; (8007e20 <Codec_WriteRegister.4974+0x278>)
 8007d04:	8815      	ldrh	r5, [r2, #0]
 8007d06:	b2ad      	uxth	r5, r5
 8007d08:	f445 7580 	orr.w	r5, r5, #256	; 0x100
 8007d0c:	f44f 5480 	mov.w	r4, #4096	; 0x1000
 8007d10:	8015      	strh	r5, [r2, #0]
 8007d12:	601c      	str	r4, [r3, #0]
 8007d14:	8a95      	ldrh	r5, [r2, #20]
 8007d16:	f8b2 c018 	ldrh.w	ip, [r2, #24]
 8007d1a:	4c41      	ldr	r4, [pc, #260]	; (8007e20 <Codec_WriteRegister.4974+0x278>)
 8007d1c:	f8df 80fc 	ldr.w	r8, [pc, #252]	; 8007e1c <Codec_WriteRegister.4974+0x274>
 8007d20:	b2ad      	uxth	r5, r5
 8007d22:	ea45 450c 	orr.w	r5, r5, ip, lsl #16
 8007d26:	402c      	ands	r4, r5
 8007d28:	42b4      	cmp	r4, r6
 8007d2a:	d01f      	beq.n	8007d6c <Codec_WriteRegister.4974+0x1c4>
 8007d2c:	681c      	ldr	r4, [r3, #0]
 8007d2e:	1e65      	subs	r5, r4, #1
 8007d30:	601d      	str	r5, [r3, #0]
 8007d32:	2c00      	cmp	r4, #0
 8007d34:	d1ee      	bne.n	8007d14 <Codec_WriteRegister.4974+0x16c>
 8007d36:	1a08      	subs	r0, r1, r0
 8007d38:	bf18      	it	ne
 8007d3a:	2001      	movne	r0, #1
 8007d3c:	e76a      	b.n	8007c14 <Codec_WriteRegister.4974+0x6c>
 8007d3e:	9c03      	ldr	r4, [sp, #12]
 8007d40:	3418      	adds	r4, #24
 8007d42:	9403      	str	r4, [sp, #12]
 8007d44:	9c03      	ldr	r4, [sp, #12]
 8007d46:	6824      	ldr	r4, [r4, #0]
 8007d48:	681c      	ldr	r4, [r3, #0]
 8007d4a:	3c01      	subs	r4, #1
 8007d4c:	601c      	str	r4, [r3, #0]
 8007d4e:	e7ae      	b.n	8007cae <Codec_WriteRegister.4974+0x106>
 8007d50:	9d05      	ldr	r5, [sp, #20]
 8007d52:	3518      	adds	r5, #24
 8007d54:	9505      	str	r5, [sp, #20]
 8007d56:	9d05      	ldr	r5, [sp, #20]
 8007d58:	682d      	ldr	r5, [r5, #0]
 8007d5a:	2602      	movs	r6, #2
 8007d5c:	422e      	tst	r6, r5
 8007d5e:	d0cf      	beq.n	8007d00 <Codec_WriteRegister.4974+0x158>
 8007d60:	681d      	ldr	r5, [r3, #0]
 8007d62:	1e6e      	subs	r6, r5, #1
 8007d64:	601e      	str	r6, [r3, #0]
 8007d66:	2d00      	cmp	r5, #0
 8007d68:	d1ba      	bne.n	8007ce0 <Codec_WriteRegister.4974+0x138>
 8007d6a:	e7e4      	b.n	8007d36 <Codec_WriteRegister.4974+0x18e>
 8007d6c:	2494      	movs	r4, #148	; 0x94
 8007d6e:	f44f 5280 	mov.w	r2, #4096	; 0x1000
 8007d72:	4e2c      	ldr	r6, [pc, #176]	; (8007e24 <Codec_WriteRegister.4974+0x27c>)
 8007d74:	f8a8 4010 	strh.w	r4, [r8, #16]
 8007d78:	601a      	str	r2, [r3, #0]
 8007d7a:	f8b8 4014 	ldrh.w	r4, [r8, #20]
 8007d7e:	f8b8 5018 	ldrh.w	r5, [r8, #24]
 8007d82:	4a28      	ldr	r2, [pc, #160]	; (8007e24 <Codec_WriteRegister.4974+0x27c>)
 8007d84:	f8df c094 	ldr.w	ip, [pc, #148]	; 8007e1c <Codec_WriteRegister.4974+0x274>
 8007d88:	b2a4      	uxth	r4, r4
 8007d8a:	ea44 4405 	orr.w	r4, r4, r5, lsl #16
 8007d8e:	4022      	ands	r2, r4
 8007d90:	42b2      	cmp	r2, r6
 8007d92:	d005      	beq.n	8007da0 <Codec_WriteRegister.4974+0x1f8>
 8007d94:	681a      	ldr	r2, [r3, #0]
 8007d96:	1e54      	subs	r4, r2, #1
 8007d98:	601c      	str	r4, [r3, #0]
 8007d9a:	2a00      	cmp	r2, #0
 8007d9c:	d1ed      	bne.n	8007d7a <Codec_WriteRegister.4974+0x1d2>
 8007d9e:	e7ca      	b.n	8007d36 <Codec_WriteRegister.4974+0x18e>
 8007da0:	f44f 5280 	mov.w	r2, #4096	; 0x1000
 8007da4:	f8ac 7010 	strh.w	r7, [ip, #16]
 8007da8:	2601      	movs	r6, #1
 8007daa:	601a      	str	r2, [r3, #0]
 8007dac:	4667      	mov	r7, ip
 8007dae:	2200      	movs	r2, #0
 8007db0:	9206      	str	r2, [sp, #24]
 8007db2:	9207      	str	r2, [sp, #28]
 8007db4:	9707      	str	r7, [sp, #28]
 8007db6:	9606      	str	r6, [sp, #24]
 8007db8:	9d06      	ldr	r5, [sp, #24]
 8007dba:	4c18      	ldr	r4, [pc, #96]	; (8007e1c <Codec_WriteRegister.4974+0x274>)
 8007dbc:	b305      	cbz	r5, 8007e00 <Codec_WriteRegister.4974+0x258>
 8007dbe:	9d07      	ldr	r5, [sp, #28]
 8007dc0:	3514      	adds	r5, #20
 8007dc2:	9507      	str	r5, [sp, #28]
 8007dc4:	9d07      	ldr	r5, [sp, #28]
 8007dc6:	682d      	ldr	r5, [r5, #0]
 8007dc8:	076d      	lsls	r5, r5, #29
 8007dca:	d51e      	bpl.n	8007e0a <Codec_WriteRegister.4974+0x262>
 8007dcc:	8825      	ldrh	r5, [r4, #0]
 8007dce:	4f14      	ldr	r7, [pc, #80]	; (8007e20 <Codec_WriteRegister.4974+0x278>)
 8007dd0:	b2ad      	uxth	r5, r5
 8007dd2:	f445 7580 	orr.w	r5, r5, #256	; 0x100
 8007dd6:	f44f 5280 	mov.w	r2, #4096	; 0x1000
 8007dda:	8025      	strh	r5, [r4, #0]
 8007ddc:	601a      	str	r2, [r3, #0]
 8007dde:	8aa5      	ldrh	r5, [r4, #20]
 8007de0:	8b26      	ldrh	r6, [r4, #24]
 8007de2:	4a0f      	ldr	r2, [pc, #60]	; (8007e20 <Codec_WriteRegister.4974+0x278>)
 8007de4:	f8df c034 	ldr.w	ip, [pc, #52]	; 8007e1c <Codec_WriteRegister.4974+0x274>
 8007de8:	b2ad      	uxth	r5, r5
 8007dea:	ea45 4506 	orr.w	r5, r5, r6, lsl #16
 8007dee:	402a      	ands	r2, r5
 8007df0:	42ba      	cmp	r2, r7
 8007df2:	d01b      	beq.n	8007e2c <Codec_WriteRegister.4974+0x284>
 8007df4:	681a      	ldr	r2, [r3, #0]
 8007df6:	1e55      	subs	r5, r2, #1
 8007df8:	601d      	str	r5, [r3, #0]
 8007dfa:	2a00      	cmp	r2, #0
 8007dfc:	d1ef      	bne.n	8007dde <Codec_WriteRegister.4974+0x236>
 8007dfe:	e79a      	b.n	8007d36 <Codec_WriteRegister.4974+0x18e>
 8007e00:	9c07      	ldr	r4, [sp, #28]
 8007e02:	3418      	adds	r4, #24
 8007e04:	9407      	str	r4, [sp, #28]
 8007e06:	9c07      	ldr	r4, [sp, #28]
 8007e08:	6824      	ldr	r4, [r4, #0]
 8007e0a:	681c      	ldr	r4, [r3, #0]
 8007e0c:	1e65      	subs	r5, r4, #1
 8007e0e:	601d      	str	r5, [r3, #0]
 8007e10:	2c00      	cmp	r4, #0
 8007e12:	d1cd      	bne.n	8007db0 <Codec_WriteRegister.4974+0x208>
 8007e14:	e78f      	b.n	8007d36 <Codec_WriteRegister.4974+0x18e>
 8007e16:	bf00      	nop
 8007e18:	2000009c 	.word	0x2000009c
 8007e1c:	40005400 	.word	0x40005400
 8007e20:	00030001 	.word	0x00030001
 8007e24:	00070082 	.word	0x00070082
 8007e28:	00070080 	.word	0x00070080
 8007e2c:	2495      	movs	r4, #149	; 0x95
 8007e2e:	f44f 5280 	mov.w	r2, #4096	; 0x1000
 8007e32:	f8ac 4010 	strh.w	r4, [ip, #16]
 8007e36:	4667      	mov	r7, ip
 8007e38:	601a      	str	r2, [r3, #0]
 8007e3a:	2400      	movs	r4, #0
 8007e3c:	2601      	movs	r6, #1
 8007e3e:	9408      	str	r4, [sp, #32]
 8007e40:	9409      	str	r4, [sp, #36]	; 0x24
 8007e42:	9709      	str	r7, [sp, #36]	; 0x24
 8007e44:	9608      	str	r6, [sp, #32]
 8007e46:	9d08      	ldr	r5, [sp, #32]
 8007e48:	4a2c      	ldr	r2, [pc, #176]	; (8007efc <Codec_WriteRegister.4974+0x354>)
 8007e4a:	2d00      	cmp	r5, #0
 8007e4c:	d040      	beq.n	8007ed0 <Codec_WriteRegister.4974+0x328>
 8007e4e:	9d09      	ldr	r5, [sp, #36]	; 0x24
 8007e50:	3514      	adds	r5, #20
 8007e52:	9509      	str	r5, [sp, #36]	; 0x24
 8007e54:	9d09      	ldr	r5, [sp, #36]	; 0x24
 8007e56:	682d      	ldr	r5, [r5, #0]
 8007e58:	07ad      	lsls	r5, r5, #30
 8007e5a:	d53e      	bpl.n	8007eda <Codec_WriteRegister.4974+0x332>
 8007e5c:	8814      	ldrh	r4, [r2, #0]
 8007e5e:	f424 6480 	bic.w	r4, r4, #1024	; 0x400
 8007e62:	0424      	lsls	r4, r4, #16
 8007e64:	0c24      	lsrs	r4, r4, #16
 8007e66:	8014      	strh	r4, [r2, #0]
 8007e68:	8b14      	ldrh	r4, [r2, #24]
 8007e6a:	8815      	ldrh	r5, [r2, #0]
 8007e6c:	b2ad      	uxth	r5, r5
 8007e6e:	f445 7500 	orr.w	r5, r5, #512	; 0x200
 8007e72:	f44f 5480 	mov.w	r4, #4096	; 0x1000
 8007e76:	8015      	strh	r5, [r2, #0]
 8007e78:	2601      	movs	r6, #1
 8007e7a:	601c      	str	r4, [r3, #0]
 8007e7c:	2500      	movs	r5, #0
 8007e7e:	950a      	str	r5, [sp, #40]	; 0x28
 8007e80:	950b      	str	r5, [sp, #44]	; 0x2c
 8007e82:	920b      	str	r2, [sp, #44]	; 0x2c
 8007e84:	960a      	str	r6, [sp, #40]	; 0x28
 8007e86:	9f0a      	ldr	r7, [sp, #40]	; 0x28
 8007e88:	4c1c      	ldr	r4, [pc, #112]	; (8007efc <Codec_WriteRegister.4974+0x354>)
 8007e8a:	2f00      	cmp	r7, #0
 8007e8c:	d02b      	beq.n	8007ee6 <Codec_WriteRegister.4974+0x33e>
 8007e8e:	9f0b      	ldr	r7, [sp, #44]	; 0x2c
 8007e90:	3714      	adds	r7, #20
 8007e92:	970b      	str	r7, [sp, #44]	; 0x2c
 8007e94:	9f0b      	ldr	r7, [sp, #44]	; 0x2c
 8007e96:	683f      	ldr	r7, [r7, #0]
 8007e98:	067f      	lsls	r7, r7, #25
 8007e9a:	d529      	bpl.n	8007ef0 <Codec_WriteRegister.4974+0x348>
 8007e9c:	8a25      	ldrh	r5, [r4, #16]
 8007e9e:	f44f 5280 	mov.w	r2, #4096	; 0x1000
 8007ea2:	b2ad      	uxth	r5, r5
 8007ea4:	601a      	str	r2, [r3, #0]
 8007ea6:	e005      	b.n	8007eb4 <Codec_WriteRegister.4974+0x30c>
 8007ea8:	681a      	ldr	r2, [r3, #0]
 8007eaa:	1e56      	subs	r6, r2, #1
 8007eac:	601e      	str	r6, [r3, #0]
 8007eae:	2a00      	cmp	r2, #0
 8007eb0:	f43f af41 	beq.w	8007d36 <Codec_WriteRegister.4974+0x18e>
 8007eb4:	8826      	ldrh	r6, [r4, #0]
 8007eb6:	4a11      	ldr	r2, [pc, #68]	; (8007efc <Codec_WriteRegister.4974+0x354>)
 8007eb8:	05b6      	lsls	r6, r6, #22
 8007eba:	d4f5      	bmi.n	8007ea8 <Codec_WriteRegister.4974+0x300>
 8007ebc:	8814      	ldrh	r4, [r2, #0]
 8007ebe:	b2a4      	uxth	r4, r4
 8007ec0:	f444 6480 	orr.w	r4, r4, #1024	; 0x400
 8007ec4:	f64f 33ff 	movw	r3, #64511	; 0xfbff
 8007ec8:	8014      	strh	r4, [r2, #0]
 8007eca:	b2e8      	uxtb	r0, r5
 8007ecc:	8293      	strh	r3, [r2, #20]
 8007ece:	e732      	b.n	8007d36 <Codec_WriteRegister.4974+0x18e>
 8007ed0:	9a09      	ldr	r2, [sp, #36]	; 0x24
 8007ed2:	3218      	adds	r2, #24
 8007ed4:	9209      	str	r2, [sp, #36]	; 0x24
 8007ed6:	9a09      	ldr	r2, [sp, #36]	; 0x24
 8007ed8:	6812      	ldr	r2, [r2, #0]
 8007eda:	681a      	ldr	r2, [r3, #0]
 8007edc:	1e55      	subs	r5, r2, #1
 8007ede:	601d      	str	r5, [r3, #0]
 8007ee0:	2a00      	cmp	r2, #0
 8007ee2:	d1ac      	bne.n	8007e3e <Codec_WriteRegister.4974+0x296>
 8007ee4:	e727      	b.n	8007d36 <Codec_WriteRegister.4974+0x18e>
 8007ee6:	9c0b      	ldr	r4, [sp, #44]	; 0x2c
 8007ee8:	3418      	adds	r4, #24
 8007eea:	940b      	str	r4, [sp, #44]	; 0x2c
 8007eec:	9c0b      	ldr	r4, [sp, #44]	; 0x2c
 8007eee:	6824      	ldr	r4, [r4, #0]
 8007ef0:	681c      	ldr	r4, [r3, #0]
 8007ef2:	1e67      	subs	r7, r4, #1
 8007ef4:	601f      	str	r7, [r3, #0]
 8007ef6:	2c00      	cmp	r4, #0
 8007ef8:	d1c1      	bne.n	8007e7e <Codec_WriteRegister.4974+0x2d6>
 8007efa:	e71c      	b.n	8007d36 <Codec_WriteRegister.4974+0x18e>
 8007efc:	40005400 	.word	0x40005400

08007f00 <USB_OTG_USBH_handle_hc_n_Out_ISR.8127>:
USB_OTG_USBH_handle_hc_n_Out_ISR.8127():
 8007f00:	b480      	push	{r7}
 8007f02:	b0d7      	sub	sp, #348	; 0x15c
 8007f04:	af00      	add	r7, sp, #0
 8007f06:	1d3b      	adds	r3, r7, #4
 8007f08:	6018      	str	r0, [r3, #0]
 8007f0a:	463b      	mov	r3, r7
 8007f0c:	6019      	str	r1, [r3, #0]
 8007f0e:	1d3b      	adds	r3, r7, #4
 8007f10:	681a      	ldr	r2, [r3, #0]
 8007f12:	463b      	mov	r3, r7
 8007f14:	681b      	ldr	r3, [r3, #0]
 8007f16:	3322      	adds	r3, #34	; 0x22
 8007f18:	009b      	lsls	r3, r3, #2
 8007f1a:	4413      	add	r3, r2
 8007f1c:	689b      	ldr	r3, [r3, #8]
 8007f1e:	f8c7 3154 	str.w	r3, [r7, #340]	; 0x154
 8007f22:	f8d7 3154 	ldr.w	r3, [r7, #340]	; 0x154
 8007f26:	689b      	ldr	r3, [r3, #8]
 8007f28:	f8c7 3110 	str.w	r3, [r7, #272]	; 0x110
 8007f2c:	f8d7 3154 	ldr.w	r3, [r7, #340]	; 0x154
 8007f30:	68db      	ldr	r3, [r3, #12]
 8007f32:	f8c7 310c 	str.w	r3, [r7, #268]	; 0x10c
 8007f36:	f8d7 2110 	ldr.w	r2, [r7, #272]	; 0x110
 8007f3a:	f8d7 310c 	ldr.w	r3, [r7, #268]	; 0x10c
 8007f3e:	4013      	ands	r3, r2
 8007f40:	f8c7 3110 	str.w	r3, [r7, #272]	; 0x110
 8007f44:	1d3b      	adds	r3, r7, #4
 8007f46:	681a      	ldr	r2, [r3, #0]
 8007f48:	463b      	mov	r3, r7
 8007f4a:	681b      	ldr	r3, [r3, #0]
 8007f4c:	3322      	adds	r3, #34	; 0x22
 8007f4e:	009b      	lsls	r3, r3, #2
 8007f50:	4413      	add	r3, r2
 8007f52:	689b      	ldr	r3, [r3, #8]
 8007f54:	681b      	ldr	r3, [r3, #0]
 8007f56:	f8c7 3108 	str.w	r3, [r7, #264]	; 0x108
 8007f5a:	f897 3110 	ldrb.w	r3, [r7, #272]	; 0x110
 8007f5e:	f3c3 0380 	ubfx	r3, r3, #2, #1
 8007f62:	b2db      	uxtb	r3, r3
 8007f64:	2b00      	cmp	r3, #0
 8007f66:	d02f      	beq.n	8007fc8 <USB_OTG_USBH_handle_hc_n_Out_ISR.8127+0xc8>
 8007f68:	f107 0308 	add.w	r3, r7, #8
 8007f6c:	2200      	movs	r2, #0
 8007f6e:	601a      	str	r2, [r3, #0]
 8007f70:	f107 0208 	add.w	r2, r7, #8
 8007f74:	7813      	ldrb	r3, [r2, #0]
 8007f76:	f043 0304 	orr.w	r3, r3, #4
 8007f7a:	7013      	strb	r3, [r2, #0]
 8007f7c:	f107 0308 	add.w	r3, r7, #8
 8007f80:	681a      	ldr	r2, [r3, #0]
 8007f82:	f8d7 3154 	ldr.w	r3, [r7, #340]	; 0x154
 8007f86:	609a      	str	r2, [r3, #8]
 8007f88:	1d3b      	adds	r3, r7, #4
 8007f8a:	681a      	ldr	r2, [r3, #0]
 8007f8c:	463b      	mov	r3, r7
 8007f8e:	681b      	ldr	r3, [r3, #0]
 8007f90:	3322      	adds	r3, #34	; 0x22
 8007f92:	009b      	lsls	r3, r3, #2
 8007f94:	4413      	add	r3, r2
 8007f96:	689b      	ldr	r3, [r3, #8]
 8007f98:	68da      	ldr	r2, [r3, #12]
 8007f9a:	f107 030c 	add.w	r3, r7, #12
 8007f9e:	601a      	str	r2, [r3, #0]
 8007fa0:	f107 020c 	add.w	r2, r7, #12
 8007fa4:	7813      	ldrb	r3, [r2, #0]
 8007fa6:	f043 0302 	orr.w	r3, r3, #2
 8007faa:	7013      	strb	r3, [r2, #0]
 8007fac:	1d3b      	adds	r3, r7, #4
 8007fae:	681a      	ldr	r2, [r3, #0]
 8007fb0:	463b      	mov	r3, r7
 8007fb2:	681b      	ldr	r3, [r3, #0]
 8007fb4:	3322      	adds	r3, #34	; 0x22
 8007fb6:	009b      	lsls	r3, r3, #2
 8007fb8:	4413      	add	r3, r2
 8007fba:	689b      	ldr	r3, [r3, #8]
 8007fbc:	f107 020c 	add.w	r2, r7, #12
 8007fc0:	6812      	ldr	r2, [r2, #0]
 8007fc2:	60da      	str	r2, [r3, #12]
 8007fc4:	f000 bd32 	b.w	8008a2c <USB_OTG_USBH_handle_hc_n_Out_ISR.8127+0xb2c>
 8007fc8:	f897 3110 	ldrb.w	r3, [r7, #272]	; 0x110
 8007fcc:	f3c3 1340 	ubfx	r3, r3, #5, #1
 8007fd0:	b2db      	uxtb	r3, r3
 8007fd2:	2b00      	cmp	r3, #0
 8007fd4:	d011      	beq.n	8007ffa <USB_OTG_USBH_handle_hc_n_Out_ISR.8127+0xfa>
 8007fd6:	f107 0310 	add.w	r3, r7, #16
 8007fda:	2200      	movs	r2, #0
 8007fdc:	601a      	str	r2, [r3, #0]
 8007fde:	f107 0210 	add.w	r2, r7, #16
 8007fe2:	7813      	ldrb	r3, [r2, #0]
 8007fe4:	f043 0320 	orr.w	r3, r3, #32
 8007fe8:	7013      	strb	r3, [r2, #0]
 8007fea:	f107 0310 	add.w	r3, r7, #16
 8007fee:	681a      	ldr	r2, [r3, #0]
 8007ff0:	f8d7 3154 	ldr.w	r3, [r7, #340]	; 0x154
 8007ff4:	609a      	str	r2, [r3, #8]
 8007ff6:	f000 bd19 	b.w	8008a2c <USB_OTG_USBH_handle_hc_n_Out_ISR.8127+0xb2c>
 8007ffa:	f897 3111 	ldrb.w	r3, [r7, #273]	; 0x111
 8007ffe:	f3c3 0340 	ubfx	r3, r3, #1, #1
 8008002:	b2db      	uxtb	r3, r3
 8008004:	2b00      	cmp	r3, #0
 8008006:	d07d      	beq.n	8008104 <USB_OTG_USBH_handle_hc_n_Out_ISR.8127+0x204>
 8008008:	1d3b      	adds	r3, r7, #4
 800800a:	681a      	ldr	r2, [r3, #0]
 800800c:	463b      	mov	r3, r7
 800800e:	681b      	ldr	r3, [r3, #0]
 8008010:	3322      	adds	r3, #34	; 0x22
 8008012:	009b      	lsls	r3, r3, #2
 8008014:	4413      	add	r3, r2
 8008016:	689b      	ldr	r3, [r3, #8]
 8008018:	68da      	ldr	r2, [r3, #12]
 800801a:	f107 0314 	add.w	r3, r7, #20
 800801e:	601a      	str	r2, [r3, #0]
 8008020:	f107 0214 	add.w	r2, r7, #20
 8008024:	7813      	ldrb	r3, [r2, #0]
 8008026:	f043 0302 	orr.w	r3, r3, #2
 800802a:	7013      	strb	r3, [r2, #0]
 800802c:	1d3b      	adds	r3, r7, #4
 800802e:	681a      	ldr	r2, [r3, #0]
 8008030:	463b      	mov	r3, r7
 8008032:	681b      	ldr	r3, [r3, #0]
 8008034:	3322      	adds	r3, #34	; 0x22
 8008036:	009b      	lsls	r3, r3, #2
 8008038:	4413      	add	r3, r2
 800803a:	689b      	ldr	r3, [r3, #8]
 800803c:	f107 0214 	add.w	r2, r7, #20
 8008040:	6812      	ldr	r2, [r2, #0]
 8008042:	60da      	str	r2, [r3, #12]
 8008044:	463b      	mov	r3, r7
 8008046:	681b      	ldr	r3, [r3, #0]
 8008048:	b2db      	uxtb	r3, r3
 800804a:	1d3a      	adds	r2, r7, #4
 800804c:	6812      	ldr	r2, [r2, #0]
 800804e:	f8c7 2150 	str.w	r2, [r7, #336]	; 0x150
 8008052:	f887 314f 	strb.w	r3, [r7, #335]	; 0x14f
 8008056:	f897 314f 	ldrb.w	r3, [r7, #335]	; 0x14f
 800805a:	f8d7 2150 	ldr.w	r2, [r7, #336]	; 0x150
 800805e:	3322      	adds	r3, #34	; 0x22
 8008060:	009b      	lsls	r3, r3, #2
 8008062:	4413      	add	r3, r2
 8008064:	689a      	ldr	r2, [r3, #8]
 8008066:	6811      	ldr	r1, [r2, #0]
 8008068:	f107 0358 	add.w	r3, r7, #88	; 0x58
 800806c:	6019      	str	r1, [r3, #0]
 800806e:	f107 0158 	add.w	r1, r7, #88	; 0x58
 8008072:	78cb      	ldrb	r3, [r1, #3]
 8008074:	f043 0380 	orr.w	r3, r3, #128	; 0x80
 8008078:	70cb      	strb	r3, [r1, #3]
 800807a:	f107 0158 	add.w	r1, r7, #88	; 0x58
 800807e:	78cb      	ldrb	r3, [r1, #3]
 8008080:	f043 0340 	orr.w	r3, r3, #64	; 0x40
 8008084:	70cb      	strb	r3, [r1, #3]
 8008086:	f107 0358 	add.w	r3, r7, #88	; 0x58
 800808a:	789b      	ldrb	r3, [r3, #2]
 800808c:	f3c3 0381 	ubfx	r3, r3, #2, #2
 8008090:	b2db      	uxtb	r3, r3
 8008092:	2b00      	cmp	r3, #0
 8008094:	d001      	beq.n	800809a <USB_OTG_USBH_handle_hc_n_Out_ISR.8127+0x19a>
 8008096:	2b02      	cmp	r3, #2
 8008098:	d10f      	bne.n	80080ba <USB_OTG_USBH_handle_hc_n_Out_ISR.8127+0x1ba>
 800809a:	f8d7 3150 	ldr.w	r3, [r7, #336]	; 0x150
 800809e:	68db      	ldr	r3, [r3, #12]
 80080a0:	6adb      	ldr	r3, [r3, #44]	; 0x2c
 80080a2:	667b      	str	r3, [r7, #100]	; 0x64
 80080a4:	f897 3066 	ldrb.w	r3, [r7, #102]	; 0x66
 80080a8:	2b00      	cmp	r3, #0
 80080aa:	d115      	bne.n	80080d8 <USB_OTG_USBH_handle_hc_n_Out_ISR.8127+0x1d8>
 80080ac:	f107 0158 	add.w	r1, r7, #88	; 0x58
 80080b0:	78cb      	ldrb	r3, [r1, #3]
 80080b2:	f36f 13c7 	bfc	r3, #7, #1
 80080b6:	70cb      	strb	r3, [r1, #3]
 80080b8:	e00e      	b.n	80080d8 <USB_OTG_USBH_handle_hc_n_Out_ISR.8127+0x1d8>
 80080ba:	f8d7 3150 	ldr.w	r3, [r7, #336]	; 0x150
 80080be:	695b      	ldr	r3, [r3, #20]
 80080c0:	691b      	ldr	r3, [r3, #16]
 80080c2:	65fb      	str	r3, [r7, #92]	; 0x5c
 80080c4:	f897 305e 	ldrb.w	r3, [r7, #94]	; 0x5e
 80080c8:	2b00      	cmp	r3, #0
 80080ca:	d105      	bne.n	80080d8 <USB_OTG_USBH_handle_hc_n_Out_ISR.8127+0x1d8>
 80080cc:	f107 0158 	add.w	r1, r7, #88	; 0x58
 80080d0:	78cb      	ldrb	r3, [r1, #3]
 80080d2:	f36f 13c7 	bfc	r3, #7, #1
 80080d6:	70cb      	strb	r3, [r1, #3]
 80080d8:	f107 0358 	add.w	r3, r7, #88	; 0x58
 80080dc:	681b      	ldr	r3, [r3, #0]
 80080de:	6013      	str	r3, [r2, #0]
 80080e0:	f107 0318 	add.w	r3, r7, #24
 80080e4:	2200      	movs	r2, #0
 80080e6:	601a      	str	r2, [r3, #0]
 80080e8:	f107 0218 	add.w	r2, r7, #24
 80080ec:	7853      	ldrb	r3, [r2, #1]
 80080ee:	f043 0302 	orr.w	r3, r3, #2
 80080f2:	7053      	strb	r3, [r2, #1]
 80080f4:	f107 0318 	add.w	r3, r7, #24
 80080f8:	681a      	ldr	r2, [r3, #0]
 80080fa:	f8d7 3154 	ldr.w	r3, [r7, #340]	; 0x154
 80080fe:	609a      	str	r2, [r3, #8]
 8008100:	f000 bc94 	b.w	8008a2c <USB_OTG_USBH_handle_hc_n_Out_ISR.8127+0xb2c>
 8008104:	f897 3110 	ldrb.w	r3, [r7, #272]	; 0x110
 8008108:	f3c3 0300 	ubfx	r3, r3, #0, #1
 800810c:	b2db      	uxtb	r3, r3
 800810e:	2b00      	cmp	r3, #0
 8008110:	f000 808b 	beq.w	800822a <USB_OTG_USBH_handle_hc_n_Out_ISR.8127+0x32a>
 8008114:	1d3b      	adds	r3, r7, #4
 8008116:	681a      	ldr	r2, [r3, #0]
 8008118:	463b      	mov	r3, r7
 800811a:	681b      	ldr	r3, [r3, #0]
 800811c:	33c4      	adds	r3, #196	; 0xc4
 800811e:	009b      	lsls	r3, r3, #2
 8008120:	4413      	add	r3, r2
 8008122:	2200      	movs	r2, #0
 8008124:	605a      	str	r2, [r3, #4]
 8008126:	1d3b      	adds	r3, r7, #4
 8008128:	681a      	ldr	r2, [r3, #0]
 800812a:	463b      	mov	r3, r7
 800812c:	681b      	ldr	r3, [r3, #0]
 800812e:	3322      	adds	r3, #34	; 0x22
 8008130:	009b      	lsls	r3, r3, #2
 8008132:	4413      	add	r3, r2
 8008134:	689b      	ldr	r3, [r3, #8]
 8008136:	68da      	ldr	r2, [r3, #12]
 8008138:	f107 031c 	add.w	r3, r7, #28
 800813c:	601a      	str	r2, [r3, #0]
 800813e:	f107 021c 	add.w	r2, r7, #28
 8008142:	7813      	ldrb	r3, [r2, #0]
 8008144:	f043 0302 	orr.w	r3, r3, #2
 8008148:	7013      	strb	r3, [r2, #0]
 800814a:	1d3b      	adds	r3, r7, #4
 800814c:	681a      	ldr	r2, [r3, #0]
 800814e:	463b      	mov	r3, r7
 8008150:	681b      	ldr	r3, [r3, #0]
 8008152:	3322      	adds	r3, #34	; 0x22
 8008154:	009b      	lsls	r3, r3, #2
 8008156:	4413      	add	r3, r2
 8008158:	689b      	ldr	r3, [r3, #8]
 800815a:	f107 021c 	add.w	r2, r7, #28
 800815e:	6812      	ldr	r2, [r2, #0]
 8008160:	60da      	str	r2, [r3, #12]
 8008162:	463b      	mov	r3, r7
 8008164:	681b      	ldr	r3, [r3, #0]
 8008166:	b2db      	uxtb	r3, r3
 8008168:	1d3a      	adds	r2, r7, #4
 800816a:	6812      	ldr	r2, [r2, #0]
 800816c:	f8c7 2148 	str.w	r2, [r7, #328]	; 0x148
 8008170:	f887 3147 	strb.w	r3, [r7, #327]	; 0x147
 8008174:	f897 3147 	ldrb.w	r3, [r7, #327]	; 0x147
 8008178:	f8d7 2148 	ldr.w	r2, [r7, #328]	; 0x148
 800817c:	3322      	adds	r3, #34	; 0x22
 800817e:	009b      	lsls	r3, r3, #2
 8008180:	4413      	add	r3, r2
 8008182:	689a      	ldr	r2, [r3, #8]
 8008184:	6813      	ldr	r3, [r2, #0]
 8008186:	673b      	str	r3, [r7, #112]	; 0x70
 8008188:	f897 3073 	ldrb.w	r3, [r7, #115]	; 0x73
 800818c:	f043 0380 	orr.w	r3, r3, #128	; 0x80
 8008190:	f887 3073 	strb.w	r3, [r7, #115]	; 0x73
 8008194:	f897 3073 	ldrb.w	r3, [r7, #115]	; 0x73
 8008198:	f043 0340 	orr.w	r3, r3, #64	; 0x40
 800819c:	f887 3073 	strb.w	r3, [r7, #115]	; 0x73
 80081a0:	f897 3072 	ldrb.w	r3, [r7, #114]	; 0x72
 80081a4:	f3c3 0381 	ubfx	r3, r3, #2, #2
 80081a8:	b2db      	uxtb	r3, r3
 80081aa:	2b00      	cmp	r3, #0
 80081ac:	d001      	beq.n	80081b2 <USB_OTG_USBH_handle_hc_n_Out_ISR.8127+0x2b2>
 80081ae:	2b02      	cmp	r3, #2
 80081b0:	d10f      	bne.n	80081d2 <USB_OTG_USBH_handle_hc_n_Out_ISR.8127+0x2d2>
 80081b2:	f8d7 3148 	ldr.w	r3, [r7, #328]	; 0x148
 80081b6:	68db      	ldr	r3, [r3, #12]
 80081b8:	6adb      	ldr	r3, [r3, #44]	; 0x2c
 80081ba:	67fb      	str	r3, [r7, #124]	; 0x7c
 80081bc:	f897 307e 	ldrb.w	r3, [r7, #126]	; 0x7e
 80081c0:	2b00      	cmp	r3, #0
 80081c2:	d115      	bne.n	80081f0 <USB_OTG_USBH_handle_hc_n_Out_ISR.8127+0x2f0>
 80081c4:	f897 3073 	ldrb.w	r3, [r7, #115]	; 0x73
 80081c8:	f36f 13c7 	bfc	r3, #7, #1
 80081cc:	f887 3073 	strb.w	r3, [r7, #115]	; 0x73
 80081d0:	e00e      	b.n	80081f0 <USB_OTG_USBH_handle_hc_n_Out_ISR.8127+0x2f0>
 80081d2:	f8d7 3148 	ldr.w	r3, [r7, #328]	; 0x148
 80081d6:	695b      	ldr	r3, [r3, #20]
 80081d8:	691b      	ldr	r3, [r3, #16]
 80081da:	677b      	str	r3, [r7, #116]	; 0x74
 80081dc:	f897 3076 	ldrb.w	r3, [r7, #118]	; 0x76
 80081e0:	2b00      	cmp	r3, #0
 80081e2:	d105      	bne.n	80081f0 <USB_OTG_USBH_handle_hc_n_Out_ISR.8127+0x2f0>
 80081e4:	f897 3073 	ldrb.w	r3, [r7, #115]	; 0x73
 80081e8:	f36f 13c7 	bfc	r3, #7, #1
 80081ec:	f887 3073 	strb.w	r3, [r7, #115]	; 0x73
 80081f0:	6f3b      	ldr	r3, [r7, #112]	; 0x70
 80081f2:	6013      	str	r3, [r2, #0]
 80081f4:	f107 0320 	add.w	r3, r7, #32
 80081f8:	2200      	movs	r2, #0
 80081fa:	601a      	str	r2, [r3, #0]
 80081fc:	f107 0220 	add.w	r2, r7, #32
 8008200:	7813      	ldrb	r3, [r2, #0]
 8008202:	f043 0301 	orr.w	r3, r3, #1
 8008206:	7013      	strb	r3, [r2, #0]
 8008208:	f107 0320 	add.w	r3, r7, #32
 800820c:	681a      	ldr	r2, [r3, #0]
 800820e:	f8d7 3154 	ldr.w	r3, [r7, #340]	; 0x154
 8008212:	609a      	str	r2, [r3, #8]
 8008214:	1d3b      	adds	r3, r7, #4
 8008216:	681a      	ldr	r2, [r3, #0]
 8008218:	463b      	mov	r3, r7
 800821a:	681b      	ldr	r3, [r3, #0]
 800821c:	4413      	add	r3, r2
 800821e:	f503 7362 	add.w	r3, r3, #904	; 0x388
 8008222:	2201      	movs	r2, #1
 8008224:	711a      	strb	r2, [r3, #4]
 8008226:	f000 bc01 	b.w	8008a2c <USB_OTG_USBH_handle_hc_n_Out_ISR.8127+0xb2c>
 800822a:	f897 3110 	ldrb.w	r3, [r7, #272]	; 0x110
 800822e:	f3c3 03c0 	ubfx	r3, r3, #3, #1
 8008232:	b2db      	uxtb	r3, r3
 8008234:	2b00      	cmp	r3, #0
 8008236:	f000 8085 	beq.w	8008344 <USB_OTG_USBH_handle_hc_n_Out_ISR.8127+0x444>
 800823a:	f107 0324 	add.w	r3, r7, #36	; 0x24
 800823e:	2200      	movs	r2, #0
 8008240:	601a      	str	r2, [r3, #0]
 8008242:	f107 0224 	add.w	r2, r7, #36	; 0x24
 8008246:	7813      	ldrb	r3, [r2, #0]
 8008248:	f043 0308 	orr.w	r3, r3, #8
 800824c:	7013      	strb	r3, [r2, #0]
 800824e:	f107 0324 	add.w	r3, r7, #36	; 0x24
 8008252:	681a      	ldr	r2, [r3, #0]
 8008254:	f8d7 3154 	ldr.w	r3, [r7, #340]	; 0x154
 8008258:	609a      	str	r2, [r3, #8]
 800825a:	1d3b      	adds	r3, r7, #4
 800825c:	681a      	ldr	r2, [r3, #0]
 800825e:	463b      	mov	r3, r7
 8008260:	681b      	ldr	r3, [r3, #0]
 8008262:	3322      	adds	r3, #34	; 0x22
 8008264:	009b      	lsls	r3, r3, #2
 8008266:	4413      	add	r3, r2
 8008268:	689b      	ldr	r3, [r3, #8]
 800826a:	68da      	ldr	r2, [r3, #12]
 800826c:	f107 0328 	add.w	r3, r7, #40	; 0x28
 8008270:	601a      	str	r2, [r3, #0]
 8008272:	f107 0228 	add.w	r2, r7, #40	; 0x28
 8008276:	7813      	ldrb	r3, [r2, #0]
 8008278:	f043 0302 	orr.w	r3, r3, #2
 800827c:	7013      	strb	r3, [r2, #0]
 800827e:	1d3b      	adds	r3, r7, #4
 8008280:	681a      	ldr	r2, [r3, #0]
 8008282:	463b      	mov	r3, r7
 8008284:	681b      	ldr	r3, [r3, #0]
 8008286:	3322      	adds	r3, #34	; 0x22
 8008288:	009b      	lsls	r3, r3, #2
 800828a:	4413      	add	r3, r2
 800828c:	689b      	ldr	r3, [r3, #8]
 800828e:	f107 0228 	add.w	r2, r7, #40	; 0x28
 8008292:	6812      	ldr	r2, [r2, #0]
 8008294:	60da      	str	r2, [r3, #12]
 8008296:	463b      	mov	r3, r7
 8008298:	681b      	ldr	r3, [r3, #0]
 800829a:	b2db      	uxtb	r3, r3
 800829c:	1d3a      	adds	r2, r7, #4
 800829e:	6812      	ldr	r2, [r2, #0]
 80082a0:	f8c7 2140 	str.w	r2, [r7, #320]	; 0x140
 80082a4:	f887 313f 	strb.w	r3, [r7, #319]	; 0x13f
 80082a8:	f897 313f 	ldrb.w	r3, [r7, #319]	; 0x13f
 80082ac:	f8d7 2140 	ldr.w	r2, [r7, #320]	; 0x140
 80082b0:	3322      	adds	r3, #34	; 0x22
 80082b2:	009b      	lsls	r3, r3, #2
 80082b4:	4413      	add	r3, r2
 80082b6:	689a      	ldr	r2, [r3, #8]
 80082b8:	6813      	ldr	r3, [r2, #0]
 80082ba:	f8c7 3088 	str.w	r3, [r7, #136]	; 0x88
 80082be:	f897 308b 	ldrb.w	r3, [r7, #139]	; 0x8b
 80082c2:	f043 0380 	orr.w	r3, r3, #128	; 0x80
 80082c6:	f887 308b 	strb.w	r3, [r7, #139]	; 0x8b
 80082ca:	f897 308b 	ldrb.w	r3, [r7, #139]	; 0x8b
 80082ce:	f043 0340 	orr.w	r3, r3, #64	; 0x40
 80082d2:	f887 308b 	strb.w	r3, [r7, #139]	; 0x8b
 80082d6:	f897 308a 	ldrb.w	r3, [r7, #138]	; 0x8a
 80082da:	f3c3 0381 	ubfx	r3, r3, #2, #2
 80082de:	b2db      	uxtb	r3, r3
 80082e0:	2b00      	cmp	r3, #0
 80082e2:	d001      	beq.n	80082e8 <USB_OTG_USBH_handle_hc_n_Out_ISR.8127+0x3e8>
 80082e4:	2b02      	cmp	r3, #2
 80082e6:	d110      	bne.n	800830a <USB_OTG_USBH_handle_hc_n_Out_ISR.8127+0x40a>
 80082e8:	f8d7 3140 	ldr.w	r3, [r7, #320]	; 0x140
 80082ec:	68db      	ldr	r3, [r3, #12]
 80082ee:	6adb      	ldr	r3, [r3, #44]	; 0x2c
 80082f0:	f8c7 3094 	str.w	r3, [r7, #148]	; 0x94
 80082f4:	f897 3096 	ldrb.w	r3, [r7, #150]	; 0x96
 80082f8:	2b00      	cmp	r3, #0
 80082fa:	d116      	bne.n	800832a <USB_OTG_USBH_handle_hc_n_Out_ISR.8127+0x42a>
 80082fc:	f897 308b 	ldrb.w	r3, [r7, #139]	; 0x8b
 8008300:	f36f 13c7 	bfc	r3, #7, #1
 8008304:	f887 308b 	strb.w	r3, [r7, #139]	; 0x8b
 8008308:	e00f      	b.n	800832a <USB_OTG_USBH_handle_hc_n_Out_ISR.8127+0x42a>
 800830a:	f8d7 3140 	ldr.w	r3, [r7, #320]	; 0x140
 800830e:	695b      	ldr	r3, [r3, #20]
 8008310:	691b      	ldr	r3, [r3, #16]
 8008312:	f8c7 308c 	str.w	r3, [r7, #140]	; 0x8c
 8008316:	f897 308e 	ldrb.w	r3, [r7, #142]	; 0x8e
 800831a:	2b00      	cmp	r3, #0
 800831c:	d105      	bne.n	800832a <USB_OTG_USBH_handle_hc_n_Out_ISR.8127+0x42a>
 800831e:	f897 308b 	ldrb.w	r3, [r7, #139]	; 0x8b
 8008322:	f36f 13c7 	bfc	r3, #7, #1
 8008326:	f887 308b 	strb.w	r3, [r7, #139]	; 0x8b
 800832a:	f8d7 3088 	ldr.w	r3, [r7, #136]	; 0x88
 800832e:	6013      	str	r3, [r2, #0]
 8008330:	1d3b      	adds	r3, r7, #4
 8008332:	681a      	ldr	r2, [r3, #0]
 8008334:	463b      	mov	r3, r7
 8008336:	681b      	ldr	r3, [r3, #0]
 8008338:	4413      	add	r3, r2
 800833a:	f503 7362 	add.w	r3, r3, #904	; 0x388
 800833e:	2205      	movs	r2, #5
 8008340:	711a      	strb	r2, [r3, #4]
 8008342:	e373      	b.n	8008a2c <USB_OTG_USBH_handle_hc_n_Out_ISR.8127+0xb2c>
 8008344:	f897 3110 	ldrb.w	r3, [r7, #272]	; 0x110
 8008348:	f3c3 1300 	ubfx	r3, r3, #4, #1
 800834c:	b2db      	uxtb	r3, r3
 800834e:	2b00      	cmp	r3, #0
 8008350:	f000 808e 	beq.w	8008470 <USB_OTG_USBH_handle_hc_n_Out_ISR.8127+0x570>
 8008354:	1d3b      	adds	r3, r7, #4
 8008356:	681a      	ldr	r2, [r3, #0]
 8008358:	463b      	mov	r3, r7
 800835a:	681b      	ldr	r3, [r3, #0]
 800835c:	33c4      	adds	r3, #196	; 0xc4
 800835e:	009b      	lsls	r3, r3, #2
 8008360:	4413      	add	r3, r2
 8008362:	2200      	movs	r2, #0
 8008364:	605a      	str	r2, [r3, #4]
 8008366:	1d3b      	adds	r3, r7, #4
 8008368:	681a      	ldr	r2, [r3, #0]
 800836a:	463b      	mov	r3, r7
 800836c:	681b      	ldr	r3, [r3, #0]
 800836e:	3322      	adds	r3, #34	; 0x22
 8008370:	009b      	lsls	r3, r3, #2
 8008372:	4413      	add	r3, r2
 8008374:	689b      	ldr	r3, [r3, #8]
 8008376:	68da      	ldr	r2, [r3, #12]
 8008378:	f107 032c 	add.w	r3, r7, #44	; 0x2c
 800837c:	601a      	str	r2, [r3, #0]
 800837e:	f107 022c 	add.w	r2, r7, #44	; 0x2c
 8008382:	7813      	ldrb	r3, [r2, #0]
 8008384:	f043 0302 	orr.w	r3, r3, #2
 8008388:	7013      	strb	r3, [r2, #0]
 800838a:	1d3b      	adds	r3, r7, #4
 800838c:	681a      	ldr	r2, [r3, #0]
 800838e:	463b      	mov	r3, r7
 8008390:	681b      	ldr	r3, [r3, #0]
 8008392:	3322      	adds	r3, #34	; 0x22
 8008394:	009b      	lsls	r3, r3, #2
 8008396:	4413      	add	r3, r2
 8008398:	689b      	ldr	r3, [r3, #8]
 800839a:	f107 022c 	add.w	r2, r7, #44	; 0x2c
 800839e:	6812      	ldr	r2, [r2, #0]
 80083a0:	60da      	str	r2, [r3, #12]
 80083a2:	463b      	mov	r3, r7
 80083a4:	681b      	ldr	r3, [r3, #0]
 80083a6:	b2db      	uxtb	r3, r3
 80083a8:	1d3a      	adds	r2, r7, #4
 80083aa:	6812      	ldr	r2, [r2, #0]
 80083ac:	f8c7 2138 	str.w	r2, [r7, #312]	; 0x138
 80083b0:	f887 3137 	strb.w	r3, [r7, #311]	; 0x137
 80083b4:	f897 3137 	ldrb.w	r3, [r7, #311]	; 0x137
 80083b8:	f8d7 2138 	ldr.w	r2, [r7, #312]	; 0x138
 80083bc:	3322      	adds	r3, #34	; 0x22
 80083be:	009b      	lsls	r3, r3, #2
 80083c0:	4413      	add	r3, r2
 80083c2:	689a      	ldr	r2, [r3, #8]
 80083c4:	6813      	ldr	r3, [r2, #0]
 80083c6:	f8c7 30a0 	str.w	r3, [r7, #160]	; 0xa0
 80083ca:	f897 30a3 	ldrb.w	r3, [r7, #163]	; 0xa3
 80083ce:	f043 0380 	orr.w	r3, r3, #128	; 0x80
 80083d2:	f887 30a3 	strb.w	r3, [r7, #163]	; 0xa3
 80083d6:	f897 30a3 	ldrb.w	r3, [r7, #163]	; 0xa3
 80083da:	f043 0340 	orr.w	r3, r3, #64	; 0x40
 80083de:	f887 30a3 	strb.w	r3, [r7, #163]	; 0xa3
 80083e2:	f897 30a2 	ldrb.w	r3, [r7, #162]	; 0xa2
 80083e6:	f3c3 0381 	ubfx	r3, r3, #2, #2
 80083ea:	b2db      	uxtb	r3, r3
 80083ec:	2b00      	cmp	r3, #0
 80083ee:	d001      	beq.n	80083f4 <USB_OTG_USBH_handle_hc_n_Out_ISR.8127+0x4f4>
 80083f0:	2b02      	cmp	r3, #2
 80083f2:	d110      	bne.n	8008416 <USB_OTG_USBH_handle_hc_n_Out_ISR.8127+0x516>
 80083f4:	f8d7 3138 	ldr.w	r3, [r7, #312]	; 0x138
 80083f8:	68db      	ldr	r3, [r3, #12]
 80083fa:	6adb      	ldr	r3, [r3, #44]	; 0x2c
 80083fc:	f8c7 30ac 	str.w	r3, [r7, #172]	; 0xac
 8008400:	f897 30ae 	ldrb.w	r3, [r7, #174]	; 0xae
 8008404:	2b00      	cmp	r3, #0
 8008406:	d116      	bne.n	8008436 <USB_OTG_USBH_handle_hc_n_Out_ISR.8127+0x536>
 8008408:	f897 30a3 	ldrb.w	r3, [r7, #163]	; 0xa3
 800840c:	f36f 13c7 	bfc	r3, #7, #1
 8008410:	f887 30a3 	strb.w	r3, [r7, #163]	; 0xa3
 8008414:	e00f      	b.n	8008436 <USB_OTG_USBH_handle_hc_n_Out_ISR.8127+0x536>
 8008416:	f8d7 3138 	ldr.w	r3, [r7, #312]	; 0x138
 800841a:	695b      	ldr	r3, [r3, #20]
 800841c:	691b      	ldr	r3, [r3, #16]
 800841e:	f8c7 30a4 	str.w	r3, [r7, #164]	; 0xa4
 8008422:	f897 30a6 	ldrb.w	r3, [r7, #166]	; 0xa6
 8008426:	2b00      	cmp	r3, #0
 8008428:	d105      	bne.n	8008436 <USB_OTG_USBH_handle_hc_n_Out_ISR.8127+0x536>
 800842a:	f897 30a3 	ldrb.w	r3, [r7, #163]	; 0xa3
 800842e:	f36f 13c7 	bfc	r3, #7, #1
 8008432:	f887 30a3 	strb.w	r3, [r7, #163]	; 0xa3
 8008436:	f8d7 30a0 	ldr.w	r3, [r7, #160]	; 0xa0
 800843a:	6013      	str	r3, [r2, #0]
 800843c:	f107 0330 	add.w	r3, r7, #48	; 0x30
 8008440:	2200      	movs	r2, #0
 8008442:	601a      	str	r2, [r3, #0]
 8008444:	f107 0230 	add.w	r2, r7, #48	; 0x30
 8008448:	7813      	ldrb	r3, [r2, #0]
 800844a:	f043 0310 	orr.w	r3, r3, #16
 800844e:	7013      	strb	r3, [r2, #0]
 8008450:	f107 0330 	add.w	r3, r7, #48	; 0x30
 8008454:	681a      	ldr	r2, [r3, #0]
 8008456:	f8d7 3154 	ldr.w	r3, [r7, #340]	; 0x154
 800845a:	609a      	str	r2, [r3, #8]
 800845c:	1d3b      	adds	r3, r7, #4
 800845e:	681a      	ldr	r2, [r3, #0]
 8008460:	463b      	mov	r3, r7
 8008462:	681b      	ldr	r3, [r3, #0]
 8008464:	4413      	add	r3, r2
 8008466:	f503 7362 	add.w	r3, r3, #904	; 0x388
 800846a:	2203      	movs	r2, #3
 800846c:	711a      	strb	r2, [r3, #4]
 800846e:	e2dd      	b.n	8008a2c <USB_OTG_USBH_handle_hc_n_Out_ISR.8127+0xb2c>
 8008470:	f897 3110 	ldrb.w	r3, [r7, #272]	; 0x110
 8008474:	f3c3 13c0 	ubfx	r3, r3, #7, #1
 8008478:	b2db      	uxtb	r3, r3
 800847a:	2b00      	cmp	r3, #0
 800847c:	f000 8096 	beq.w	80085ac <USB_OTG_USBH_handle_hc_n_Out_ISR.8127+0x6ac>
 8008480:	1d3b      	adds	r3, r7, #4
 8008482:	681a      	ldr	r2, [r3, #0]
 8008484:	463b      	mov	r3, r7
 8008486:	681b      	ldr	r3, [r3, #0]
 8008488:	3322      	adds	r3, #34	; 0x22
 800848a:	009b      	lsls	r3, r3, #2
 800848c:	4413      	add	r3, r2
 800848e:	689b      	ldr	r3, [r3, #8]
 8008490:	68da      	ldr	r2, [r3, #12]
 8008492:	f107 0334 	add.w	r3, r7, #52	; 0x34
 8008496:	601a      	str	r2, [r3, #0]
 8008498:	f107 0234 	add.w	r2, r7, #52	; 0x34
 800849c:	7813      	ldrb	r3, [r2, #0]
 800849e:	f043 0302 	orr.w	r3, r3, #2
 80084a2:	7013      	strb	r3, [r2, #0]
 80084a4:	1d3b      	adds	r3, r7, #4
 80084a6:	681a      	ldr	r2, [r3, #0]
 80084a8:	463b      	mov	r3, r7
 80084aa:	681b      	ldr	r3, [r3, #0]
 80084ac:	3322      	adds	r3, #34	; 0x22
 80084ae:	009b      	lsls	r3, r3, #2
 80084b0:	4413      	add	r3, r2
 80084b2:	689b      	ldr	r3, [r3, #8]
 80084b4:	f107 0234 	add.w	r2, r7, #52	; 0x34
 80084b8:	6812      	ldr	r2, [r2, #0]
 80084ba:	60da      	str	r2, [r3, #12]
 80084bc:	463b      	mov	r3, r7
 80084be:	681b      	ldr	r3, [r3, #0]
 80084c0:	b2db      	uxtb	r3, r3
 80084c2:	1d3a      	adds	r2, r7, #4
 80084c4:	6812      	ldr	r2, [r2, #0]
 80084c6:	f8c7 2130 	str.w	r2, [r7, #304]	; 0x130
 80084ca:	f887 312f 	strb.w	r3, [r7, #303]	; 0x12f
 80084ce:	f897 312f 	ldrb.w	r3, [r7, #303]	; 0x12f
 80084d2:	f8d7 2130 	ldr.w	r2, [r7, #304]	; 0x130
 80084d6:	3322      	adds	r3, #34	; 0x22
 80084d8:	009b      	lsls	r3, r3, #2
 80084da:	4413      	add	r3, r2
 80084dc:	689a      	ldr	r2, [r3, #8]
 80084de:	6813      	ldr	r3, [r2, #0]
 80084e0:	f8c7 30b8 	str.w	r3, [r7, #184]	; 0xb8
 80084e4:	f897 30bb 	ldrb.w	r3, [r7, #187]	; 0xbb
 80084e8:	f043 0380 	orr.w	r3, r3, #128	; 0x80
 80084ec:	f887 30bb 	strb.w	r3, [r7, #187]	; 0xbb
 80084f0:	f897 30bb 	ldrb.w	r3, [r7, #187]	; 0xbb
 80084f4:	f043 0340 	orr.w	r3, r3, #64	; 0x40
 80084f8:	f887 30bb 	strb.w	r3, [r7, #187]	; 0xbb
 80084fc:	f897 30ba 	ldrb.w	r3, [r7, #186]	; 0xba
 8008500:	f3c3 0381 	ubfx	r3, r3, #2, #2
 8008504:	b2db      	uxtb	r3, r3
 8008506:	2b00      	cmp	r3, #0
 8008508:	d001      	beq.n	800850e <USB_OTG_USBH_handle_hc_n_Out_ISR.8127+0x60e>
 800850a:	2b02      	cmp	r3, #2
 800850c:	d110      	bne.n	8008530 <USB_OTG_USBH_handle_hc_n_Out_ISR.8127+0x630>
 800850e:	f8d7 3130 	ldr.w	r3, [r7, #304]	; 0x130
 8008512:	68db      	ldr	r3, [r3, #12]
 8008514:	6adb      	ldr	r3, [r3, #44]	; 0x2c
 8008516:	f8c7 30c4 	str.w	r3, [r7, #196]	; 0xc4
 800851a:	f897 30c6 	ldrb.w	r3, [r7, #198]	; 0xc6
 800851e:	2b00      	cmp	r3, #0
 8008520:	d116      	bne.n	8008550 <USB_OTG_USBH_handle_hc_n_Out_ISR.8127+0x650>
 8008522:	f897 30bb 	ldrb.w	r3, [r7, #187]	; 0xbb
 8008526:	f36f 13c7 	bfc	r3, #7, #1
 800852a:	f887 30bb 	strb.w	r3, [r7, #187]	; 0xbb
 800852e:	e00f      	b.n	8008550 <USB_OTG_USBH_handle_hc_n_Out_ISR.8127+0x650>
 8008530:	f8d7 3130 	ldr.w	r3, [r7, #304]	; 0x130
 8008534:	695b      	ldr	r3, [r3, #20]
 8008536:	691b      	ldr	r3, [r3, #16]
 8008538:	f8c7 30bc 	str.w	r3, [r7, #188]	; 0xbc
 800853c:	f897 30be 	ldrb.w	r3, [r7, #190]	; 0xbe
 8008540:	2b00      	cmp	r3, #0
 8008542:	d105      	bne.n	8008550 <USB_OTG_USBH_handle_hc_n_Out_ISR.8127+0x650>
 8008544:	f897 30bb 	ldrb.w	r3, [r7, #187]	; 0xbb
 8008548:	f36f 13c7 	bfc	r3, #7, #1
 800854c:	f887 30bb 	strb.w	r3, [r7, #187]	; 0xbb
 8008550:	f8d7 30b8 	ldr.w	r3, [r7, #184]	; 0xb8
 8008554:	6013      	str	r3, [r2, #0]
 8008556:	1d3b      	adds	r3, r7, #4
 8008558:	681a      	ldr	r2, [r3, #0]
 800855a:	463b      	mov	r3, r7
 800855c:	681b      	ldr	r3, [r3, #0]
 800855e:	33c4      	adds	r3, #196	; 0xc4
 8008560:	009b      	lsls	r3, r3, #2
 8008562:	4413      	add	r3, r2
 8008564:	685b      	ldr	r3, [r3, #4]
 8008566:	1c5a      	adds	r2, r3, #1
 8008568:	1d3b      	adds	r3, r7, #4
 800856a:	6819      	ldr	r1, [r3, #0]
 800856c:	463b      	mov	r3, r7
 800856e:	681b      	ldr	r3, [r3, #0]
 8008570:	33c4      	adds	r3, #196	; 0xc4
 8008572:	009b      	lsls	r3, r3, #2
 8008574:	440b      	add	r3, r1
 8008576:	605a      	str	r2, [r3, #4]
 8008578:	1d3b      	adds	r3, r7, #4
 800857a:	681a      	ldr	r2, [r3, #0]
 800857c:	463b      	mov	r3, r7
 800857e:	681b      	ldr	r3, [r3, #0]
 8008580:	4413      	add	r3, r2
 8008582:	f503 7362 	add.w	r3, r3, #904	; 0x388
 8008586:	2206      	movs	r2, #6
 8008588:	711a      	strb	r2, [r3, #4]
 800858a:	f107 0338 	add.w	r3, r7, #56	; 0x38
 800858e:	2200      	movs	r2, #0
 8008590:	601a      	str	r2, [r3, #0]
 8008592:	f107 0238 	add.w	r2, r7, #56	; 0x38
 8008596:	7813      	ldrb	r3, [r2, #0]
 8008598:	f043 0380 	orr.w	r3, r3, #128	; 0x80
 800859c:	7013      	strb	r3, [r2, #0]
 800859e:	f107 0338 	add.w	r3, r7, #56	; 0x38
 80085a2:	681a      	ldr	r2, [r3, #0]
 80085a4:	f8d7 3154 	ldr.w	r3, [r7, #340]	; 0x154
 80085a8:	609a      	str	r2, [r3, #8]
 80085aa:	e23f      	b.n	8008a2c <USB_OTG_USBH_handle_hc_n_Out_ISR.8127+0xb2c>
 80085ac:	f897 3110 	ldrb.w	r3, [r7, #272]	; 0x110
 80085b0:	f3c3 1380 	ubfx	r3, r3, #6, #1
 80085b4:	b2db      	uxtb	r3, r3
 80085b6:	2b00      	cmp	r3, #0
 80085b8:	f000 808e 	beq.w	80086d8 <USB_OTG_USBH_handle_hc_n_Out_ISR.8127+0x7d8>
 80085bc:	1d3b      	adds	r3, r7, #4
 80085be:	681a      	ldr	r2, [r3, #0]
 80085c0:	463b      	mov	r3, r7
 80085c2:	681b      	ldr	r3, [r3, #0]
 80085c4:	33c4      	adds	r3, #196	; 0xc4
 80085c6:	009b      	lsls	r3, r3, #2
 80085c8:	4413      	add	r3, r2
 80085ca:	2200      	movs	r2, #0
 80085cc:	605a      	str	r2, [r3, #4]
 80085ce:	1d3b      	adds	r3, r7, #4
 80085d0:	681a      	ldr	r2, [r3, #0]
 80085d2:	463b      	mov	r3, r7
 80085d4:	681b      	ldr	r3, [r3, #0]
 80085d6:	3322      	adds	r3, #34	; 0x22
 80085d8:	009b      	lsls	r3, r3, #2
 80085da:	4413      	add	r3, r2
 80085dc:	689b      	ldr	r3, [r3, #8]
 80085de:	68da      	ldr	r2, [r3, #12]
 80085e0:	f107 033c 	add.w	r3, r7, #60	; 0x3c
 80085e4:	601a      	str	r2, [r3, #0]
 80085e6:	f107 023c 	add.w	r2, r7, #60	; 0x3c
 80085ea:	7813      	ldrb	r3, [r2, #0]
 80085ec:	f043 0302 	orr.w	r3, r3, #2
 80085f0:	7013      	strb	r3, [r2, #0]
 80085f2:	1d3b      	adds	r3, r7, #4
 80085f4:	681a      	ldr	r2, [r3, #0]
 80085f6:	463b      	mov	r3, r7
 80085f8:	681b      	ldr	r3, [r3, #0]
 80085fa:	3322      	adds	r3, #34	; 0x22
 80085fc:	009b      	lsls	r3, r3, #2
 80085fe:	4413      	add	r3, r2
 8008600:	689b      	ldr	r3, [r3, #8]
 8008602:	f107 023c 	add.w	r2, r7, #60	; 0x3c
 8008606:	6812      	ldr	r2, [r2, #0]
 8008608:	60da      	str	r2, [r3, #12]
 800860a:	463b      	mov	r3, r7
 800860c:	681b      	ldr	r3, [r3, #0]
 800860e:	b2db      	uxtb	r3, r3
 8008610:	1d3a      	adds	r2, r7, #4
 8008612:	6812      	ldr	r2, [r2, #0]
 8008614:	f8c7 2128 	str.w	r2, [r7, #296]	; 0x128
 8008618:	f887 3127 	strb.w	r3, [r7, #295]	; 0x127
 800861c:	f897 3127 	ldrb.w	r3, [r7, #295]	; 0x127
 8008620:	f8d7 2128 	ldr.w	r2, [r7, #296]	; 0x128
 8008624:	3322      	adds	r3, #34	; 0x22
 8008626:	009b      	lsls	r3, r3, #2
 8008628:	4413      	add	r3, r2
 800862a:	689a      	ldr	r2, [r3, #8]
 800862c:	6813      	ldr	r3, [r2, #0]
 800862e:	f8c7 30d0 	str.w	r3, [r7, #208]	; 0xd0
 8008632:	f897 30d3 	ldrb.w	r3, [r7, #211]	; 0xd3
 8008636:	f043 0380 	orr.w	r3, r3, #128	; 0x80
 800863a:	f887 30d3 	strb.w	r3, [r7, #211]	; 0xd3
 800863e:	f897 30d3 	ldrb.w	r3, [r7, #211]	; 0xd3
 8008642:	f043 0340 	orr.w	r3, r3, #64	; 0x40
 8008646:	f887 30d3 	strb.w	r3, [r7, #211]	; 0xd3
 800864a:	f897 30d2 	ldrb.w	r3, [r7, #210]	; 0xd2
 800864e:	f3c3 0381 	ubfx	r3, r3, #2, #2
 8008652:	b2db      	uxtb	r3, r3
 8008654:	2b00      	cmp	r3, #0
 8008656:	d001      	beq.n	800865c <USB_OTG_USBH_handle_hc_n_Out_ISR.8127+0x75c>
 8008658:	2b02      	cmp	r3, #2
 800865a:	d110      	bne.n	800867e <USB_OTG_USBH_handle_hc_n_Out_ISR.8127+0x77e>
 800865c:	f8d7 3128 	ldr.w	r3, [r7, #296]	; 0x128
 8008660:	68db      	ldr	r3, [r3, #12]
 8008662:	6adb      	ldr	r3, [r3, #44]	; 0x2c
 8008664:	f8c7 30dc 	str.w	r3, [r7, #220]	; 0xdc
 8008668:	f897 30de 	ldrb.w	r3, [r7, #222]	; 0xde
 800866c:	2b00      	cmp	r3, #0
 800866e:	d116      	bne.n	800869e <USB_OTG_USBH_handle_hc_n_Out_ISR.8127+0x79e>
 8008670:	f897 30d3 	ldrb.w	r3, [r7, #211]	; 0xd3
 8008674:	f36f 13c7 	bfc	r3, #7, #1
 8008678:	f887 30d3 	strb.w	r3, [r7, #211]	; 0xd3
 800867c:	e00f      	b.n	800869e <USB_OTG_USBH_handle_hc_n_Out_ISR.8127+0x79e>
 800867e:	f8d7 3128 	ldr.w	r3, [r7, #296]	; 0x128
 8008682:	695b      	ldr	r3, [r3, #20]
 8008684:	691b      	ldr	r3, [r3, #16]
 8008686:	f8c7 30d4 	str.w	r3, [r7, #212]	; 0xd4
 800868a:	f897 30d6 	ldrb.w	r3, [r7, #214]	; 0xd6
 800868e:	2b00      	cmp	r3, #0
 8008690:	d105      	bne.n	800869e <USB_OTG_USBH_handle_hc_n_Out_ISR.8127+0x79e>
 8008692:	f897 30d3 	ldrb.w	r3, [r7, #211]	; 0xd3
 8008696:	f36f 13c7 	bfc	r3, #7, #1
 800869a:	f887 30d3 	strb.w	r3, [r7, #211]	; 0xd3
 800869e:	f8d7 30d0 	ldr.w	r3, [r7, #208]	; 0xd0
 80086a2:	6013      	str	r3, [r2, #0]
 80086a4:	f107 0340 	add.w	r3, r7, #64	; 0x40
 80086a8:	2200      	movs	r2, #0
 80086aa:	601a      	str	r2, [r3, #0]
 80086ac:	f107 0240 	add.w	r2, r7, #64	; 0x40
 80086b0:	7813      	ldrb	r3, [r2, #0]
 80086b2:	f043 0340 	orr.w	r3, r3, #64	; 0x40
 80086b6:	7013      	strb	r3, [r2, #0]
 80086b8:	f107 0340 	add.w	r3, r7, #64	; 0x40
 80086bc:	681a      	ldr	r2, [r3, #0]
 80086be:	f8d7 3154 	ldr.w	r3, [r7, #340]	; 0x154
 80086c2:	609a      	str	r2, [r3, #8]
 80086c4:	1d3b      	adds	r3, r7, #4
 80086c6:	681a      	ldr	r2, [r3, #0]
 80086c8:	463b      	mov	r3, r7
 80086ca:	681b      	ldr	r3, [r3, #0]
 80086cc:	4413      	add	r3, r2
 80086ce:	f503 7362 	add.w	r3, r3, #904	; 0x388
 80086d2:	2204      	movs	r2, #4
 80086d4:	711a      	strb	r2, [r3, #4]
 80086d6:	e1a9      	b.n	8008a2c <USB_OTG_USBH_handle_hc_n_Out_ISR.8127+0xb2c>
 80086d8:	f897 3111 	ldrb.w	r3, [r7, #273]	; 0x111
 80086dc:	f3c3 0380 	ubfx	r3, r3, #2, #1
 80086e0:	b2db      	uxtb	r3, r3
 80086e2:	2b00      	cmp	r3, #0
 80086e4:	f000 8095 	beq.w	8008812 <USB_OTG_USBH_handle_hc_n_Out_ISR.8127+0x912>
 80086e8:	1d3b      	adds	r3, r7, #4
 80086ea:	681a      	ldr	r2, [r3, #0]
 80086ec:	463b      	mov	r3, r7
 80086ee:	681b      	ldr	r3, [r3, #0]
 80086f0:	3322      	adds	r3, #34	; 0x22
 80086f2:	009b      	lsls	r3, r3, #2
 80086f4:	4413      	add	r3, r2
 80086f6:	689b      	ldr	r3, [r3, #8]
 80086f8:	68da      	ldr	r2, [r3, #12]
 80086fa:	f107 0344 	add.w	r3, r7, #68	; 0x44
 80086fe:	601a      	str	r2, [r3, #0]
 8008700:	f107 0244 	add.w	r2, r7, #68	; 0x44
 8008704:	7813      	ldrb	r3, [r2, #0]
 8008706:	f043 0302 	orr.w	r3, r3, #2
 800870a:	7013      	strb	r3, [r2, #0]
 800870c:	1d3b      	adds	r3, r7, #4
 800870e:	681a      	ldr	r2, [r3, #0]
 8008710:	463b      	mov	r3, r7
 8008712:	681b      	ldr	r3, [r3, #0]
 8008714:	3322      	adds	r3, #34	; 0x22
 8008716:	009b      	lsls	r3, r3, #2
 8008718:	4413      	add	r3, r2
 800871a:	689b      	ldr	r3, [r3, #8]
 800871c:	f107 0244 	add.w	r2, r7, #68	; 0x44
 8008720:	6812      	ldr	r2, [r2, #0]
 8008722:	60da      	str	r2, [r3, #12]
 8008724:	463b      	mov	r3, r7
 8008726:	681b      	ldr	r3, [r3, #0]
 8008728:	b2db      	uxtb	r3, r3
 800872a:	1d3a      	adds	r2, r7, #4
 800872c:	6812      	ldr	r2, [r2, #0]
 800872e:	f8c7 2120 	str.w	r2, [r7, #288]	; 0x120
 8008732:	f887 311f 	strb.w	r3, [r7, #287]	; 0x11f
 8008736:	f897 311f 	ldrb.w	r3, [r7, #287]	; 0x11f
 800873a:	f8d7 2120 	ldr.w	r2, [r7, #288]	; 0x120
 800873e:	3322      	adds	r3, #34	; 0x22
 8008740:	009b      	lsls	r3, r3, #2
 8008742:	4413      	add	r3, r2
 8008744:	689a      	ldr	r2, [r3, #8]
 8008746:	6813      	ldr	r3, [r2, #0]
 8008748:	f8c7 30e8 	str.w	r3, [r7, #232]	; 0xe8
 800874c:	f897 30eb 	ldrb.w	r3, [r7, #235]	; 0xeb
 8008750:	f043 0380 	orr.w	r3, r3, #128	; 0x80
 8008754:	f887 30eb 	strb.w	r3, [r7, #235]	; 0xeb
 8008758:	f897 30eb 	ldrb.w	r3, [r7, #235]	; 0xeb
 800875c:	f043 0340 	orr.w	r3, r3, #64	; 0x40
 8008760:	f887 30eb 	strb.w	r3, [r7, #235]	; 0xeb
 8008764:	f897 30ea 	ldrb.w	r3, [r7, #234]	; 0xea
 8008768:	f3c3 0381 	ubfx	r3, r3, #2, #2
 800876c:	b2db      	uxtb	r3, r3
 800876e:	2b00      	cmp	r3, #0
 8008770:	d001      	beq.n	8008776 <USB_OTG_USBH_handle_hc_n_Out_ISR.8127+0x876>
 8008772:	2b02      	cmp	r3, #2
 8008774:	d110      	bne.n	8008798 <USB_OTG_USBH_handle_hc_n_Out_ISR.8127+0x898>
 8008776:	f8d7 3120 	ldr.w	r3, [r7, #288]	; 0x120
 800877a:	68db      	ldr	r3, [r3, #12]
 800877c:	6adb      	ldr	r3, [r3, #44]	; 0x2c
 800877e:	f8c7 30f4 	str.w	r3, [r7, #244]	; 0xf4
 8008782:	f897 30f6 	ldrb.w	r3, [r7, #246]	; 0xf6
 8008786:	2b00      	cmp	r3, #0
 8008788:	d116      	bne.n	80087b8 <USB_OTG_USBH_handle_hc_n_Out_ISR.8127+0x8b8>
 800878a:	f897 30eb 	ldrb.w	r3, [r7, #235]	; 0xeb
 800878e:	f36f 13c7 	bfc	r3, #7, #1
 8008792:	f887 30eb 	strb.w	r3, [r7, #235]	; 0xeb
 8008796:	e00f      	b.n	80087b8 <USB_OTG_USBH_handle_hc_n_Out_ISR.8127+0x8b8>
 8008798:	f8d7 3120 	ldr.w	r3, [r7, #288]	; 0x120
 800879c:	695b      	ldr	r3, [r3, #20]
 800879e:	691b      	ldr	r3, [r3, #16]
 80087a0:	f8c7 30ec 	str.w	r3, [r7, #236]	; 0xec
 80087a4:	f897 30ee 	ldrb.w	r3, [r7, #238]	; 0xee
 80087a8:	2b00      	cmp	r3, #0
 80087aa:	d105      	bne.n	80087b8 <USB_OTG_USBH_handle_hc_n_Out_ISR.8127+0x8b8>
 80087ac:	f897 30eb 	ldrb.w	r3, [r7, #235]	; 0xeb
 80087b0:	f36f 13c7 	bfc	r3, #7, #1
 80087b4:	f887 30eb 	strb.w	r3, [r7, #235]	; 0xeb
 80087b8:	f8d7 30e8 	ldr.w	r3, [r7, #232]	; 0xe8
 80087bc:	6013      	str	r3, [r2, #0]
 80087be:	f107 0348 	add.w	r3, r7, #72	; 0x48
 80087c2:	2200      	movs	r2, #0
 80087c4:	601a      	str	r2, [r3, #0]
 80087c6:	f107 0248 	add.w	r2, r7, #72	; 0x48
 80087ca:	7813      	ldrb	r3, [r2, #0]
 80087cc:	f043 0310 	orr.w	r3, r3, #16
 80087d0:	7013      	strb	r3, [r2, #0]
 80087d2:	f107 0348 	add.w	r3, r7, #72	; 0x48
 80087d6:	681a      	ldr	r2, [r3, #0]
 80087d8:	f8d7 3154 	ldr.w	r3, [r7, #340]	; 0x154
 80087dc:	609a      	str	r2, [r3, #8]
 80087de:	1d3b      	adds	r3, r7, #4
 80087e0:	681a      	ldr	r2, [r3, #0]
 80087e2:	463b      	mov	r3, r7
 80087e4:	681b      	ldr	r3, [r3, #0]
 80087e6:	4413      	add	r3, r2
 80087e8:	f503 7362 	add.w	r3, r3, #904	; 0x388
 80087ec:	2208      	movs	r2, #8
 80087ee:	711a      	strb	r2, [r3, #4]
 80087f0:	f107 034c 	add.w	r3, r7, #76	; 0x4c
 80087f4:	2200      	movs	r2, #0
 80087f6:	601a      	str	r2, [r3, #0]
 80087f8:	f107 024c 	add.w	r2, r7, #76	; 0x4c
 80087fc:	7853      	ldrb	r3, [r2, #1]
 80087fe:	f043 0304 	orr.w	r3, r3, #4
 8008802:	7053      	strb	r3, [r2, #1]
 8008804:	f107 034c 	add.w	r3, r7, #76	; 0x4c
 8008808:	681a      	ldr	r2, [r3, #0]
 800880a:	f8d7 3154 	ldr.w	r3, [r7, #340]	; 0x154
 800880e:	609a      	str	r2, [r3, #8]
 8008810:	e10c      	b.n	8008a2c <USB_OTG_USBH_handle_hc_n_Out_ISR.8127+0xb2c>
 8008812:	f897 3110 	ldrb.w	r3, [r7, #272]	; 0x110
 8008816:	f3c3 0340 	ubfx	r3, r3, #1, #1
 800881a:	b2db      	uxtb	r3, r3
 800881c:	2b00      	cmp	r3, #0
 800881e:	f000 8105 	beq.w	8008a2c <USB_OTG_USBH_handle_hc_n_Out_ISR.8127+0xb2c>
 8008822:	1d3b      	adds	r3, r7, #4
 8008824:	681a      	ldr	r2, [r3, #0]
 8008826:	463b      	mov	r3, r7
 8008828:	681b      	ldr	r3, [r3, #0]
 800882a:	3322      	adds	r3, #34	; 0x22
 800882c:	009b      	lsls	r3, r3, #2
 800882e:	4413      	add	r3, r2
 8008830:	689b      	ldr	r3, [r3, #8]
 8008832:	68da      	ldr	r2, [r3, #12]
 8008834:	f107 0350 	add.w	r3, r7, #80	; 0x50
 8008838:	601a      	str	r2, [r3, #0]
 800883a:	f107 0250 	add.w	r2, r7, #80	; 0x50
 800883e:	7813      	ldrb	r3, [r2, #0]
 8008840:	f36f 0341 	bfc	r3, #1, #1
 8008844:	7013      	strb	r3, [r2, #0]
 8008846:	1d3b      	adds	r3, r7, #4
 8008848:	681a      	ldr	r2, [r3, #0]
 800884a:	463b      	mov	r3, r7
 800884c:	681b      	ldr	r3, [r3, #0]
 800884e:	3322      	adds	r3, #34	; 0x22
 8008850:	009b      	lsls	r3, r3, #2
 8008852:	4413      	add	r3, r2
 8008854:	689b      	ldr	r3, [r3, #8]
 8008856:	f107 0250 	add.w	r2, r7, #80	; 0x50
 800885a:	6812      	ldr	r2, [r2, #0]
 800885c:	60da      	str	r2, [r3, #12]
 800885e:	1d3b      	adds	r3, r7, #4
 8008860:	681a      	ldr	r2, [r3, #0]
 8008862:	463b      	mov	r3, r7
 8008864:	681b      	ldr	r3, [r3, #0]
 8008866:	4413      	add	r3, r2
 8008868:	f503 7362 	add.w	r3, r3, #904	; 0x388
 800886c:	791b      	ldrb	r3, [r3, #4]
 800886e:	b2db      	uxtb	r3, r3
 8008870:	2b01      	cmp	r3, #1
 8008872:	d124      	bne.n	80088be <USB_OTG_USBH_handle_hc_n_Out_ISR.8127+0x9be>
 8008874:	1d3b      	adds	r3, r7, #4
 8008876:	681a      	ldr	r2, [r3, #0]
 8008878:	463b      	mov	r3, r7
 800887a:	681b      	ldr	r3, [r3, #0]
 800887c:	4413      	add	r3, r2
 800887e:	f503 7366 	add.w	r3, r3, #920	; 0x398
 8008882:	2201      	movs	r2, #1
 8008884:	70da      	strb	r2, [r3, #3]
 8008886:	f897 310a 	ldrb.w	r3, [r7, #266]	; 0x10a
 800888a:	f3c3 0381 	ubfx	r3, r3, #2, #2
 800888e:	b2db      	uxtb	r3, r3
 8008890:	2b02      	cmp	r3, #2
 8008892:	f040 80bb 	bne.w	8008a0c <USB_OTG_USBH_handle_hc_n_Out_ISR.8127+0xb0c>
 8008896:	1d3b      	adds	r3, r7, #4
 8008898:	681a      	ldr	r2, [r3, #0]
 800889a:	463b      	mov	r3, r7
 800889c:	681b      	ldr	r3, [r3, #0]
 800889e:	331e      	adds	r3, #30
 80088a0:	015b      	lsls	r3, r3, #5
 80088a2:	4413      	add	r3, r2
 80088a4:	795b      	ldrb	r3, [r3, #5]
 80088a6:	f083 0301 	eor.w	r3, r3, #1
 80088aa:	b2da      	uxtb	r2, r3
 80088ac:	1d3b      	adds	r3, r7, #4
 80088ae:	6819      	ldr	r1, [r3, #0]
 80088b0:	463b      	mov	r3, r7
 80088b2:	681b      	ldr	r3, [r3, #0]
 80088b4:	331e      	adds	r3, #30
 80088b6:	015b      	lsls	r3, r3, #5
 80088b8:	440b      	add	r3, r1
 80088ba:	715a      	strb	r2, [r3, #5]
 80088bc:	e0a6      	b.n	8008a0c <USB_OTG_USBH_handle_hc_n_Out_ISR.8127+0xb0c>
 80088be:	1d3b      	adds	r3, r7, #4
 80088c0:	681a      	ldr	r2, [r3, #0]
 80088c2:	463b      	mov	r3, r7
 80088c4:	681b      	ldr	r3, [r3, #0]
 80088c6:	4413      	add	r3, r2
 80088c8:	f503 7362 	add.w	r3, r3, #904	; 0x388
 80088cc:	791b      	ldrb	r3, [r3, #4]
 80088ce:	b2db      	uxtb	r3, r3
 80088d0:	2b03      	cmp	r3, #3
 80088d2:	d109      	bne.n	80088e8 <USB_OTG_USBH_handle_hc_n_Out_ISR.8127+0x9e8>
 80088d4:	1d3b      	adds	r3, r7, #4
 80088d6:	681a      	ldr	r2, [r3, #0]
 80088d8:	463b      	mov	r3, r7
 80088da:	681b      	ldr	r3, [r3, #0]
 80088dc:	4413      	add	r3, r2
 80088de:	f503 7366 	add.w	r3, r3, #920	; 0x398
 80088e2:	2202      	movs	r2, #2
 80088e4:	70da      	strb	r2, [r3, #3]
 80088e6:	e091      	b.n	8008a0c <USB_OTG_USBH_handle_hc_n_Out_ISR.8127+0xb0c>
 80088e8:	1d3b      	adds	r3, r7, #4
 80088ea:	681a      	ldr	r2, [r3, #0]
 80088ec:	463b      	mov	r3, r7
 80088ee:	681b      	ldr	r3, [r3, #0]
 80088f0:	4413      	add	r3, r2
 80088f2:	f503 7362 	add.w	r3, r3, #904	; 0x388
 80088f6:	791b      	ldrb	r3, [r3, #4]
 80088f8:	b2db      	uxtb	r3, r3
 80088fa:	2b04      	cmp	r3, #4
 80088fc:	d14a      	bne.n	8008994 <USB_OTG_USBH_handle_hc_n_Out_ISR.8127+0xa94>
 80088fe:	1d3b      	adds	r3, r7, #4
 8008900:	681a      	ldr	r2, [r3, #0]
 8008902:	463b      	mov	r3, r7
 8008904:	681b      	ldr	r3, [r3, #0]
 8008906:	015b      	lsls	r3, r3, #5
 8008908:	4413      	add	r3, r2
 800890a:	f503 736a 	add.w	r3, r3, #936	; 0x3a8
 800890e:	7a1b      	ldrb	r3, [r3, #8]
 8008910:	2b01      	cmp	r3, #1
 8008912:	d135      	bne.n	8008980 <USB_OTG_USBH_handle_hc_n_Out_ISR.8127+0xa80>
 8008914:	463b      	mov	r3, r7
 8008916:	681b      	ldr	r3, [r3, #0]
 8008918:	b2db      	uxtb	r3, r3
 800891a:	1d3a      	adds	r2, r7, #4
 800891c:	6812      	ldr	r2, [r2, #0]
 800891e:	f8c7 2118 	str.w	r2, [r7, #280]	; 0x118
 8008922:	f887 3117 	strb.w	r3, [r7, #279]	; 0x117
 8008926:	2300      	movs	r3, #0
 8008928:	f8c7 3100 	str.w	r3, [r7, #256]	; 0x100
 800892c:	f897 3103 	ldrb.w	r3, [r7, #259]	; 0x103
 8008930:	f043 0380 	orr.w	r3, r3, #128	; 0x80
 8008934:	f887 3103 	strb.w	r3, [r7, #259]	; 0x103
 8008938:	f8b7 3102 	ldrh.w	r3, [r7, #258]	; 0x102
 800893c:	2201      	movs	r2, #1
 800893e:	f362 03cc 	bfi	r3, r2, #3, #10
 8008942:	f8a7 3102 	strh.w	r3, [r7, #258]	; 0x102
 8008946:	f897 3117 	ldrb.w	r3, [r7, #279]	; 0x117
 800894a:	f8d7 2118 	ldr.w	r2, [r7, #280]	; 0x118
 800894e:	3322      	adds	r3, #34	; 0x22
 8008950:	009b      	lsls	r3, r3, #2
 8008952:	4413      	add	r3, r2
 8008954:	689b      	ldr	r3, [r3, #8]
 8008956:	f8d7 2100 	ldr.w	r2, [r7, #256]	; 0x100
 800895a:	611a      	str	r2, [r3, #16]
 800895c:	681a      	ldr	r2, [r3, #0]
 800895e:	f8c7 2104 	str.w	r2, [r7, #260]	; 0x104
 8008962:	f897 2107 	ldrb.w	r2, [r7, #263]	; 0x107
 8008966:	f042 0280 	orr.w	r2, r2, #128	; 0x80
 800896a:	f887 2107 	strb.w	r2, [r7, #263]	; 0x107
 800896e:	f897 2107 	ldrb.w	r2, [r7, #263]	; 0x107
 8008972:	f36f 1286 	bfc	r2, #6, #1
 8008976:	f887 2107 	strb.w	r2, [r7, #263]	; 0x107
 800897a:	f8d7 2104 	ldr.w	r2, [r7, #260]	; 0x104
 800897e:	601a      	str	r2, [r3, #0]
 8008980:	1d3b      	adds	r3, r7, #4
 8008982:	681a      	ldr	r2, [r3, #0]
 8008984:	463b      	mov	r3, r7
 8008986:	681b      	ldr	r3, [r3, #0]
 8008988:	4413      	add	r3, r2
 800898a:	f503 7366 	add.w	r3, r3, #920	; 0x398
 800898e:	2202      	movs	r2, #2
 8008990:	70da      	strb	r2, [r3, #3]
 8008992:	e03b      	b.n	8008a0c <USB_OTG_USBH_handle_hc_n_Out_ISR.8127+0xb0c>
 8008994:	1d3b      	adds	r3, r7, #4
 8008996:	681a      	ldr	r2, [r3, #0]
 8008998:	463b      	mov	r3, r7
 800899a:	681b      	ldr	r3, [r3, #0]
 800899c:	4413      	add	r3, r2
 800899e:	f503 7362 	add.w	r3, r3, #904	; 0x388
 80089a2:	791b      	ldrb	r3, [r3, #4]
 80089a4:	b2db      	uxtb	r3, r3
 80089a6:	2b05      	cmp	r3, #5
 80089a8:	d109      	bne.n	80089be <USB_OTG_USBH_handle_hc_n_Out_ISR.8127+0xabe>
 80089aa:	1d3b      	adds	r3, r7, #4
 80089ac:	681a      	ldr	r2, [r3, #0]
 80089ae:	463b      	mov	r3, r7
 80089b0:	681b      	ldr	r3, [r3, #0]
 80089b2:	4413      	add	r3, r2
 80089b4:	f503 7366 	add.w	r3, r3, #920	; 0x398
 80089b8:	2204      	movs	r2, #4
 80089ba:	70da      	strb	r2, [r3, #3]
 80089bc:	e026      	b.n	8008a0c <USB_OTG_USBH_handle_hc_n_Out_ISR.8127+0xb0c>
 80089be:	1d3b      	adds	r3, r7, #4
 80089c0:	681a      	ldr	r2, [r3, #0]
 80089c2:	463b      	mov	r3, r7
 80089c4:	681b      	ldr	r3, [r3, #0]
 80089c6:	4413      	add	r3, r2
 80089c8:	f503 7362 	add.w	r3, r3, #904	; 0x388
 80089cc:	791b      	ldrb	r3, [r3, #4]
 80089ce:	b2db      	uxtb	r3, r3
 80089d0:	2b06      	cmp	r3, #6
 80089d2:	d11b      	bne.n	8008a0c <USB_OTG_USBH_handle_hc_n_Out_ISR.8127+0xb0c>
 80089d4:	1d3b      	adds	r3, r7, #4
 80089d6:	681a      	ldr	r2, [r3, #0]
 80089d8:	463b      	mov	r3, r7
 80089da:	681b      	ldr	r3, [r3, #0]
 80089dc:	33c4      	adds	r3, #196	; 0xc4
 80089de:	009b      	lsls	r3, r3, #2
 80089e0:	4413      	add	r3, r2
 80089e2:	685b      	ldr	r3, [r3, #4]
 80089e4:	2b03      	cmp	r3, #3
 80089e6:	d111      	bne.n	8008a0c <USB_OTG_USBH_handle_hc_n_Out_ISR.8127+0xb0c>
 80089e8:	1d3b      	adds	r3, r7, #4
 80089ea:	681a      	ldr	r2, [r3, #0]
 80089ec:	463b      	mov	r3, r7
 80089ee:	681b      	ldr	r3, [r3, #0]
 80089f0:	4413      	add	r3, r2
 80089f2:	f503 7366 	add.w	r3, r3, #920	; 0x398
 80089f6:	2203      	movs	r2, #3
 80089f8:	70da      	strb	r2, [r3, #3]
 80089fa:	1d3b      	adds	r3, r7, #4
 80089fc:	681a      	ldr	r2, [r3, #0]
 80089fe:	463b      	mov	r3, r7
 8008a00:	681b      	ldr	r3, [r3, #0]
 8008a02:	33c4      	adds	r3, #196	; 0xc4
 8008a04:	009b      	lsls	r3, r3, #2
 8008a06:	4413      	add	r3, r2
 8008a08:	2200      	movs	r2, #0
 8008a0a:	605a      	str	r2, [r3, #4]
 8008a0c:	f107 0354 	add.w	r3, r7, #84	; 0x54
 8008a10:	2200      	movs	r2, #0
 8008a12:	601a      	str	r2, [r3, #0]
 8008a14:	f107 0254 	add.w	r2, r7, #84	; 0x54
 8008a18:	7813      	ldrb	r3, [r2, #0]
 8008a1a:	f043 0302 	orr.w	r3, r3, #2
 8008a1e:	7013      	strb	r3, [r2, #0]
 8008a20:	f107 0354 	add.w	r3, r7, #84	; 0x54
 8008a24:	681a      	ldr	r2, [r3, #0]
 8008a26:	f8d7 3154 	ldr.w	r3, [r7, #340]	; 0x154
 8008a2a:	609a      	str	r2, [r3, #8]
 8008a2c:	2301      	movs	r3, #1
 8008a2e:	4618      	mov	r0, r3
 8008a30:	f507 77ae 	add.w	r7, r7, #348	; 0x15c
 8008a34:	46bd      	mov	sp, r7
 8008a36:	f85d 7b04 	ldr.w	r7, [sp], #4
 8008a3a:	4770      	bx	lr

08008a3c <USB_OTG_USBH_handle_port_ISR.8124>:
USB_OTG_USBH_handle_port_ISR.8124():
 8008a3c:	b580      	push	{r7, lr}
 8008a3e:	b08e      	sub	sp, #56	; 0x38
 8008a40:	af00      	add	r7, sp, #0
 8008a42:	6078      	str	r0, [r7, #4]
 8008a44:	2300      	movs	r3, #0
 8008a46:	637b      	str	r3, [r7, #52]	; 0x34
 8008a48:	2300      	movs	r3, #0
 8008a4a:	633b      	str	r3, [r7, #48]	; 0x30
 8008a4c:	2300      	movs	r3, #0
 8008a4e:	617b      	str	r3, [r7, #20]
 8008a50:	2300      	movs	r3, #0
 8008a52:	61fb      	str	r3, [r7, #28]
 8008a54:	2300      	movs	r3, #0
 8008a56:	61bb      	str	r3, [r7, #24]
 8008a58:	687b      	ldr	r3, [r7, #4]
 8008a5a:	f8d3 30cc 	ldr.w	r3, [r3, #204]	; 0xcc
 8008a5e:	681b      	ldr	r3, [r3, #0]
 8008a60:	61fb      	str	r3, [r7, #28]
 8008a62:	687b      	ldr	r3, [r7, #4]
 8008a64:	f8d3 30cc 	ldr.w	r3, [r3, #204]	; 0xcc
 8008a68:	681b      	ldr	r3, [r3, #0]
 8008a6a:	61bb      	str	r3, [r7, #24]
 8008a6c:	7e3b      	ldrb	r3, [r7, #24]
 8008a6e:	f36f 0382 	bfc	r3, #2, #1
 8008a72:	763b      	strb	r3, [r7, #24]
 8008a74:	7e3b      	ldrb	r3, [r7, #24]
 8008a76:	f36f 0341 	bfc	r3, #1, #1
 8008a7a:	763b      	strb	r3, [r7, #24]
 8008a7c:	7e3b      	ldrb	r3, [r7, #24]
 8008a7e:	f36f 03c3 	bfc	r3, #3, #1
 8008a82:	763b      	strb	r3, [r7, #24]
 8008a84:	7e3b      	ldrb	r3, [r7, #24]
 8008a86:	f36f 1345 	bfc	r3, #5, #1
 8008a8a:	763b      	strb	r3, [r7, #24]
 8008a8c:	7f3b      	ldrb	r3, [r7, #28]
 8008a8e:	f3c3 0340 	ubfx	r3, r3, #1, #1
 8008a92:	b2db      	uxtb	r3, r3
 8008a94:	2b00      	cmp	r3, #0
 8008a96:	d00c      	beq.n	8008ab2 <USB_OTG_USBH_handle_port_ISR.8124+0x76>
 8008a98:	7e3b      	ldrb	r3, [r7, #24]
 8008a9a:	f043 0302 	orr.w	r3, r3, #2
 8008a9e:	763b      	strb	r3, [r7, #24]
 8008aa0:	4b4f      	ldr	r3, [pc, #316]	; (8008be0 <USB_OTG_USBH_handle_port_ISR.8124+0x1a4>)
 8008aa2:	681b      	ldr	r3, [r3, #0]
 8008aa4:	685b      	ldr	r3, [r3, #4]
 8008aa6:	6878      	ldr	r0, [r7, #4]
 8008aa8:	4798      	blx	r3
 8008aaa:	6b3b      	ldr	r3, [r7, #48]	; 0x30
 8008aac:	f043 0301 	orr.w	r3, r3, #1
 8008ab0:	633b      	str	r3, [r7, #48]	; 0x30
 8008ab2:	7f3b      	ldrb	r3, [r7, #28]
 8008ab4:	f3c3 03c0 	ubfx	r3, r3, #3, #1
 8008ab8:	b2db      	uxtb	r3, r3
 8008aba:	2b00      	cmp	r3, #0
 8008abc:	d072      	beq.n	8008ba4 <USB_OTG_USBH_handle_port_ISR.8124+0x168>
 8008abe:	7e3b      	ldrb	r3, [r7, #24]
 8008ac0:	f043 0308 	orr.w	r3, r3, #8
 8008ac4:	763b      	strb	r3, [r7, #24]
 8008ac6:	7f3b      	ldrb	r3, [r7, #28]
 8008ac8:	f3c3 0380 	ubfx	r3, r3, #2, #1
 8008acc:	b2db      	uxtb	r3, r3
 8008ace:	2b01      	cmp	r3, #1
 8008ad0:	d168      	bne.n	8008ba4 <USB_OTG_USBH_handle_port_ISR.8124+0x168>
 8008ad2:	4b43      	ldr	r3, [pc, #268]	; (8008be0 <USB_OTG_USBH_handle_port_ISR.8124+0x1a4>)
 8008ad4:	681b      	ldr	r3, [r3, #0]
 8008ad6:	685b      	ldr	r3, [r3, #4]
 8008ad8:	6878      	ldr	r0, [r7, #4]
 8008ada:	4798      	blx	r3
 8008adc:	7fbb      	ldrb	r3, [r7, #30]
 8008ade:	f3c3 0341 	ubfx	r3, r3, #1, #2
 8008ae2:	b2db      	uxtb	r3, r3
 8008ae4:	2b02      	cmp	r3, #2
 8008ae6:	d005      	beq.n	8008af4 <USB_OTG_USBH_handle_port_ISR.8124+0xb8>
 8008ae8:	7fbb      	ldrb	r3, [r7, #30]
 8008aea:	f3c3 0341 	ubfx	r3, r3, #1, #2
 8008aee:	b2db      	uxtb	r3, r3
 8008af0:	2b01      	cmp	r3, #1
 8008af2:	d151      	bne.n	8008b98 <USB_OTG_USBH_handle_port_ISR.8124+0x15c>
 8008af4:	687b      	ldr	r3, [r7, #4]
 8008af6:	695b      	ldr	r3, [r3, #20]
 8008af8:	681b      	ldr	r3, [r3, #0]
 8008afa:	617b      	str	r3, [r7, #20]
 8008afc:	7fbb      	ldrb	r3, [r7, #30]
 8008afe:	f3c3 0341 	ubfx	r3, r3, #1, #2
 8008b02:	b2db      	uxtb	r3, r3
 8008b04:	2b02      	cmp	r3, #2
 8008b06:	d125      	bne.n	8008b54 <USB_OTG_USBH_handle_port_ISR.8124+0x118>
 8008b08:	687b      	ldr	r3, [r7, #4]
 8008b0a:	695b      	ldr	r3, [r3, #20]
 8008b0c:	f241 7270 	movw	r2, #6000	; 0x1770
 8008b10:	605a      	str	r2, [r3, #4]
 8008b12:	7d3b      	ldrb	r3, [r7, #20]
 8008b14:	f3c3 0301 	ubfx	r3, r3, #0, #2
 8008b18:	b2db      	uxtb	r3, r3
 8008b1a:	2b02      	cmp	r3, #2
 8008b1c:	d03f      	beq.n	8008b9e <USB_OTG_USBH_handle_port_ISR.8124+0x162>
 8008b1e:	687b      	ldr	r3, [r7, #4]
 8008b20:	7a1b      	ldrb	r3, [r3, #8]
 8008b22:	2b02      	cmp	r3, #2
 8008b24:	d113      	bne.n	8008b4e <USB_OTG_USBH_handle_port_ISR.8124+0x112>
 8008b26:	687b      	ldr	r3, [r7, #4]
 8008b28:	62fb      	str	r3, [r7, #44]	; 0x2c
 8008b2a:	2302      	movs	r3, #2
 8008b2c:	f887 302b 	strb.w	r3, [r7, #43]	; 0x2b
 8008b30:	6afb      	ldr	r3, [r7, #44]	; 0x2c
 8008b32:	695a      	ldr	r2, [r3, #20]
 8008b34:	6813      	ldr	r3, [r2, #0]
 8008b36:	60fb      	str	r3, [r7, #12]
 8008b38:	f897 302b 	ldrb.w	r3, [r7, #43]	; 0x2b
 8008b3c:	f003 0303 	and.w	r3, r3, #3
 8008b40:	b2d9      	uxtb	r1, r3
 8008b42:	7b3b      	ldrb	r3, [r7, #12]
 8008b44:	f361 0301 	bfi	r3, r1, #0, #2
 8008b48:	733b      	strb	r3, [r7, #12]
 8008b4a:	68fb      	ldr	r3, [r7, #12]
 8008b4c:	6013      	str	r3, [r2, #0]
 8008b4e:	2301      	movs	r3, #1
 8008b50:	637b      	str	r3, [r7, #52]	; 0x34
 8008b52:	e026      	b.n	8008ba2 <USB_OTG_USBH_handle_port_ISR.8124+0x166>
 8008b54:	687b      	ldr	r3, [r7, #4]
 8008b56:	695b      	ldr	r3, [r3, #20]
 8008b58:	f64b 3280 	movw	r2, #48000	; 0xbb80
 8008b5c:	605a      	str	r2, [r3, #4]
 8008b5e:	7d3b      	ldrb	r3, [r7, #20]
 8008b60:	f3c3 0301 	ubfx	r3, r3, #0, #2
 8008b64:	b2db      	uxtb	r3, r3
 8008b66:	2b01      	cmp	r3, #1
 8008b68:	d01b      	beq.n	8008ba2 <USB_OTG_USBH_handle_port_ISR.8124+0x166>
 8008b6a:	687b      	ldr	r3, [r7, #4]
 8008b6c:	627b      	str	r3, [r7, #36]	; 0x24
 8008b6e:	2301      	movs	r3, #1
 8008b70:	f887 3023 	strb.w	r3, [r7, #35]	; 0x23
 8008b74:	6a7b      	ldr	r3, [r7, #36]	; 0x24
 8008b76:	695a      	ldr	r2, [r3, #20]
 8008b78:	6813      	ldr	r3, [r2, #0]
 8008b7a:	613b      	str	r3, [r7, #16]
 8008b7c:	f897 3023 	ldrb.w	r3, [r7, #35]	; 0x23
 8008b80:	f003 0303 	and.w	r3, r3, #3
 8008b84:	b2d9      	uxtb	r1, r3
 8008b86:	7c3b      	ldrb	r3, [r7, #16]
 8008b88:	f361 0301 	bfi	r3, r1, #0, #2
 8008b8c:	743b      	strb	r3, [r7, #16]
 8008b8e:	693b      	ldr	r3, [r7, #16]
 8008b90:	6013      	str	r3, [r2, #0]
 8008b92:	2301      	movs	r3, #1
 8008b94:	637b      	str	r3, [r7, #52]	; 0x34
 8008b96:	e004      	b.n	8008ba2 <USB_OTG_USBH_handle_port_ISR.8124+0x166>
 8008b98:	2301      	movs	r3, #1
 8008b9a:	637b      	str	r3, [r7, #52]	; 0x34
 8008b9c:	e002      	b.n	8008ba4 <USB_OTG_USBH_handle_port_ISR.8124+0x168>
 8008b9e:	bf00      	nop
 8008ba0:	e000      	b.n	8008ba4 <USB_OTG_USBH_handle_port_ISR.8124+0x168>
 8008ba2:	bf00      	nop
 8008ba4:	7f3b      	ldrb	r3, [r7, #28]
 8008ba6:	f3c3 1340 	ubfx	r3, r3, #5, #1
 8008baa:	b2db      	uxtb	r3, r3
 8008bac:	2b00      	cmp	r3, #0
 8008bae:	d007      	beq.n	8008bc0 <USB_OTG_USBH_handle_port_ISR.8124+0x184>
 8008bb0:	7e3b      	ldrb	r3, [r7, #24]
 8008bb2:	f043 0320 	orr.w	r3, r3, #32
 8008bb6:	763b      	strb	r3, [r7, #24]
 8008bb8:	6b3b      	ldr	r3, [r7, #48]	; 0x30
 8008bba:	f043 0301 	orr.w	r3, r3, #1
 8008bbe:	633b      	str	r3, [r7, #48]	; 0x30
 8008bc0:	6b7b      	ldr	r3, [r7, #52]	; 0x34
 8008bc2:	2b00      	cmp	r3, #0
 8008bc4:	d002      	beq.n	8008bcc <USB_OTG_USBH_handle_port_ISR.8124+0x190>
 8008bc6:	6878      	ldr	r0, [r7, #4]
 8008bc8:	f7fb ff0e 	bl	80049e8 <USB_OTG_ResetPort>
 8008bcc:	687b      	ldr	r3, [r7, #4]
 8008bce:	f8d3 30cc 	ldr.w	r3, [r3, #204]	; 0xcc
 8008bd2:	69ba      	ldr	r2, [r7, #24]
 8008bd4:	601a      	str	r2, [r3, #0]
 8008bd6:	6b3b      	ldr	r3, [r7, #48]	; 0x30
 8008bd8:	4618      	mov	r0, r3
 8008bda:	3738      	adds	r7, #56	; 0x38
 8008bdc:	46bd      	mov	sp, r7
 8008bde:	bd80      	pop	{r7, pc}
 8008be0:	0800d6d4 	.word	0x0800d6d4

08008be4 <USB_OTG_USBH_handle_ptxfempty_ISR.8121>:
USB_OTG_USBH_handle_ptxfempty_ISR.8121():
 8008be4:	b480      	push	{r7}
 8008be6:	b091      	sub	sp, #68	; 0x44
 8008be8:	af00      	add	r7, sp, #0
 8008bea:	6078      	str	r0, [r7, #4]
 8008bec:	687b      	ldr	r3, [r7, #4]
 8008bee:	695b      	ldr	r3, [r3, #20]
 8008bf0:	691b      	ldr	r3, [r3, #16]
 8008bf2:	60fb      	str	r3, [r7, #12]
 8008bf4:	7c3b      	ldrb	r3, [r7, #16]
 8008bf6:	f3c3 03c3 	ubfx	r3, r3, #3, #4
 8008bfa:	b2db      	uxtb	r3, r3
 8008bfc:	687a      	ldr	r2, [r7, #4]
 8008bfe:	015b      	lsls	r3, r3, #5
 8008c00:	4413      	add	r3, r2
 8008c02:	f503 736f 	add.w	r3, r3, #956	; 0x3bc
 8008c06:	681b      	ldr	r3, [r3, #0]
 8008c08:	3303      	adds	r3, #3
 8008c0a:	089b      	lsrs	r3, r3, #2
 8008c0c:	87fb      	strh	r3, [r7, #62]	; 0x3e
 8008c0e:	e0c2      	b.n	8008d96 <USB_OTG_USBH_handle_ptxfempty_ISR.8121+0x1b2>
 8008c10:	89bb      	ldrh	r3, [r7, #12]
 8008c12:	009b      	lsls	r3, r3, #2
 8008c14:	87bb      	strh	r3, [r7, #60]	; 0x3c
 8008c16:	8fba      	ldrh	r2, [r7, #60]	; 0x3c
 8008c18:	7c3b      	ldrb	r3, [r7, #16]
 8008c1a:	f3c3 03c3 	ubfx	r3, r3, #3, #4
 8008c1e:	b2db      	uxtb	r3, r3
 8008c20:	6879      	ldr	r1, [r7, #4]
 8008c22:	015b      	lsls	r3, r3, #5
 8008c24:	440b      	add	r3, r1
 8008c26:	f503 736f 	add.w	r3, r3, #956	; 0x3bc
 8008c2a:	681b      	ldr	r3, [r3, #0]
 8008c2c:	429a      	cmp	r2, r3
 8008c2e:	d919      	bls.n	8008c64 <USB_OTG_USBH_handle_ptxfempty_ISR.8121+0x80>
 8008c30:	7c3b      	ldrb	r3, [r7, #16]
 8008c32:	f3c3 03c3 	ubfx	r3, r3, #3, #4
 8008c36:	b2db      	uxtb	r3, r3
 8008c38:	687a      	ldr	r2, [r7, #4]
 8008c3a:	015b      	lsls	r3, r3, #5
 8008c3c:	4413      	add	r3, r2
 8008c3e:	f503 736f 	add.w	r3, r3, #956	; 0x3bc
 8008c42:	681b      	ldr	r3, [r3, #0]
 8008c44:	87bb      	strh	r3, [r7, #60]	; 0x3c
 8008c46:	2300      	movs	r3, #0
 8008c48:	617b      	str	r3, [r7, #20]
 8008c4a:	7dfb      	ldrb	r3, [r7, #23]
 8008c4c:	f043 0304 	orr.w	r3, r3, #4
 8008c50:	75fb      	strb	r3, [r7, #23]
 8008c52:	687b      	ldr	r3, [r7, #4]
 8008c54:	68db      	ldr	r3, [r3, #12]
 8008c56:	687a      	ldr	r2, [r7, #4]
 8008c58:	68d2      	ldr	r2, [r2, #12]
 8008c5a:	6991      	ldr	r1, [r2, #24]
 8008c5c:	697a      	ldr	r2, [r7, #20]
 8008c5e:	43d2      	mvns	r2, r2
 8008c60:	400a      	ands	r2, r1
 8008c62:	619a      	str	r2, [r3, #24]
 8008c64:	7c3b      	ldrb	r3, [r7, #16]
 8008c66:	f3c3 03c3 	ubfx	r3, r3, #3, #4
 8008c6a:	b2db      	uxtb	r3, r3
 8008c6c:	687a      	ldr	r2, [r7, #4]
 8008c6e:	015b      	lsls	r3, r3, #5
 8008c70:	4413      	add	r3, r2
 8008c72:	f503 736f 	add.w	r3, r3, #956	; 0x3bc
 8008c76:	681b      	ldr	r3, [r3, #0]
 8008c78:	3303      	adds	r3, #3
 8008c7a:	089b      	lsrs	r3, r3, #2
 8008c7c:	87fb      	strh	r3, [r7, #62]	; 0x3e
 8008c7e:	7c3b      	ldrb	r3, [r7, #16]
 8008c80:	f3c3 03c3 	ubfx	r3, r3, #3, #4
 8008c84:	b2db      	uxtb	r3, r3
 8008c86:	687a      	ldr	r2, [r7, #4]
 8008c88:	3315      	adds	r3, #21
 8008c8a:	015b      	lsls	r3, r3, #5
 8008c8c:	4413      	add	r3, r2
 8008c8e:	f503 738c 	add.w	r3, r3, #280	; 0x118
 8008c92:	681a      	ldr	r2, [r3, #0]
 8008c94:	7c3b      	ldrb	r3, [r7, #16]
 8008c96:	f3c3 03c3 	ubfx	r3, r3, #3, #4
 8008c9a:	b2db      	uxtb	r3, r3
 8008c9c:	6879      	ldr	r1, [r7, #4]
 8008c9e:	63b9      	str	r1, [r7, #56]	; 0x38
 8008ca0:	637a      	str	r2, [r7, #52]	; 0x34
 8008ca2:	f887 3033 	strb.w	r3, [r7, #51]	; 0x33
 8008ca6:	8fbb      	ldrh	r3, [r7, #60]	; 0x3c
 8008ca8:	863b      	strh	r3, [r7, #48]	; 0x30
 8008caa:	6bbb      	ldr	r3, [r7, #56]	; 0x38
 8008cac:	78db      	ldrb	r3, [r3, #3]
 8008cae:	2b00      	cmp	r3, #0
 8008cb0:	d129      	bne.n	8008d06 <USB_OTG_USBH_handle_ptxfempty_ISR.8121+0x122>
 8008cb2:	6bbb      	ldr	r3, [r7, #56]	; 0x38
 8008cb4:	62fb      	str	r3, [r7, #44]	; 0x2c
 8008cb6:	6b7b      	ldr	r3, [r7, #52]	; 0x34
 8008cb8:	62bb      	str	r3, [r7, #40]	; 0x28
 8008cba:	f897 3033 	ldrb.w	r3, [r7, #51]	; 0x33
 8008cbe:	f887 3027 	strb.w	r3, [r7, #39]	; 0x27
 8008cc2:	8e3b      	ldrh	r3, [r7, #48]	; 0x30
 8008cc4:	84bb      	strh	r3, [r7, #36]	; 0x24
 8008cc6:	8cbb      	ldrh	r3, [r7, #36]	; 0x24
 8008cc8:	3303      	adds	r3, #3
 8008cca:	2b00      	cmp	r3, #0
 8008ccc:	da00      	bge.n	8008cd0 <USB_OTG_USBH_handle_ptxfempty_ISR.8121+0xec>
 8008cce:	3303      	adds	r3, #3
 8008cd0:	109b      	asrs	r3, r3, #2
 8008cd2:	623b      	str	r3, [r7, #32]
 8008cd4:	f897 3027 	ldrb.w	r3, [r7, #39]	; 0x27
 8008cd8:	6afa      	ldr	r2, [r7, #44]	; 0x2c
 8008cda:	3332      	adds	r3, #50	; 0x32
 8008cdc:	009b      	lsls	r3, r3, #2
 8008cde:	4413      	add	r3, r2
 8008ce0:	689b      	ldr	r3, [r3, #8]
 8008ce2:	61fb      	str	r3, [r7, #28]
 8008ce4:	2300      	movs	r3, #0
 8008ce6:	61bb      	str	r3, [r7, #24]
 8008ce8:	e009      	b.n	8008cfe <USB_OTG_USBH_handle_ptxfempty_ISR.8121+0x11a>
 8008cea:	6abb      	ldr	r3, [r7, #40]	; 0x28
 8008cec:	681a      	ldr	r2, [r3, #0]
 8008cee:	69fb      	ldr	r3, [r7, #28]
 8008cf0:	601a      	str	r2, [r3, #0]
 8008cf2:	69bb      	ldr	r3, [r7, #24]
 8008cf4:	3301      	adds	r3, #1
 8008cf6:	61bb      	str	r3, [r7, #24]
 8008cf8:	6abb      	ldr	r3, [r7, #40]	; 0x28
 8008cfa:	3304      	adds	r3, #4
 8008cfc:	62bb      	str	r3, [r7, #40]	; 0x28
 8008cfe:	6a3a      	ldr	r2, [r7, #32]
 8008d00:	69bb      	ldr	r3, [r7, #24]
 8008d02:	429a      	cmp	r2, r3
 8008d04:	d8f1      	bhi.n	8008cea <USB_OTG_USBH_handle_ptxfempty_ISR.8121+0x106>
 8008d06:	7c3b      	ldrb	r3, [r7, #16]
 8008d08:	f3c3 03c3 	ubfx	r3, r3, #3, #4
 8008d0c:	b2db      	uxtb	r3, r3
 8008d0e:	7c3a      	ldrb	r2, [r7, #16]
 8008d10:	f3c2 02c3 	ubfx	r2, r2, #3, #4
 8008d14:	b2d2      	uxtb	r2, r2
 8008d16:	6879      	ldr	r1, [r7, #4]
 8008d18:	3215      	adds	r2, #21
 8008d1a:	0152      	lsls	r2, r2, #5
 8008d1c:	440a      	add	r2, r1
 8008d1e:	f502 728c 	add.w	r2, r2, #280	; 0x118
 8008d22:	6811      	ldr	r1, [r2, #0]
 8008d24:	8fba      	ldrh	r2, [r7, #60]	; 0x3c
 8008d26:	440a      	add	r2, r1
 8008d28:	6879      	ldr	r1, [r7, #4]
 8008d2a:	3315      	adds	r3, #21
 8008d2c:	015b      	lsls	r3, r3, #5
 8008d2e:	440b      	add	r3, r1
 8008d30:	f503 738c 	add.w	r3, r3, #280	; 0x118
 8008d34:	601a      	str	r2, [r3, #0]
 8008d36:	7c3b      	ldrb	r3, [r7, #16]
 8008d38:	f3c3 03c3 	ubfx	r3, r3, #3, #4
 8008d3c:	b2db      	uxtb	r3, r3
 8008d3e:	7c3a      	ldrb	r2, [r7, #16]
 8008d40:	f3c2 02c3 	ubfx	r2, r2, #3, #4
 8008d44:	b2d2      	uxtb	r2, r2
 8008d46:	6879      	ldr	r1, [r7, #4]
 8008d48:	0152      	lsls	r2, r2, #5
 8008d4a:	440a      	add	r2, r1
 8008d4c:	f502 726f 	add.w	r2, r2, #956	; 0x3bc
 8008d50:	6811      	ldr	r1, [r2, #0]
 8008d52:	8fba      	ldrh	r2, [r7, #60]	; 0x3c
 8008d54:	1a8a      	subs	r2, r1, r2
 8008d56:	6879      	ldr	r1, [r7, #4]
 8008d58:	015b      	lsls	r3, r3, #5
 8008d5a:	440b      	add	r3, r1
 8008d5c:	f503 736f 	add.w	r3, r3, #956	; 0x3bc
 8008d60:	601a      	str	r2, [r3, #0]
 8008d62:	7c3b      	ldrb	r3, [r7, #16]
 8008d64:	f3c3 03c3 	ubfx	r3, r3, #3, #4
 8008d68:	b2db      	uxtb	r3, r3
 8008d6a:	7c3a      	ldrb	r2, [r7, #16]
 8008d6c:	f3c2 02c3 	ubfx	r2, r2, #3, #4
 8008d70:	b2d2      	uxtb	r2, r2
 8008d72:	6879      	ldr	r1, [r7, #4]
 8008d74:	0152      	lsls	r2, r2, #5
 8008d76:	440a      	add	r2, r1
 8008d78:	f502 7270 	add.w	r2, r2, #960	; 0x3c0
 8008d7c:	6811      	ldr	r1, [r2, #0]
 8008d7e:	8fba      	ldrh	r2, [r7, #60]	; 0x3c
 8008d80:	440a      	add	r2, r1
 8008d82:	6879      	ldr	r1, [r7, #4]
 8008d84:	015b      	lsls	r3, r3, #5
 8008d86:	440b      	add	r3, r1
 8008d88:	f503 7370 	add.w	r3, r3, #960	; 0x3c0
 8008d8c:	601a      	str	r2, [r3, #0]
 8008d8e:	687b      	ldr	r3, [r7, #4]
 8008d90:	695b      	ldr	r3, [r3, #20]
 8008d92:	691b      	ldr	r3, [r3, #16]
 8008d94:	60fb      	str	r3, [r7, #12]
 8008d96:	89bb      	ldrh	r3, [r7, #12]
 8008d98:	8ffa      	ldrh	r2, [r7, #62]	; 0x3e
 8008d9a:	429a      	cmp	r2, r3
 8008d9c:	d20c      	bcs.n	8008db8 <USB_OTG_USBH_handle_ptxfempty_ISR.8121+0x1d4>
 8008d9e:	7c3b      	ldrb	r3, [r7, #16]
 8008da0:	f3c3 03c3 	ubfx	r3, r3, #3, #4
 8008da4:	b2db      	uxtb	r3, r3
 8008da6:	687a      	ldr	r2, [r7, #4]
 8008da8:	015b      	lsls	r3, r3, #5
 8008daa:	4413      	add	r3, r2
 8008dac:	f503 736f 	add.w	r3, r3, #956	; 0x3bc
 8008db0:	681b      	ldr	r3, [r3, #0]
 8008db2:	2b00      	cmp	r3, #0
 8008db4:	f47f af2c 	bne.w	8008c10 <USB_OTG_USBH_handle_ptxfempty_ISR.8121+0x2c>
 8008db8:	2301      	movs	r3, #1
 8008dba:	4618      	mov	r0, r3
 8008dbc:	3744      	adds	r7, #68	; 0x44
 8008dbe:	46bd      	mov	sp, r7
 8008dc0:	f85d 7b04 	ldr.w	r7, [sp], #4
 8008dc4:	4770      	bx	lr
 8008dc6:	bf00      	nop

08008dc8 <USB_OTG_USBH_handle_nptxfempty_ISR.8118>:
USB_OTG_USBH_handle_nptxfempty_ISR.8118():
 8008dc8:	b480      	push	{r7}
 8008dca:	b091      	sub	sp, #68	; 0x44
 8008dcc:	af00      	add	r7, sp, #0
 8008dce:	6078      	str	r0, [r7, #4]
 8008dd0:	687b      	ldr	r3, [r7, #4]
 8008dd2:	68db      	ldr	r3, [r3, #12]
 8008dd4:	6adb      	ldr	r3, [r3, #44]	; 0x2c
 8008dd6:	60bb      	str	r3, [r7, #8]
 8008dd8:	7b3b      	ldrb	r3, [r7, #12]
 8008dda:	f3c3 03c3 	ubfx	r3, r3, #3, #4
 8008dde:	b2db      	uxtb	r3, r3
 8008de0:	687a      	ldr	r2, [r7, #4]
 8008de2:	015b      	lsls	r3, r3, #5
 8008de4:	4413      	add	r3, r2
 8008de6:	f503 736f 	add.w	r3, r3, #956	; 0x3bc
 8008dea:	681b      	ldr	r3, [r3, #0]
 8008dec:	3303      	adds	r3, #3
 8008dee:	089b      	lsrs	r3, r3, #2
 8008df0:	87fb      	strh	r3, [r7, #62]	; 0x3e
 8008df2:	e0c2      	b.n	8008f7a <USB_OTG_USBH_handle_nptxfempty_ISR.8118+0x1b2>
 8008df4:	893b      	ldrh	r3, [r7, #8]
 8008df6:	009b      	lsls	r3, r3, #2
 8008df8:	87bb      	strh	r3, [r7, #60]	; 0x3c
 8008dfa:	8fba      	ldrh	r2, [r7, #60]	; 0x3c
 8008dfc:	7b3b      	ldrb	r3, [r7, #12]
 8008dfe:	f3c3 03c3 	ubfx	r3, r3, #3, #4
 8008e02:	b2db      	uxtb	r3, r3
 8008e04:	6879      	ldr	r1, [r7, #4]
 8008e06:	015b      	lsls	r3, r3, #5
 8008e08:	440b      	add	r3, r1
 8008e0a:	f503 736f 	add.w	r3, r3, #956	; 0x3bc
 8008e0e:	681b      	ldr	r3, [r3, #0]
 8008e10:	429a      	cmp	r2, r3
 8008e12:	d919      	bls.n	8008e48 <USB_OTG_USBH_handle_nptxfempty_ISR.8118+0x80>
 8008e14:	7b3b      	ldrb	r3, [r7, #12]
 8008e16:	f3c3 03c3 	ubfx	r3, r3, #3, #4
 8008e1a:	b2db      	uxtb	r3, r3
 8008e1c:	687a      	ldr	r2, [r7, #4]
 8008e1e:	015b      	lsls	r3, r3, #5
 8008e20:	4413      	add	r3, r2
 8008e22:	f503 736f 	add.w	r3, r3, #956	; 0x3bc
 8008e26:	681b      	ldr	r3, [r3, #0]
 8008e28:	87bb      	strh	r3, [r7, #60]	; 0x3c
 8008e2a:	2300      	movs	r3, #0
 8008e2c:	617b      	str	r3, [r7, #20]
 8008e2e:	7d3b      	ldrb	r3, [r7, #20]
 8008e30:	f043 0320 	orr.w	r3, r3, #32
 8008e34:	753b      	strb	r3, [r7, #20]
 8008e36:	687b      	ldr	r3, [r7, #4]
 8008e38:	68db      	ldr	r3, [r3, #12]
 8008e3a:	687a      	ldr	r2, [r7, #4]
 8008e3c:	68d2      	ldr	r2, [r2, #12]
 8008e3e:	6991      	ldr	r1, [r2, #24]
 8008e40:	697a      	ldr	r2, [r7, #20]
 8008e42:	43d2      	mvns	r2, r2
 8008e44:	400a      	ands	r2, r1
 8008e46:	619a      	str	r2, [r3, #24]
 8008e48:	7b3b      	ldrb	r3, [r7, #12]
 8008e4a:	f3c3 03c3 	ubfx	r3, r3, #3, #4
 8008e4e:	b2db      	uxtb	r3, r3
 8008e50:	687a      	ldr	r2, [r7, #4]
 8008e52:	015b      	lsls	r3, r3, #5
 8008e54:	4413      	add	r3, r2
 8008e56:	f503 736f 	add.w	r3, r3, #956	; 0x3bc
 8008e5a:	681b      	ldr	r3, [r3, #0]
 8008e5c:	3303      	adds	r3, #3
 8008e5e:	089b      	lsrs	r3, r3, #2
 8008e60:	87fb      	strh	r3, [r7, #62]	; 0x3e
 8008e62:	7b3b      	ldrb	r3, [r7, #12]
 8008e64:	f3c3 03c3 	ubfx	r3, r3, #3, #4
 8008e68:	b2db      	uxtb	r3, r3
 8008e6a:	687a      	ldr	r2, [r7, #4]
 8008e6c:	3315      	adds	r3, #21
 8008e6e:	015b      	lsls	r3, r3, #5
 8008e70:	4413      	add	r3, r2
 8008e72:	f503 738c 	add.w	r3, r3, #280	; 0x118
 8008e76:	681a      	ldr	r2, [r3, #0]
 8008e78:	7b3b      	ldrb	r3, [r7, #12]
 8008e7a:	f3c3 03c3 	ubfx	r3, r3, #3, #4
 8008e7e:	b2db      	uxtb	r3, r3
 8008e80:	6879      	ldr	r1, [r7, #4]
 8008e82:	63b9      	str	r1, [r7, #56]	; 0x38
 8008e84:	637a      	str	r2, [r7, #52]	; 0x34
 8008e86:	f887 3033 	strb.w	r3, [r7, #51]	; 0x33
 8008e8a:	8fbb      	ldrh	r3, [r7, #60]	; 0x3c
 8008e8c:	863b      	strh	r3, [r7, #48]	; 0x30
 8008e8e:	6bbb      	ldr	r3, [r7, #56]	; 0x38
 8008e90:	78db      	ldrb	r3, [r3, #3]
 8008e92:	2b00      	cmp	r3, #0
 8008e94:	d129      	bne.n	8008eea <USB_OTG_USBH_handle_nptxfempty_ISR.8118+0x122>
 8008e96:	6bbb      	ldr	r3, [r7, #56]	; 0x38
 8008e98:	62fb      	str	r3, [r7, #44]	; 0x2c
 8008e9a:	6b7b      	ldr	r3, [r7, #52]	; 0x34
 8008e9c:	62bb      	str	r3, [r7, #40]	; 0x28
 8008e9e:	f897 3033 	ldrb.w	r3, [r7, #51]	; 0x33
 8008ea2:	f887 3027 	strb.w	r3, [r7, #39]	; 0x27
 8008ea6:	8e3b      	ldrh	r3, [r7, #48]	; 0x30
 8008ea8:	84bb      	strh	r3, [r7, #36]	; 0x24
 8008eaa:	8cbb      	ldrh	r3, [r7, #36]	; 0x24
 8008eac:	3303      	adds	r3, #3
 8008eae:	2b00      	cmp	r3, #0
 8008eb0:	da00      	bge.n	8008eb4 <USB_OTG_USBH_handle_nptxfempty_ISR.8118+0xec>
 8008eb2:	3303      	adds	r3, #3
 8008eb4:	109b      	asrs	r3, r3, #2
 8008eb6:	623b      	str	r3, [r7, #32]
 8008eb8:	f897 3027 	ldrb.w	r3, [r7, #39]	; 0x27
 8008ebc:	6afa      	ldr	r2, [r7, #44]	; 0x2c
 8008ebe:	3332      	adds	r3, #50	; 0x32
 8008ec0:	009b      	lsls	r3, r3, #2
 8008ec2:	4413      	add	r3, r2
 8008ec4:	689b      	ldr	r3, [r3, #8]
 8008ec6:	61fb      	str	r3, [r7, #28]
 8008ec8:	2300      	movs	r3, #0
 8008eca:	61bb      	str	r3, [r7, #24]
 8008ecc:	e009      	b.n	8008ee2 <USB_OTG_USBH_handle_nptxfempty_ISR.8118+0x11a>
 8008ece:	6abb      	ldr	r3, [r7, #40]	; 0x28
 8008ed0:	681a      	ldr	r2, [r3, #0]
 8008ed2:	69fb      	ldr	r3, [r7, #28]
 8008ed4:	601a      	str	r2, [r3, #0]
 8008ed6:	69bb      	ldr	r3, [r7, #24]
 8008ed8:	3301      	adds	r3, #1
 8008eda:	61bb      	str	r3, [r7, #24]
 8008edc:	6abb      	ldr	r3, [r7, #40]	; 0x28
 8008ede:	3304      	adds	r3, #4
 8008ee0:	62bb      	str	r3, [r7, #40]	; 0x28
 8008ee2:	6a3a      	ldr	r2, [r7, #32]
 8008ee4:	69bb      	ldr	r3, [r7, #24]
 8008ee6:	429a      	cmp	r2, r3
 8008ee8:	d8f1      	bhi.n	8008ece <USB_OTG_USBH_handle_nptxfempty_ISR.8118+0x106>
 8008eea:	7b3b      	ldrb	r3, [r7, #12]
 8008eec:	f3c3 03c3 	ubfx	r3, r3, #3, #4
 8008ef0:	b2db      	uxtb	r3, r3
 8008ef2:	7b3a      	ldrb	r2, [r7, #12]
 8008ef4:	f3c2 02c3 	ubfx	r2, r2, #3, #4
 8008ef8:	b2d2      	uxtb	r2, r2
 8008efa:	6879      	ldr	r1, [r7, #4]
 8008efc:	3215      	adds	r2, #21
 8008efe:	0152      	lsls	r2, r2, #5
 8008f00:	440a      	add	r2, r1
 8008f02:	f502 728c 	add.w	r2, r2, #280	; 0x118
 8008f06:	6811      	ldr	r1, [r2, #0]
 8008f08:	8fba      	ldrh	r2, [r7, #60]	; 0x3c
 8008f0a:	440a      	add	r2, r1
 8008f0c:	6879      	ldr	r1, [r7, #4]
 8008f0e:	3315      	adds	r3, #21
 8008f10:	015b      	lsls	r3, r3, #5
 8008f12:	440b      	add	r3, r1
 8008f14:	f503 738c 	add.w	r3, r3, #280	; 0x118
 8008f18:	601a      	str	r2, [r3, #0]
 8008f1a:	7b3b      	ldrb	r3, [r7, #12]
 8008f1c:	f3c3 03c3 	ubfx	r3, r3, #3, #4
 8008f20:	b2db      	uxtb	r3, r3
 8008f22:	7b3a      	ldrb	r2, [r7, #12]
 8008f24:	f3c2 02c3 	ubfx	r2, r2, #3, #4
 8008f28:	b2d2      	uxtb	r2, r2
 8008f2a:	6879      	ldr	r1, [r7, #4]
 8008f2c:	0152      	lsls	r2, r2, #5
 8008f2e:	440a      	add	r2, r1
 8008f30:	f502 726f 	add.w	r2, r2, #956	; 0x3bc
 8008f34:	6811      	ldr	r1, [r2, #0]
 8008f36:	8fba      	ldrh	r2, [r7, #60]	; 0x3c
 8008f38:	1a8a      	subs	r2, r1, r2
 8008f3a:	6879      	ldr	r1, [r7, #4]
 8008f3c:	015b      	lsls	r3, r3, #5
 8008f3e:	440b      	add	r3, r1
 8008f40:	f503 736f 	add.w	r3, r3, #956	; 0x3bc
 8008f44:	601a      	str	r2, [r3, #0]
 8008f46:	7b3b      	ldrb	r3, [r7, #12]
 8008f48:	f3c3 03c3 	ubfx	r3, r3, #3, #4
 8008f4c:	b2db      	uxtb	r3, r3
 8008f4e:	7b3a      	ldrb	r2, [r7, #12]
 8008f50:	f3c2 02c3 	ubfx	r2, r2, #3, #4
 8008f54:	b2d2      	uxtb	r2, r2
 8008f56:	6879      	ldr	r1, [r7, #4]
 8008f58:	0152      	lsls	r2, r2, #5
 8008f5a:	440a      	add	r2, r1
 8008f5c:	f502 7270 	add.w	r2, r2, #960	; 0x3c0
 8008f60:	6811      	ldr	r1, [r2, #0]
 8008f62:	8fba      	ldrh	r2, [r7, #60]	; 0x3c
 8008f64:	440a      	add	r2, r1
 8008f66:	6879      	ldr	r1, [r7, #4]
 8008f68:	015b      	lsls	r3, r3, #5
 8008f6a:	440b      	add	r3, r1
 8008f6c:	f503 7370 	add.w	r3, r3, #960	; 0x3c0
 8008f70:	601a      	str	r2, [r3, #0]
 8008f72:	687b      	ldr	r3, [r7, #4]
 8008f74:	68db      	ldr	r3, [r3, #12]
 8008f76:	6adb      	ldr	r3, [r3, #44]	; 0x2c
 8008f78:	60bb      	str	r3, [r7, #8]
 8008f7a:	893b      	ldrh	r3, [r7, #8]
 8008f7c:	8ffa      	ldrh	r2, [r7, #62]	; 0x3e
 8008f7e:	429a      	cmp	r2, r3
 8008f80:	d20c      	bcs.n	8008f9c <USB_OTG_USBH_handle_nptxfempty_ISR.8118+0x1d4>
 8008f82:	7b3b      	ldrb	r3, [r7, #12]
 8008f84:	f3c3 03c3 	ubfx	r3, r3, #3, #4
 8008f88:	b2db      	uxtb	r3, r3
 8008f8a:	687a      	ldr	r2, [r7, #4]
 8008f8c:	015b      	lsls	r3, r3, #5
 8008f8e:	4413      	add	r3, r2
 8008f90:	f503 736f 	add.w	r3, r3, #956	; 0x3bc
 8008f94:	681b      	ldr	r3, [r3, #0]
 8008f96:	2b00      	cmp	r3, #0
 8008f98:	f47f af2c 	bne.w	8008df4 <USB_OTG_USBH_handle_nptxfempty_ISR.8118+0x2c>
 8008f9c:	2301      	movs	r3, #1
 8008f9e:	4618      	mov	r0, r3
 8008fa0:	3744      	adds	r7, #68	; 0x44
 8008fa2:	46bd      	mov	sp, r7
 8008fa4:	f85d 7b04 	ldr.w	r7, [sp], #4
 8008fa8:	4770      	bx	lr
 8008faa:	bf00      	nop

08008fac <USB_OTG_USBH_handle_Disconnect_ISR.8115>:
USB_OTG_USBH_handle_Disconnect_ISR.8115():
 8008fac:	b580      	push	{r7, lr}
 8008fae:	b084      	sub	sp, #16
 8008fb0:	af00      	add	r7, sp, #0
 8008fb2:	6078      	str	r0, [r7, #4]
 8008fb4:	2300      	movs	r3, #0
 8008fb6:	60fb      	str	r3, [r7, #12]
 8008fb8:	4b08      	ldr	r3, [pc, #32]	; (8008fdc <USB_OTG_USBH_handle_Disconnect_ISR.8115+0x30>)
 8008fba:	681b      	ldr	r3, [r3, #0]
 8008fbc:	689b      	ldr	r3, [r3, #8]
 8008fbe:	6878      	ldr	r0, [r7, #4]
 8008fc0:	4798      	blx	r3
 8008fc2:	7bfb      	ldrb	r3, [r7, #15]
 8008fc4:	f043 0320 	orr.w	r3, r3, #32
 8008fc8:	73fb      	strb	r3, [r7, #15]
 8008fca:	687b      	ldr	r3, [r7, #4]
 8008fcc:	68db      	ldr	r3, [r3, #12]
 8008fce:	68fa      	ldr	r2, [r7, #12]
 8008fd0:	615a      	str	r2, [r3, #20]
 8008fd2:	2301      	movs	r3, #1
 8008fd4:	4618      	mov	r0, r3
 8008fd6:	3710      	adds	r7, #16
 8008fd8:	46bd      	mov	sp, r7
 8008fda:	bd80      	pop	{r7, pc}
 8008fdc:	0800d6d4 	.word	0x0800d6d4

08008fe0 <USB_OTG_USBH_handle_sof_ISR.7972>:
USB_OTG_USBH_handle_sof_ISR.7972():
 8008fe0:	b580      	push	{r7, lr}
 8008fe2:	b084      	sub	sp, #16
 8008fe4:	af00      	add	r7, sp, #0
 8008fe6:	6078      	str	r0, [r7, #4]
 8008fe8:	2300      	movs	r3, #0
 8008fea:	60fb      	str	r3, [r7, #12]
 8008fec:	4b08      	ldr	r3, [pc, #32]	; (8009010 <USB_OTG_USBH_handle_sof_ISR.7972+0x30>)
 8008fee:	681b      	ldr	r3, [r3, #0]
 8008ff0:	681b      	ldr	r3, [r3, #0]
 8008ff2:	6878      	ldr	r0, [r7, #4]
 8008ff4:	4798      	blx	r3
 8008ff6:	7b3b      	ldrb	r3, [r7, #12]
 8008ff8:	f043 0308 	orr.w	r3, r3, #8
 8008ffc:	733b      	strb	r3, [r7, #12]
 8008ffe:	687b      	ldr	r3, [r7, #4]
 8009000:	68db      	ldr	r3, [r3, #12]
 8009002:	68fa      	ldr	r2, [r7, #12]
 8009004:	615a      	str	r2, [r3, #20]
 8009006:	2301      	movs	r3, #1
 8009008:	4618      	mov	r0, r3
 800900a:	3710      	adds	r7, #16
 800900c:	46bd      	mov	sp, r7
 800900e:	bd80      	pop	{r7, pc}
 8009010:	0800d6d4 	.word	0x0800d6d4

08009014 <Reset_Handler>:
Default_Reset_Handler.4199():
 8009014:	b500      	push	{lr}
 8009016:	484f      	ldr	r0, [pc, #316]	; (8009154 <zero_loop+0x11c>)
 8009018:	4b4f      	ldr	r3, [pc, #316]	; (8009158 <zero_loop+0x120>)
 800901a:	4298      	cmp	r0, r3
 800901c:	b083      	sub	sp, #12
 800901e:	d207      	bcs.n	8009030 <Reset_Handler+0x1c>
 8009020:	43c2      	mvns	r2, r0
 8009022:	4413      	add	r3, r2
 8009024:	f023 0203 	bic.w	r2, r3, #3
 8009028:	3204      	adds	r2, #4
 800902a:	494c      	ldr	r1, [pc, #304]	; (800915c <zero_loop+0x124>)
 800902c:	f001 f818 	bl	800a060 <memcpy>
 8009030:	4852      	ldr	r0, [pc, #328]	; (800917c <zero_loop+0x144>)
 8009032:	4953      	ldr	r1, [pc, #332]	; (8009180 <zero_loop+0x148>)
 8009034:	f04f 0200 	mov.w	r2, #0

08009038 <zero_loop>:
 8009038:	4288      	cmp	r0, r1
 800903a:	bfb8      	it	lt
 800903c:	f840 2b04 	strlt.w	r2, [r0], #4
 8009040:	f6ff affa 	blt.w	8009038 <zero_loop>
 8009044:	f8df 013c 	ldr.w	r0, [pc, #316]	; 8009184 <zero_loop+0x14c>
 8009048:	6801      	ldr	r1, [r0, #0]
 800904a:	f441 0170 	orr.w	r1, r1, #15728640	; 0xf00000
 800904e:	6001      	str	r1, [r0, #0]
 8009050:	4a43      	ldr	r2, [pc, #268]	; (8009160 <zero_loop+0x128>)
 8009052:	4b44      	ldr	r3, [pc, #272]	; (8009164 <zero_loop+0x12c>)
 8009054:	f8d2 1088 	ldr.w	r1, [r2, #136]	; 0x88
 8009058:	4843      	ldr	r0, [pc, #268]	; (8009168 <zero_loop+0x130>)
 800905a:	f441 0170 	orr.w	r1, r1, #15728640	; 0xf00000
 800905e:	f8c2 1088 	str.w	r1, [r2, #136]	; 0x88
 8009062:	6819      	ldr	r1, [r3, #0]
 8009064:	2200      	movs	r2, #0
 8009066:	f041 0101 	orr.w	r1, r1, #1
 800906a:	6019      	str	r1, [r3, #0]
 800906c:	609a      	str	r2, [r3, #8]
 800906e:	6819      	ldr	r1, [r3, #0]
 8009070:	f021 7184 	bic.w	r1, r1, #17301504	; 0x1080000
 8009074:	f421 3180 	bic.w	r1, r1, #65536	; 0x10000
 8009078:	6019      	str	r1, [r3, #0]
 800907a:	6058      	str	r0, [r3, #4]
 800907c:	6819      	ldr	r1, [r3, #0]
 800907e:	f421 2180 	bic.w	r1, r1, #262144	; 0x40000
 8009082:	6019      	str	r1, [r3, #0]
 8009084:	60da      	str	r2, [r3, #12]
 8009086:	9200      	str	r2, [sp, #0]
 8009088:	9201      	str	r2, [sp, #4]
 800908a:	681a      	ldr	r2, [r3, #0]
 800908c:	f442 3280 	orr.w	r2, r2, #65536	; 0x10000
 8009090:	601a      	str	r2, [r3, #0]
 8009092:	461a      	mov	r2, r3
 8009094:	e003      	b.n	800909e <zero_loop+0x66>
 8009096:	9b00      	ldr	r3, [sp, #0]
 8009098:	f5b3 4fa0 	cmp.w	r3, #20480	; 0x5000
 800909c:	d009      	beq.n	80090b2 <zero_loop+0x7a>
 800909e:	6813      	ldr	r3, [r2, #0]
 80090a0:	f403 3300 	and.w	r3, r3, #131072	; 0x20000
 80090a4:	9301      	str	r3, [sp, #4]
 80090a6:	9b00      	ldr	r3, [sp, #0]
 80090a8:	3301      	adds	r3, #1
 80090aa:	9300      	str	r3, [sp, #0]
 80090ac:	9b01      	ldr	r3, [sp, #4]
 80090ae:	2b00      	cmp	r3, #0
 80090b0:	d0f1      	beq.n	8009096 <zero_loop+0x5e>
 80090b2:	4b2c      	ldr	r3, [pc, #176]	; (8009164 <zero_loop+0x12c>)
 80090b4:	681b      	ldr	r3, [r3, #0]
 80090b6:	f413 3300 	ands.w	r3, r3, #131072	; 0x20000
 80090ba:	bf18      	it	ne
 80090bc:	2301      	movne	r3, #1
 80090be:	9301      	str	r3, [sp, #4]
 80090c0:	9b01      	ldr	r3, [sp, #4]
 80090c2:	2b01      	cmp	r3, #1
 80090c4:	d014      	beq.n	80090f0 <zero_loop+0xb8>
 80090c6:	4a27      	ldr	r2, [pc, #156]	; (8009164 <zero_loop+0x12c>)
 80090c8:	4b28      	ldr	r3, [pc, #160]	; (800916c <zero_loop+0x134>)
 80090ca:	6891      	ldr	r1, [r2, #8]
 80090cc:	f421 0100 	bic.w	r1, r1, #8388608	; 0x800000
 80090d0:	6091      	str	r1, [r2, #8]
 80090d2:	f8c2 3084 	str.w	r3, [r2, #132]	; 0x84
 80090d6:	6813      	ldr	r3, [r2, #0]
 80090d8:	f043 6380 	orr.w	r3, r3, #67108864	; 0x4000000
 80090dc:	6013      	str	r3, [r2, #0]
 80090de:	6813      	ldr	r3, [r2, #0]
 80090e0:	011b      	lsls	r3, r3, #4
 80090e2:	d5fc      	bpl.n	80090de <zero_loop+0xa6>
 80090e4:	4b1e      	ldr	r3, [pc, #120]	; (8009160 <zero_loop+0x128>)
 80090e6:	f04f 6200 	mov.w	r2, #134217728	; 0x8000000
 80090ea:	609a      	str	r2, [r3, #8]
 80090ec:	f7f7 f84c 	bl	8000188 <main>
 80090f0:	4b1c      	ldr	r3, [pc, #112]	; (8009164 <zero_loop+0x12c>)
 80090f2:	4a1f      	ldr	r2, [pc, #124]	; (8009170 <zero_loop+0x138>)
 80090f4:	6c18      	ldr	r0, [r3, #64]	; 0x40
 80090f6:	491f      	ldr	r1, [pc, #124]	; (8009174 <zero_loop+0x13c>)
 80090f8:	f040 5080 	orr.w	r0, r0, #268435456	; 0x10000000
 80090fc:	6418      	str	r0, [r3, #64]	; 0x40
 80090fe:	6810      	ldr	r0, [r2, #0]
 8009100:	f440 4040 	orr.w	r0, r0, #49152	; 0xc000
 8009104:	6010      	str	r0, [r2, #0]
 8009106:	689a      	ldr	r2, [r3, #8]
 8009108:	609a      	str	r2, [r3, #8]
 800910a:	689a      	ldr	r2, [r3, #8]
 800910c:	f442 4200 	orr.w	r2, r2, #32768	; 0x8000
 8009110:	609a      	str	r2, [r3, #8]
 8009112:	689a      	ldr	r2, [r3, #8]
 8009114:	f442 52a0 	orr.w	r2, r2, #5120	; 0x1400
 8009118:	609a      	str	r2, [r3, #8]
 800911a:	6059      	str	r1, [r3, #4]
 800911c:	681a      	ldr	r2, [r3, #0]
 800911e:	f042 7280 	orr.w	r2, r2, #16777216	; 0x1000000
 8009122:	601a      	str	r2, [r3, #0]
 8009124:	4619      	mov	r1, r3
 8009126:	680b      	ldr	r3, [r1, #0]
 8009128:	4a0e      	ldr	r2, [pc, #56]	; (8009164 <zero_loop+0x12c>)
 800912a:	0198      	lsls	r0, r3, #6
 800912c:	d5fb      	bpl.n	8009126 <zero_loop+0xee>
 800912e:	4b12      	ldr	r3, [pc, #72]	; (8009178 <zero_loop+0x140>)
 8009130:	f240 7105 	movw	r1, #1797	; 0x705
 8009134:	6019      	str	r1, [r3, #0]
 8009136:	6893      	ldr	r3, [r2, #8]
 8009138:	f023 0303 	bic.w	r3, r3, #3
 800913c:	6093      	str	r3, [r2, #8]
 800913e:	6893      	ldr	r3, [r2, #8]
 8009140:	f043 0302 	orr.w	r3, r3, #2
 8009144:	6093      	str	r3, [r2, #8]
 8009146:	6893      	ldr	r3, [r2, #8]
 8009148:	f003 030c 	and.w	r3, r3, #12
 800914c:	2b08      	cmp	r3, #8
 800914e:	d1fa      	bne.n	8009146 <zero_loop+0x10e>
 8009150:	e7b9      	b.n	80090c6 <zero_loop+0x8e>
 8009152:	bf00      	nop
 8009154:	20000000 	.word	0x20000000
 8009158:	200004dc 	.word	0x200004dc
 800915c:	0800daec 	.word	0x0800daec
 8009160:	e000ed00 	.word	0xe000ed00
 8009164:	40023800 	.word	0x40023800
 8009168:	24003010 	.word	0x24003010
 800916c:	30004080 	.word	0x30004080
 8009170:	40007000 	.word	0x40007000
 8009174:	07405408 	.word	0x07405408
 8009178:	40023c00 	.word	0x40023c00
$d():
 800917c:	200004dc 	.word	0x200004dc
 8009180:	20015340 	.word	0x20015340
 8009184:	e000ed88 	.word	0xe000ed88

08009188 <USB_OTG_USBH_handle_IncompletePeriodicXfer_ISR.8141.4166>:
USB_OTG_USBH_handle_IncompletePeriodicXfer_ISR.8141.4166():
 8009188:	b480      	push	{r7}
 800918a:	b085      	sub	sp, #20
 800918c:	af00      	add	r7, sp, #0
 800918e:	6078      	str	r0, [r7, #4]
 8009190:	687b      	ldr	r3, [r7, #4]
 8009192:	f8d3 3090 	ldr.w	r3, [r3, #144]	; 0x90
 8009196:	681b      	ldr	r3, [r3, #0]
 8009198:	60bb      	str	r3, [r7, #8]
 800919a:	7afb      	ldrb	r3, [r7, #11]
 800919c:	f043 0380 	orr.w	r3, r3, #128	; 0x80
 80091a0:	72fb      	strb	r3, [r7, #11]
 80091a2:	7afb      	ldrb	r3, [r7, #11]
 80091a4:	f043 0340 	orr.w	r3, r3, #64	; 0x40
 80091a8:	72fb      	strb	r3, [r7, #11]
 80091aa:	687b      	ldr	r3, [r7, #4]
 80091ac:	f8d3 3090 	ldr.w	r3, [r3, #144]	; 0x90
 80091b0:	68ba      	ldr	r2, [r7, #8]
 80091b2:	601a      	str	r2, [r3, #0]
 80091b4:	2300      	movs	r3, #0
 80091b6:	60fb      	str	r3, [r7, #12]
 80091b8:	7bbb      	ldrb	r3, [r7, #14]
 80091ba:	f043 0320 	orr.w	r3, r3, #32
 80091be:	73bb      	strb	r3, [r7, #14]
 80091c0:	687b      	ldr	r3, [r7, #4]
 80091c2:	68db      	ldr	r3, [r3, #12]
 80091c4:	68fa      	ldr	r2, [r7, #12]
 80091c6:	615a      	str	r2, [r3, #20]
 80091c8:	2301      	movs	r3, #1
 80091ca:	4618      	mov	r0, r3
 80091cc:	3714      	adds	r7, #20
 80091ce:	46bd      	mov	sp, r7
 80091d0:	f85d 7b04 	ldr.w	r7, [sp], #4
 80091d4:	4770      	bx	lr
 80091d6:	bf00      	nop

080091d8 <USB_OTG_USBH_handle_rx_qlvl_ISR.8138.4169>:
USB_OTG_USBH_handle_rx_qlvl_ISR.8138.4169():
 80091d8:	b480      	push	{r7}
 80091da:	b08f      	sub	sp, #60	; 0x3c
 80091dc:	af00      	add	r7, sp, #0
 80091de:	6078      	str	r0, [r7, #4]
 80091e0:	2300      	movs	r3, #0
 80091e2:	72fb      	strb	r3, [r7, #11]
 80091e4:	2300      	movs	r3, #0
 80091e6:	617b      	str	r3, [r7, #20]
 80091e8:	7d3b      	ldrb	r3, [r7, #20]
 80091ea:	f043 0310 	orr.w	r3, r3, #16
 80091ee:	753b      	strb	r3, [r7, #20]
 80091f0:	687b      	ldr	r3, [r7, #4]
 80091f2:	68db      	ldr	r3, [r3, #12]
 80091f4:	687a      	ldr	r2, [r7, #4]
 80091f6:	68d2      	ldr	r2, [r2, #12]
 80091f8:	6991      	ldr	r1, [r2, #24]
 80091fa:	697a      	ldr	r2, [r7, #20]
 80091fc:	43d2      	mvns	r2, r2
 80091fe:	400a      	ands	r2, r1
 8009200:	619a      	str	r2, [r3, #24]
 8009202:	687b      	ldr	r3, [r7, #4]
 8009204:	68db      	ldr	r3, [r3, #12]
 8009206:	6a1b      	ldr	r3, [r3, #32]
 8009208:	61bb      	str	r3, [r7, #24]
 800920a:	7e3b      	ldrb	r3, [r7, #24]
 800920c:	f3c3 0303 	ubfx	r3, r3, #0, #4
 8009210:	b2db      	uxtb	r3, r3
 8009212:	72fb      	strb	r3, [r7, #11]
 8009214:	7afb      	ldrb	r3, [r7, #11]
 8009216:	b2db      	uxtb	r3, r3
 8009218:	687a      	ldr	r2, [r7, #4]
 800921a:	3322      	adds	r3, #34	; 0x22
 800921c:	009b      	lsls	r3, r3, #2
 800921e:	4413      	add	r3, r2
 8009220:	689b      	ldr	r3, [r3, #8]
 8009222:	681b      	ldr	r3, [r3, #0]
 8009224:	60fb      	str	r3, [r7, #12]
 8009226:	7ebb      	ldrb	r3, [r7, #26]
 8009228:	f3c3 0343 	ubfx	r3, r3, #1, #4
 800922c:	b2db      	uxtb	r3, r3
 800922e:	2b02      	cmp	r3, #2
 8009230:	f040 80a5 	bne.w	800937e <USB_OTG_USBH_handle_rx_qlvl_ISR.8138.4169+0x1a6>
 8009234:	8b3b      	ldrh	r3, [r7, #24]
 8009236:	f3c3 130a 	ubfx	r3, r3, #4, #11
 800923a:	b29b      	uxth	r3, r3
 800923c:	2b00      	cmp	r3, #0
 800923e:	f340 809e 	ble.w	800937e <USB_OTG_USBH_handle_rx_qlvl_ISR.8138.4169+0x1a6>
 8009242:	7afb      	ldrb	r3, [r7, #11]
 8009244:	b2db      	uxtb	r3, r3
 8009246:	687a      	ldr	r2, [r7, #4]
 8009248:	3315      	adds	r3, #21
 800924a:	015b      	lsls	r3, r3, #5
 800924c:	4413      	add	r3, r2
 800924e:	f503 738c 	add.w	r3, r3, #280	; 0x118
 8009252:	681b      	ldr	r3, [r3, #0]
 8009254:	2b00      	cmp	r3, #0
 8009256:	f000 8092 	beq.w	800937e <USB_OTG_USBH_handle_rx_qlvl_ISR.8138.4169+0x1a6>
 800925a:	7afb      	ldrb	r3, [r7, #11]
 800925c:	b2db      	uxtb	r3, r3
 800925e:	687a      	ldr	r2, [r7, #4]
 8009260:	3315      	adds	r3, #21
 8009262:	015b      	lsls	r3, r3, #5
 8009264:	4413      	add	r3, r2
 8009266:	f503 738c 	add.w	r3, r3, #280	; 0x118
 800926a:	681a      	ldr	r2, [r3, #0]
 800926c:	8b3b      	ldrh	r3, [r7, #24]
 800926e:	f3c3 130a 	ubfx	r3, r3, #4, #11
 8009272:	b29b      	uxth	r3, r3
 8009274:	6879      	ldr	r1, [r7, #4]
 8009276:	6339      	str	r1, [r7, #48]	; 0x30
 8009278:	62fa      	str	r2, [r7, #44]	; 0x2c
 800927a:	857b      	strh	r3, [r7, #42]	; 0x2a
 800927c:	8d7b      	ldrh	r3, [r7, #42]	; 0x2a
 800927e:	3303      	adds	r3, #3
 8009280:	2b00      	cmp	r3, #0
 8009282:	da00      	bge.n	8009286 <USB_OTG_USBH_handle_rx_qlvl_ISR.8138.4169+0xae>
 8009284:	3303      	adds	r3, #3
 8009286:	109b      	asrs	r3, r3, #2
 8009288:	627b      	str	r3, [r7, #36]	; 0x24
 800928a:	6b3b      	ldr	r3, [r7, #48]	; 0x30
 800928c:	f8d3 30d0 	ldr.w	r3, [r3, #208]	; 0xd0
 8009290:	623b      	str	r3, [r7, #32]
 8009292:	2300      	movs	r3, #0
 8009294:	61fb      	str	r3, [r7, #28]
 8009296:	e009      	b.n	80092ac <USB_OTG_USBH_handle_rx_qlvl_ISR.8138.4169+0xd4>
 8009298:	6a3b      	ldr	r3, [r7, #32]
 800929a:	681a      	ldr	r2, [r3, #0]
 800929c:	6afb      	ldr	r3, [r7, #44]	; 0x2c
 800929e:	601a      	str	r2, [r3, #0]
 80092a0:	69fb      	ldr	r3, [r7, #28]
 80092a2:	3301      	adds	r3, #1
 80092a4:	61fb      	str	r3, [r7, #28]
 80092a6:	6afb      	ldr	r3, [r7, #44]	; 0x2c
 80092a8:	3304      	adds	r3, #4
 80092aa:	62fb      	str	r3, [r7, #44]	; 0x2c
 80092ac:	6a7a      	ldr	r2, [r7, #36]	; 0x24
 80092ae:	69fb      	ldr	r3, [r7, #28]
 80092b0:	429a      	cmp	r2, r3
 80092b2:	d8f1      	bhi.n	8009298 <USB_OTG_USBH_handle_rx_qlvl_ISR.8138.4169+0xc0>
 80092b4:	7e3b      	ldrb	r3, [r7, #24]
 80092b6:	f3c3 0303 	ubfx	r3, r3, #0, #4
 80092ba:	b2db      	uxtb	r3, r3
 80092bc:	7e3a      	ldrb	r2, [r7, #24]
 80092be:	f3c2 0203 	ubfx	r2, r2, #0, #4
 80092c2:	b2d2      	uxtb	r2, r2
 80092c4:	6879      	ldr	r1, [r7, #4]
 80092c6:	3215      	adds	r2, #21
 80092c8:	0152      	lsls	r2, r2, #5
 80092ca:	440a      	add	r2, r1
 80092cc:	f502 728c 	add.w	r2, r2, #280	; 0x118
 80092d0:	6811      	ldr	r1, [r2, #0]
 80092d2:	8b3a      	ldrh	r2, [r7, #24]
 80092d4:	f3c2 120a 	ubfx	r2, r2, #4, #11
 80092d8:	b292      	uxth	r2, r2
 80092da:	440a      	add	r2, r1
 80092dc:	6879      	ldr	r1, [r7, #4]
 80092de:	3315      	adds	r3, #21
 80092e0:	015b      	lsls	r3, r3, #5
 80092e2:	440b      	add	r3, r1
 80092e4:	f503 738c 	add.w	r3, r3, #280	; 0x118
 80092e8:	601a      	str	r2, [r3, #0]
 80092ea:	7e3b      	ldrb	r3, [r7, #24]
 80092ec:	f3c3 0303 	ubfx	r3, r3, #0, #4
 80092f0:	b2db      	uxtb	r3, r3
 80092f2:	7e3a      	ldrb	r2, [r7, #24]
 80092f4:	f3c2 0203 	ubfx	r2, r2, #0, #4
 80092f8:	b2d2      	uxtb	r2, r2
 80092fa:	6879      	ldr	r1, [r7, #4]
 80092fc:	0152      	lsls	r2, r2, #5
 80092fe:	440a      	add	r2, r1
 8009300:	f502 7270 	add.w	r2, r2, #960	; 0x3c0
 8009304:	6811      	ldr	r1, [r2, #0]
 8009306:	8b3a      	ldrh	r2, [r7, #24]
 8009308:	f3c2 120a 	ubfx	r2, r2, #4, #11
 800930c:	b292      	uxth	r2, r2
 800930e:	440a      	add	r2, r1
 8009310:	6879      	ldr	r1, [r7, #4]
 8009312:	015b      	lsls	r3, r3, #5
 8009314:	440b      	add	r3, r1
 8009316:	f503 7370 	add.w	r3, r3, #960	; 0x3c0
 800931a:	601a      	str	r2, [r3, #0]
 800931c:	7afb      	ldrb	r3, [r7, #11]
 800931e:	b2db      	uxtb	r3, r3
 8009320:	687a      	ldr	r2, [r7, #4]
 8009322:	015b      	lsls	r3, r3, #5
 8009324:	4413      	add	r3, r2
 8009326:	f503 7370 	add.w	r3, r3, #960	; 0x3c0
 800932a:	681b      	ldr	r3, [r3, #0]
 800932c:	637b      	str	r3, [r7, #52]	; 0x34
 800932e:	7afb      	ldrb	r3, [r7, #11]
 8009330:	b2db      	uxtb	r3, r3
 8009332:	461a      	mov	r2, r3
 8009334:	687b      	ldr	r3, [r7, #4]
 8009336:	32d4      	adds	r2, #212	; 0xd4
 8009338:	6b79      	ldr	r1, [r7, #52]	; 0x34
 800933a:	f843 1022 	str.w	r1, [r3, r2, lsl #2]
 800933e:	7afb      	ldrb	r3, [r7, #11]
 8009340:	b2db      	uxtb	r3, r3
 8009342:	687a      	ldr	r2, [r7, #4]
 8009344:	3322      	adds	r3, #34	; 0x22
 8009346:	009b      	lsls	r3, r3, #2
 8009348:	4413      	add	r3, r2
 800934a:	689b      	ldr	r3, [r3, #8]
 800934c:	691b      	ldr	r3, [r3, #16]
 800934e:	613b      	str	r3, [r7, #16]
 8009350:	8a7b      	ldrh	r3, [r7, #18]
 8009352:	f3c3 03c9 	ubfx	r3, r3, #3, #10
 8009356:	b29b      	uxth	r3, r3
 8009358:	2b00      	cmp	r3, #0
 800935a:	dd10      	ble.n	800937e <USB_OTG_USBH_handle_rx_qlvl_ISR.8138.4169+0x1a6>
 800935c:	7bfb      	ldrb	r3, [r7, #15]
 800935e:	f043 0380 	orr.w	r3, r3, #128	; 0x80
 8009362:	73fb      	strb	r3, [r7, #15]
 8009364:	7bfb      	ldrb	r3, [r7, #15]
 8009366:	f36f 1386 	bfc	r3, #6, #1
 800936a:	73fb      	strb	r3, [r7, #15]
 800936c:	7afb      	ldrb	r3, [r7, #11]
 800936e:	b2db      	uxtb	r3, r3
 8009370:	687a      	ldr	r2, [r7, #4]
 8009372:	3322      	adds	r3, #34	; 0x22
 8009374:	009b      	lsls	r3, r3, #2
 8009376:	4413      	add	r3, r2
 8009378:	689b      	ldr	r3, [r3, #8]
 800937a:	68fa      	ldr	r2, [r7, #12]
 800937c:	601a      	str	r2, [r3, #0]
 800937e:	7d3b      	ldrb	r3, [r7, #20]
 8009380:	f043 0310 	orr.w	r3, r3, #16
 8009384:	753b      	strb	r3, [r7, #20]
 8009386:	687b      	ldr	r3, [r7, #4]
 8009388:	68db      	ldr	r3, [r3, #12]
 800938a:	687a      	ldr	r2, [r7, #4]
 800938c:	68d2      	ldr	r2, [r2, #12]
 800938e:	6991      	ldr	r1, [r2, #24]
 8009390:	697a      	ldr	r2, [r7, #20]
 8009392:	430a      	orrs	r2, r1
 8009394:	619a      	str	r2, [r3, #24]
 8009396:	2301      	movs	r3, #1
 8009398:	4618      	mov	r0, r3
 800939a:	373c      	adds	r7, #60	; 0x3c
 800939c:	46bd      	mov	sp, r7
 800939e:	f85d 7b04 	ldr.w	r7, [sp], #4
 80093a2:	4770      	bx	lr

080093a4 <USB_OTG_USBH_handle_hc_n_In_ISR.8131.4183>:
USB_OTG_USBH_handle_hc_n_In_ISR.8131.4183():
 80093a4:	b480      	push	{r7}
 80093a6:	b0cd      	sub	sp, #308	; 0x134
 80093a8:	af00      	add	r7, sp, #0
 80093aa:	1d3b      	adds	r3, r7, #4
 80093ac:	6018      	str	r0, [r3, #0]
 80093ae:	463b      	mov	r3, r7
 80093b0:	6019      	str	r1, [r3, #0]
 80093b2:	1d3b      	adds	r3, r7, #4
 80093b4:	681a      	ldr	r2, [r3, #0]
 80093b6:	463b      	mov	r3, r7
 80093b8:	681b      	ldr	r3, [r3, #0]
 80093ba:	3322      	adds	r3, #34	; 0x22
 80093bc:	009b      	lsls	r3, r3, #2
 80093be:	4413      	add	r3, r2
 80093c0:	689b      	ldr	r3, [r3, #8]
 80093c2:	f8c7 312c 	str.w	r3, [r7, #300]	; 0x12c
 80093c6:	f8d7 312c 	ldr.w	r3, [r7, #300]	; 0x12c
 80093ca:	689b      	ldr	r3, [r3, #8]
 80093cc:	f8c7 30f8 	str.w	r3, [r7, #248]	; 0xf8
 80093d0:	f8d7 312c 	ldr.w	r3, [r7, #300]	; 0x12c
 80093d4:	68db      	ldr	r3, [r3, #12]
 80093d6:	f8c7 30f4 	str.w	r3, [r7, #244]	; 0xf4
 80093da:	f8d7 20f8 	ldr.w	r2, [r7, #248]	; 0xf8
 80093de:	f8d7 30f4 	ldr.w	r3, [r7, #244]	; 0xf4
 80093e2:	4013      	ands	r3, r2
 80093e4:	f8c7 30f8 	str.w	r3, [r7, #248]	; 0xf8
 80093e8:	1d3b      	adds	r3, r7, #4
 80093ea:	681a      	ldr	r2, [r3, #0]
 80093ec:	463b      	mov	r3, r7
 80093ee:	681b      	ldr	r3, [r3, #0]
 80093f0:	3322      	adds	r3, #34	; 0x22
 80093f2:	009b      	lsls	r3, r3, #2
 80093f4:	4413      	add	r3, r2
 80093f6:	689b      	ldr	r3, [r3, #8]
 80093f8:	681b      	ldr	r3, [r3, #0]
 80093fa:	f8c7 30f0 	str.w	r3, [r7, #240]	; 0xf0
 80093fe:	2300      	movs	r3, #0
 8009400:	f8c7 30f4 	str.w	r3, [r7, #244]	; 0xf4
 8009404:	f897 30f8 	ldrb.w	r3, [r7, #248]	; 0xf8
 8009408:	f3c3 0380 	ubfx	r3, r3, #2, #1
 800940c:	b2db      	uxtb	r3, r3
 800940e:	2b00      	cmp	r3, #0
 8009410:	d02e      	beq.n	8009470 <USB_OTG_USBH_handle_hc_n_In_ISR.8131.4183+0xcc>
 8009412:	f107 030c 	add.w	r3, r7, #12
 8009416:	2200      	movs	r2, #0
 8009418:	601a      	str	r2, [r3, #0]
 800941a:	f107 020c 	add.w	r2, r7, #12
 800941e:	7813      	ldrb	r3, [r2, #0]
 8009420:	f043 0304 	orr.w	r3, r3, #4
 8009424:	7013      	strb	r3, [r2, #0]
 8009426:	f107 030c 	add.w	r3, r7, #12
 800942a:	681a      	ldr	r2, [r3, #0]
 800942c:	f8d7 312c 	ldr.w	r3, [r7, #300]	; 0x12c
 8009430:	609a      	str	r2, [r3, #8]
 8009432:	1d3b      	adds	r3, r7, #4
 8009434:	681a      	ldr	r2, [r3, #0]
 8009436:	463b      	mov	r3, r7
 8009438:	681b      	ldr	r3, [r3, #0]
 800943a:	3322      	adds	r3, #34	; 0x22
 800943c:	009b      	lsls	r3, r3, #2
 800943e:	4413      	add	r3, r2
 8009440:	689b      	ldr	r3, [r3, #8]
 8009442:	68da      	ldr	r2, [r3, #12]
 8009444:	f107 0310 	add.w	r3, r7, #16
 8009448:	601a      	str	r2, [r3, #0]
 800944a:	f107 0210 	add.w	r2, r7, #16
 800944e:	7813      	ldrb	r3, [r2, #0]
 8009450:	f043 0302 	orr.w	r3, r3, #2
 8009454:	7013      	strb	r3, [r2, #0]
 8009456:	1d3b      	adds	r3, r7, #4
 8009458:	681a      	ldr	r2, [r3, #0]
 800945a:	463b      	mov	r3, r7
 800945c:	681b      	ldr	r3, [r3, #0]
 800945e:	3322      	adds	r3, #34	; 0x22
 8009460:	009b      	lsls	r3, r3, #2
 8009462:	4413      	add	r3, r2
 8009464:	689b      	ldr	r3, [r3, #8]
 8009466:	f107 0210 	add.w	r2, r7, #16
 800946a:	6812      	ldr	r2, [r2, #0]
 800946c:	60da      	str	r2, [r3, #12]
 800946e:	e14f      	b.n	8009710 <USB_OTG_USBH_handle_hc_n_In_ISR.8131.4183+0x36c>
 8009470:	f897 30f8 	ldrb.w	r3, [r7, #248]	; 0xf8
 8009474:	f3c3 1340 	ubfx	r3, r3, #5, #1
 8009478:	b2db      	uxtb	r3, r3
 800947a:	2b00      	cmp	r3, #0
 800947c:	d010      	beq.n	80094a0 <USB_OTG_USBH_handle_hc_n_In_ISR.8131.4183+0xfc>
 800947e:	f107 0314 	add.w	r3, r7, #20
 8009482:	2200      	movs	r2, #0
 8009484:	601a      	str	r2, [r3, #0]
 8009486:	f107 0214 	add.w	r2, r7, #20
 800948a:	7813      	ldrb	r3, [r2, #0]
 800948c:	f043 0320 	orr.w	r3, r3, #32
 8009490:	7013      	strb	r3, [r2, #0]
 8009492:	f107 0314 	add.w	r3, r7, #20
 8009496:	681a      	ldr	r2, [r3, #0]
 8009498:	f8d7 312c 	ldr.w	r3, [r7, #300]	; 0x12c
 800949c:	609a      	str	r2, [r3, #8]
 800949e:	e137      	b.n	8009710 <USB_OTG_USBH_handle_hc_n_In_ISR.8131.4183+0x36c>
 80094a0:	f897 30f8 	ldrb.w	r3, [r7, #248]	; 0xf8
 80094a4:	f3c3 03c0 	ubfx	r3, r3, #3, #1
 80094a8:	b2db      	uxtb	r3, r3
 80094aa:	2b00      	cmp	r3, #0
 80094ac:	f000 8097 	beq.w	80095de <USB_OTG_USBH_handle_hc_n_In_ISR.8131.4183+0x23a>
 80094b0:	1d3b      	adds	r3, r7, #4
 80094b2:	681a      	ldr	r2, [r3, #0]
 80094b4:	463b      	mov	r3, r7
 80094b6:	681b      	ldr	r3, [r3, #0]
 80094b8:	3322      	adds	r3, #34	; 0x22
 80094ba:	009b      	lsls	r3, r3, #2
 80094bc:	4413      	add	r3, r2
 80094be:	689b      	ldr	r3, [r3, #8]
 80094c0:	68da      	ldr	r2, [r3, #12]
 80094c2:	f107 0318 	add.w	r3, r7, #24
 80094c6:	601a      	str	r2, [r3, #0]
 80094c8:	f107 0218 	add.w	r2, r7, #24
 80094cc:	7813      	ldrb	r3, [r2, #0]
 80094ce:	f043 0302 	orr.w	r3, r3, #2
 80094d2:	7013      	strb	r3, [r2, #0]
 80094d4:	1d3b      	adds	r3, r7, #4
 80094d6:	681a      	ldr	r2, [r3, #0]
 80094d8:	463b      	mov	r3, r7
 80094da:	681b      	ldr	r3, [r3, #0]
 80094dc:	3322      	adds	r3, #34	; 0x22
 80094de:	009b      	lsls	r3, r3, #2
 80094e0:	4413      	add	r3, r2
 80094e2:	689b      	ldr	r3, [r3, #8]
 80094e4:	f107 0218 	add.w	r2, r7, #24
 80094e8:	6812      	ldr	r2, [r2, #0]
 80094ea:	60da      	str	r2, [r3, #12]
 80094ec:	1d3b      	adds	r3, r7, #4
 80094ee:	681a      	ldr	r2, [r3, #0]
 80094f0:	463b      	mov	r3, r7
 80094f2:	681b      	ldr	r3, [r3, #0]
 80094f4:	4413      	add	r3, r2
 80094f6:	f503 7362 	add.w	r3, r3, #904	; 0x388
 80094fa:	2205      	movs	r2, #5
 80094fc:	711a      	strb	r2, [r3, #4]
 80094fe:	f107 031c 	add.w	r3, r7, #28
 8009502:	2200      	movs	r2, #0
 8009504:	601a      	str	r2, [r3, #0]
 8009506:	f107 021c 	add.w	r2, r7, #28
 800950a:	7813      	ldrb	r3, [r2, #0]
 800950c:	f043 0310 	orr.w	r3, r3, #16
 8009510:	7013      	strb	r3, [r2, #0]
 8009512:	f107 031c 	add.w	r3, r7, #28
 8009516:	681a      	ldr	r2, [r3, #0]
 8009518:	f8d7 312c 	ldr.w	r3, [r7, #300]	; 0x12c
 800951c:	609a      	str	r2, [r3, #8]
 800951e:	f107 0320 	add.w	r3, r7, #32
 8009522:	2200      	movs	r2, #0
 8009524:	601a      	str	r2, [r3, #0]
 8009526:	f107 0220 	add.w	r2, r7, #32
 800952a:	7813      	ldrb	r3, [r2, #0]
 800952c:	f043 0308 	orr.w	r3, r3, #8
 8009530:	7013      	strb	r3, [r2, #0]
 8009532:	f107 0320 	add.w	r3, r7, #32
 8009536:	681a      	ldr	r2, [r3, #0]
 8009538:	f8d7 312c 	ldr.w	r3, [r7, #300]	; 0x12c
 800953c:	609a      	str	r2, [r3, #8]
 800953e:	f897 30f8 	ldrb.w	r3, [r7, #248]	; 0xf8
 8009542:	f36f 1304 	bfc	r3, #4, #1
 8009546:	f887 30f8 	strb.w	r3, [r7, #248]	; 0xf8
 800954a:	463b      	mov	r3, r7
 800954c:	681b      	ldr	r3, [r3, #0]
 800954e:	b2db      	uxtb	r3, r3
 8009550:	1d3a      	adds	r2, r7, #4
 8009552:	6812      	ldr	r2, [r2, #0]
 8009554:	f8c7 2128 	str.w	r2, [r7, #296]	; 0x128
 8009558:	f887 3127 	strb.w	r3, [r7, #295]	; 0x127
 800955c:	f897 3127 	ldrb.w	r3, [r7, #295]	; 0x127
 8009560:	f8d7 2128 	ldr.w	r2, [r7, #296]	; 0x128
 8009564:	3322      	adds	r3, #34	; 0x22
 8009566:	009b      	lsls	r3, r3, #2
 8009568:	4413      	add	r3, r2
 800956a:	689a      	ldr	r2, [r3, #8]
 800956c:	6813      	ldr	r3, [r2, #0]
 800956e:	65fb      	str	r3, [r7, #92]	; 0x5c
 8009570:	f897 305f 	ldrb.w	r3, [r7, #95]	; 0x5f
 8009574:	f043 0380 	orr.w	r3, r3, #128	; 0x80
 8009578:	f887 305f 	strb.w	r3, [r7, #95]	; 0x5f
 800957c:	f897 305f 	ldrb.w	r3, [r7, #95]	; 0x5f
 8009580:	f043 0340 	orr.w	r3, r3, #64	; 0x40
 8009584:	f887 305f 	strb.w	r3, [r7, #95]	; 0x5f
 8009588:	f897 305e 	ldrb.w	r3, [r7, #94]	; 0x5e
 800958c:	f3c3 0381 	ubfx	r3, r3, #2, #2
 8009590:	b2db      	uxtb	r3, r3
 8009592:	2b00      	cmp	r3, #0
 8009594:	d001      	beq.n	800959a <USB_OTG_USBH_handle_hc_n_In_ISR.8131.4183+0x1f6>
 8009596:	2b02      	cmp	r3, #2
 8009598:	d10f      	bne.n	80095ba <USB_OTG_USBH_handle_hc_n_In_ISR.8131.4183+0x216>
 800959a:	f8d7 3128 	ldr.w	r3, [r7, #296]	; 0x128
 800959e:	68db      	ldr	r3, [r3, #12]
 80095a0:	6adb      	ldr	r3, [r3, #44]	; 0x2c
 80095a2:	66bb      	str	r3, [r7, #104]	; 0x68
 80095a4:	f897 306a 	ldrb.w	r3, [r7, #106]	; 0x6a
 80095a8:	2b00      	cmp	r3, #0
 80095aa:	d115      	bne.n	80095d8 <USB_OTG_USBH_handle_hc_n_In_ISR.8131.4183+0x234>
 80095ac:	f897 305f 	ldrb.w	r3, [r7, #95]	; 0x5f
 80095b0:	f36f 13c7 	bfc	r3, #7, #1
 80095b4:	f887 305f 	strb.w	r3, [r7, #95]	; 0x5f
 80095b8:	e00e      	b.n	80095d8 <USB_OTG_USBH_handle_hc_n_In_ISR.8131.4183+0x234>
 80095ba:	f8d7 3128 	ldr.w	r3, [r7, #296]	; 0x128
 80095be:	695b      	ldr	r3, [r3, #20]
 80095c0:	691b      	ldr	r3, [r3, #16]
 80095c2:	663b      	str	r3, [r7, #96]	; 0x60
 80095c4:	f897 3062 	ldrb.w	r3, [r7, #98]	; 0x62
 80095c8:	2b00      	cmp	r3, #0
 80095ca:	d105      	bne.n	80095d8 <USB_OTG_USBH_handle_hc_n_In_ISR.8131.4183+0x234>
 80095cc:	f897 305f 	ldrb.w	r3, [r7, #95]	; 0x5f
 80095d0:	f36f 13c7 	bfc	r3, #7, #1
 80095d4:	f887 305f 	strb.w	r3, [r7, #95]	; 0x5f
 80095d8:	6dfb      	ldr	r3, [r7, #92]	; 0x5c
 80095da:	6013      	str	r3, [r2, #0]
 80095dc:	e098      	b.n	8009710 <USB_OTG_USBH_handle_hc_n_In_ISR.8131.4183+0x36c>
 80095de:	f897 30f9 	ldrb.w	r3, [r7, #249]	; 0xf9
 80095e2:	f3c3 0380 	ubfx	r3, r3, #2, #1
 80095e6:	b2db      	uxtb	r3, r3
 80095e8:	2b00      	cmp	r3, #0
 80095ea:	f000 8091 	beq.w	8009710 <USB_OTG_USBH_handle_hc_n_In_ISR.8131.4183+0x36c>
 80095ee:	1d3b      	adds	r3, r7, #4
 80095f0:	681a      	ldr	r2, [r3, #0]
 80095f2:	463b      	mov	r3, r7
 80095f4:	681b      	ldr	r3, [r3, #0]
 80095f6:	3322      	adds	r3, #34	; 0x22
 80095f8:	009b      	lsls	r3, r3, #2
 80095fa:	4413      	add	r3, r2
 80095fc:	689b      	ldr	r3, [r3, #8]
 80095fe:	68da      	ldr	r2, [r3, #12]
 8009600:	f107 0324 	add.w	r3, r7, #36	; 0x24
 8009604:	601a      	str	r2, [r3, #0]
 8009606:	f107 0224 	add.w	r2, r7, #36	; 0x24
 800960a:	7813      	ldrb	r3, [r2, #0]
 800960c:	f043 0302 	orr.w	r3, r3, #2
 8009610:	7013      	strb	r3, [r2, #0]
 8009612:	1d3b      	adds	r3, r7, #4
 8009614:	681a      	ldr	r2, [r3, #0]
 8009616:	463b      	mov	r3, r7
 8009618:	681b      	ldr	r3, [r3, #0]
 800961a:	3322      	adds	r3, #34	; 0x22
 800961c:	009b      	lsls	r3, r3, #2
 800961e:	4413      	add	r3, r2
 8009620:	689b      	ldr	r3, [r3, #8]
 8009622:	f107 0224 	add.w	r2, r7, #36	; 0x24
 8009626:	6812      	ldr	r2, [r2, #0]
 8009628:	60da      	str	r2, [r3, #12]
 800962a:	463b      	mov	r3, r7
 800962c:	681b      	ldr	r3, [r3, #0]
 800962e:	b2db      	uxtb	r3, r3
 8009630:	1d3a      	adds	r2, r7, #4
 8009632:	6812      	ldr	r2, [r2, #0]
 8009634:	f8c7 2120 	str.w	r2, [r7, #288]	; 0x120
 8009638:	f887 311f 	strb.w	r3, [r7, #287]	; 0x11f
 800963c:	f897 311f 	ldrb.w	r3, [r7, #287]	; 0x11f
 8009640:	f8d7 2120 	ldr.w	r2, [r7, #288]	; 0x120
 8009644:	3322      	adds	r3, #34	; 0x22
 8009646:	009b      	lsls	r3, r3, #2
 8009648:	4413      	add	r3, r2
 800964a:	689a      	ldr	r2, [r3, #8]
 800964c:	6813      	ldr	r3, [r2, #0]
 800964e:	677b      	str	r3, [r7, #116]	; 0x74
 8009650:	f897 3077 	ldrb.w	r3, [r7, #119]	; 0x77
 8009654:	f043 0380 	orr.w	r3, r3, #128	; 0x80
 8009658:	f887 3077 	strb.w	r3, [r7, #119]	; 0x77
 800965c:	f897 3077 	ldrb.w	r3, [r7, #119]	; 0x77
 8009660:	f043 0340 	orr.w	r3, r3, #64	; 0x40
 8009664:	f887 3077 	strb.w	r3, [r7, #119]	; 0x77
 8009668:	f897 3076 	ldrb.w	r3, [r7, #118]	; 0x76
 800966c:	f3c3 0381 	ubfx	r3, r3, #2, #2
 8009670:	b2db      	uxtb	r3, r3
 8009672:	2b00      	cmp	r3, #0
 8009674:	d001      	beq.n	800967a <USB_OTG_USBH_handle_hc_n_In_ISR.8131.4183+0x2d6>
 8009676:	2b02      	cmp	r3, #2
 8009678:	d110      	bne.n	800969c <USB_OTG_USBH_handle_hc_n_In_ISR.8131.4183+0x2f8>
 800967a:	f8d7 3120 	ldr.w	r3, [r7, #288]	; 0x120
 800967e:	68db      	ldr	r3, [r3, #12]
 8009680:	6adb      	ldr	r3, [r3, #44]	; 0x2c
 8009682:	f8c7 3080 	str.w	r3, [r7, #128]	; 0x80
 8009686:	f897 3082 	ldrb.w	r3, [r7, #130]	; 0x82
 800968a:	2b00      	cmp	r3, #0
 800968c:	d115      	bne.n	80096ba <USB_OTG_USBH_handle_hc_n_In_ISR.8131.4183+0x316>
 800968e:	f897 3077 	ldrb.w	r3, [r7, #119]	; 0x77
 8009692:	f36f 13c7 	bfc	r3, #7, #1
 8009696:	f887 3077 	strb.w	r3, [r7, #119]	; 0x77
 800969a:	e00e      	b.n	80096ba <USB_OTG_USBH_handle_hc_n_In_ISR.8131.4183+0x316>
 800969c:	f8d7 3120 	ldr.w	r3, [r7, #288]	; 0x120
 80096a0:	695b      	ldr	r3, [r3, #20]
 80096a2:	691b      	ldr	r3, [r3, #16]
 80096a4:	67bb      	str	r3, [r7, #120]	; 0x78
 80096a6:	f897 307a 	ldrb.w	r3, [r7, #122]	; 0x7a
 80096aa:	2b00      	cmp	r3, #0
 80096ac:	d105      	bne.n	80096ba <USB_OTG_USBH_handle_hc_n_In_ISR.8131.4183+0x316>
 80096ae:	f897 3077 	ldrb.w	r3, [r7, #119]	; 0x77
 80096b2:	f36f 13c7 	bfc	r3, #7, #1
 80096b6:	f887 3077 	strb.w	r3, [r7, #119]	; 0x77
 80096ba:	6f7b      	ldr	r3, [r7, #116]	; 0x74
 80096bc:	6013      	str	r3, [r2, #0]
 80096be:	f107 0328 	add.w	r3, r7, #40	; 0x28
 80096c2:	2200      	movs	r2, #0
 80096c4:	601a      	str	r2, [r3, #0]
 80096c6:	f107 0228 	add.w	r2, r7, #40	; 0x28
 80096ca:	7813      	ldrb	r3, [r2, #0]
 80096cc:	f043 0310 	orr.w	r3, r3, #16
 80096d0:	7013      	strb	r3, [r2, #0]
 80096d2:	f107 0328 	add.w	r3, r7, #40	; 0x28
 80096d6:	681a      	ldr	r2, [r3, #0]
 80096d8:	f8d7 312c 	ldr.w	r3, [r7, #300]	; 0x12c
 80096dc:	609a      	str	r2, [r3, #8]
 80096de:	1d3b      	adds	r3, r7, #4
 80096e0:	681a      	ldr	r2, [r3, #0]
 80096e2:	463b      	mov	r3, r7
 80096e4:	681b      	ldr	r3, [r3, #0]
 80096e6:	4413      	add	r3, r2
 80096e8:	f503 7362 	add.w	r3, r3, #904	; 0x388
 80096ec:	2208      	movs	r2, #8
 80096ee:	711a      	strb	r2, [r3, #4]
 80096f0:	f107 032c 	add.w	r3, r7, #44	; 0x2c
 80096f4:	2200      	movs	r2, #0
 80096f6:	601a      	str	r2, [r3, #0]
 80096f8:	f107 022c 	add.w	r2, r7, #44	; 0x2c
 80096fc:	7853      	ldrb	r3, [r2, #1]
 80096fe:	f043 0304 	orr.w	r3, r3, #4
 8009702:	7053      	strb	r3, [r2, #1]
 8009704:	f107 032c 	add.w	r3, r7, #44	; 0x2c
 8009708:	681a      	ldr	r2, [r3, #0]
 800970a:	f8d7 312c 	ldr.w	r3, [r7, #300]	; 0x12c
 800970e:	609a      	str	r2, [r3, #8]
 8009710:	f897 30f9 	ldrb.w	r3, [r7, #249]	; 0xf9
 8009714:	f3c3 0340 	ubfx	r3, r3, #1, #1
 8009718:	b2db      	uxtb	r3, r3
 800971a:	2b00      	cmp	r3, #0
 800971c:	d077      	beq.n	800980e <USB_OTG_USBH_handle_hc_n_In_ISR.8131.4183+0x46a>
 800971e:	1d3b      	adds	r3, r7, #4
 8009720:	681a      	ldr	r2, [r3, #0]
 8009722:	463b      	mov	r3, r7
 8009724:	681b      	ldr	r3, [r3, #0]
 8009726:	3322      	adds	r3, #34	; 0x22
 8009728:	009b      	lsls	r3, r3, #2
 800972a:	4413      	add	r3, r2
 800972c:	689b      	ldr	r3, [r3, #8]
 800972e:	68da      	ldr	r2, [r3, #12]
 8009730:	f107 0330 	add.w	r3, r7, #48	; 0x30
 8009734:	601a      	str	r2, [r3, #0]
 8009736:	f107 0230 	add.w	r2, r7, #48	; 0x30
 800973a:	7813      	ldrb	r3, [r2, #0]
 800973c:	f043 0302 	orr.w	r3, r3, #2
 8009740:	7013      	strb	r3, [r2, #0]
 8009742:	1d3b      	adds	r3, r7, #4
 8009744:	681a      	ldr	r2, [r3, #0]
 8009746:	463b      	mov	r3, r7
 8009748:	681b      	ldr	r3, [r3, #0]
 800974a:	3322      	adds	r3, #34	; 0x22
 800974c:	009b      	lsls	r3, r3, #2
 800974e:	4413      	add	r3, r2
 8009750:	689b      	ldr	r3, [r3, #8]
 8009752:	f107 0230 	add.w	r2, r7, #48	; 0x30
 8009756:	6812      	ldr	r2, [r2, #0]
 8009758:	60da      	str	r2, [r3, #12]
 800975a:	463b      	mov	r3, r7
 800975c:	681b      	ldr	r3, [r3, #0]
 800975e:	b2db      	uxtb	r3, r3
 8009760:	1d3a      	adds	r2, r7, #4
 8009762:	6812      	ldr	r2, [r2, #0]
 8009764:	f8c7 2118 	str.w	r2, [r7, #280]	; 0x118
 8009768:	f887 3117 	strb.w	r3, [r7, #279]	; 0x117
 800976c:	f897 3117 	ldrb.w	r3, [r7, #279]	; 0x117
 8009770:	f8d7 2118 	ldr.w	r2, [r7, #280]	; 0x118
 8009774:	3322      	adds	r3, #34	; 0x22
 8009776:	009b      	lsls	r3, r3, #2
 8009778:	4413      	add	r3, r2
 800977a:	689a      	ldr	r2, [r3, #8]
 800977c:	6813      	ldr	r3, [r2, #0]
 800977e:	f8c7 308c 	str.w	r3, [r7, #140]	; 0x8c
 8009782:	f897 308f 	ldrb.w	r3, [r7, #143]	; 0x8f
 8009786:	f043 0380 	orr.w	r3, r3, #128	; 0x80
 800978a:	f887 308f 	strb.w	r3, [r7, #143]	; 0x8f
 800978e:	f897 308f 	ldrb.w	r3, [r7, #143]	; 0x8f
 8009792:	f043 0340 	orr.w	r3, r3, #64	; 0x40
 8009796:	f887 308f 	strb.w	r3, [r7, #143]	; 0x8f
 800979a:	f897 308e 	ldrb.w	r3, [r7, #142]	; 0x8e
 800979e:	f3c3 0381 	ubfx	r3, r3, #2, #2
 80097a2:	b2db      	uxtb	r3, r3
 80097a4:	2b00      	cmp	r3, #0
 80097a6:	d001      	beq.n	80097ac <USB_OTG_USBH_handle_hc_n_In_ISR.8131.4183+0x408>
 80097a8:	2b02      	cmp	r3, #2
 80097aa:	d110      	bne.n	80097ce <USB_OTG_USBH_handle_hc_n_In_ISR.8131.4183+0x42a>
 80097ac:	f8d7 3118 	ldr.w	r3, [r7, #280]	; 0x118
 80097b0:	68db      	ldr	r3, [r3, #12]
 80097b2:	6adb      	ldr	r3, [r3, #44]	; 0x2c
 80097b4:	f8c7 3098 	str.w	r3, [r7, #152]	; 0x98
 80097b8:	f897 309a 	ldrb.w	r3, [r7, #154]	; 0x9a
 80097bc:	2b00      	cmp	r3, #0
 80097be:	d116      	bne.n	80097ee <USB_OTG_USBH_handle_hc_n_In_ISR.8131.4183+0x44a>
 80097c0:	f897 308f 	ldrb.w	r3, [r7, #143]	; 0x8f
 80097c4:	f36f 13c7 	bfc	r3, #7, #1
 80097c8:	f887 308f 	strb.w	r3, [r7, #143]	; 0x8f
 80097cc:	e00f      	b.n	80097ee <USB_OTG_USBH_handle_hc_n_In_ISR.8131.4183+0x44a>
 80097ce:	f8d7 3118 	ldr.w	r3, [r7, #280]	; 0x118
 80097d2:	695b      	ldr	r3, [r3, #20]
 80097d4:	691b      	ldr	r3, [r3, #16]
 80097d6:	f8c7 3090 	str.w	r3, [r7, #144]	; 0x90
 80097da:	f897 3092 	ldrb.w	r3, [r7, #146]	; 0x92
 80097de:	2b00      	cmp	r3, #0
 80097e0:	d105      	bne.n	80097ee <USB_OTG_USBH_handle_hc_n_In_ISR.8131.4183+0x44a>
 80097e2:	f897 308f 	ldrb.w	r3, [r7, #143]	; 0x8f
 80097e6:	f36f 13c7 	bfc	r3, #7, #1
 80097ea:	f887 308f 	strb.w	r3, [r7, #143]	; 0x8f
 80097ee:	f8d7 308c 	ldr.w	r3, [r7, #140]	; 0x8c
 80097f2:	6013      	str	r3, [r2, #0]
 80097f4:	2300      	movs	r3, #0
 80097f6:	637b      	str	r3, [r7, #52]	; 0x34
 80097f8:	f897 3035 	ldrb.w	r3, [r7, #53]	; 0x35
 80097fc:	f043 0302 	orr.w	r3, r3, #2
 8009800:	f887 3035 	strb.w	r3, [r7, #53]	; 0x35
 8009804:	6b7a      	ldr	r2, [r7, #52]	; 0x34
 8009806:	f8d7 312c 	ldr.w	r3, [r7, #300]	; 0x12c
 800980a:	609a      	str	r2, [r3, #8]
 800980c:	e2e6      	b.n	8009ddc <USB_OTG_USBH_handle_hc_n_In_ISR.8131.4183+0xa38>
 800980e:	f897 30f8 	ldrb.w	r3, [r7, #248]	; 0xf8
 8009812:	f3c3 0300 	ubfx	r3, r3, #0, #1
 8009816:	b2db      	uxtb	r3, r3
 8009818:	2b00      	cmp	r3, #0
 800981a:	f000 80fc 	beq.w	8009a16 <USB_OTG_USBH_handle_hc_n_In_ISR.8131.4183+0x672>
 800981e:	1d3b      	adds	r3, r7, #4
 8009820:	681b      	ldr	r3, [r3, #0]
 8009822:	78db      	ldrb	r3, [r3, #3]
 8009824:	2b01      	cmp	r3, #1
 8009826:	d11f      	bne.n	8009868 <USB_OTG_USBH_handle_hc_n_In_ISR.8131.4183+0x4c4>
 8009828:	1d3b      	adds	r3, r7, #4
 800982a:	681a      	ldr	r2, [r3, #0]
 800982c:	463b      	mov	r3, r7
 800982e:	681b      	ldr	r3, [r3, #0]
 8009830:	3322      	adds	r3, #34	; 0x22
 8009832:	009b      	lsls	r3, r3, #2
 8009834:	4413      	add	r3, r2
 8009836:	689b      	ldr	r3, [r3, #8]
 8009838:	691b      	ldr	r3, [r3, #16]
 800983a:	f8c7 30ec 	str.w	r3, [r7, #236]	; 0xec
 800983e:	1d3b      	adds	r3, r7, #4
 8009840:	681a      	ldr	r2, [r3, #0]
 8009842:	463b      	mov	r3, r7
 8009844:	681b      	ldr	r3, [r3, #0]
 8009846:	015b      	lsls	r3, r3, #5
 8009848:	4413      	add	r3, r2
 800984a:	f503 736f 	add.w	r3, r3, #956	; 0x3bc
 800984e:	681a      	ldr	r2, [r3, #0]
 8009850:	f8d7 30ec 	ldr.w	r3, [r7, #236]	; 0xec
 8009854:	f3c3 0312 	ubfx	r3, r3, #0, #19
 8009858:	1ad1      	subs	r1, r2, r3
 800985a:	1d3b      	adds	r3, r7, #4
 800985c:	681b      	ldr	r3, [r3, #0]
 800985e:	463a      	mov	r2, r7
 8009860:	6812      	ldr	r2, [r2, #0]
 8009862:	32d4      	adds	r2, #212	; 0xd4
 8009864:	f843 1022 	str.w	r1, [r3, r2, lsl #2]
 8009868:	1d3b      	adds	r3, r7, #4
 800986a:	681a      	ldr	r2, [r3, #0]
 800986c:	463b      	mov	r3, r7
 800986e:	681b      	ldr	r3, [r3, #0]
 8009870:	4413      	add	r3, r2
 8009872:	f503 7362 	add.w	r3, r3, #904	; 0x388
 8009876:	2201      	movs	r2, #1
 8009878:	711a      	strb	r2, [r3, #4]
 800987a:	1d3b      	adds	r3, r7, #4
 800987c:	681a      	ldr	r2, [r3, #0]
 800987e:	463b      	mov	r3, r7
 8009880:	681b      	ldr	r3, [r3, #0]
 8009882:	33c4      	adds	r3, #196	; 0xc4
 8009884:	009b      	lsls	r3, r3, #2
 8009886:	4413      	add	r3, r2
 8009888:	2200      	movs	r2, #0
 800988a:	605a      	str	r2, [r3, #4]
 800988c:	2300      	movs	r3, #0
 800988e:	63bb      	str	r3, [r7, #56]	; 0x38
 8009890:	f897 3038 	ldrb.w	r3, [r7, #56]	; 0x38
 8009894:	f043 0301 	orr.w	r3, r3, #1
 8009898:	f887 3038 	strb.w	r3, [r7, #56]	; 0x38
 800989c:	6bba      	ldr	r2, [r7, #56]	; 0x38
 800989e:	f8d7 312c 	ldr.w	r3, [r7, #300]	; 0x12c
 80098a2:	609a      	str	r2, [r3, #8]
 80098a4:	f897 30f2 	ldrb.w	r3, [r7, #242]	; 0xf2
 80098a8:	f3c3 0381 	ubfx	r3, r3, #2, #2
 80098ac:	b2db      	uxtb	r3, r3
 80098ae:	2b00      	cmp	r3, #0
 80098b0:	d007      	beq.n	80098c2 <USB_OTG_USBH_handle_hc_n_In_ISR.8131.4183+0x51e>
 80098b2:	f897 30f2 	ldrb.w	r3, [r7, #242]	; 0xf2
 80098b6:	f3c3 0381 	ubfx	r3, r3, #2, #2
 80098ba:	b2db      	uxtb	r3, r3
 80098bc:	2b02      	cmp	r3, #2
 80098be:	f040 8087 	bne.w	80099d0 <USB_OTG_USBH_handle_hc_n_In_ISR.8131.4183+0x62c>
 80098c2:	1d3b      	adds	r3, r7, #4
 80098c4:	681a      	ldr	r2, [r3, #0]
 80098c6:	463b      	mov	r3, r7
 80098c8:	681b      	ldr	r3, [r3, #0]
 80098ca:	3322      	adds	r3, #34	; 0x22
 80098cc:	009b      	lsls	r3, r3, #2
 80098ce:	4413      	add	r3, r2
 80098d0:	689b      	ldr	r3, [r3, #8]
 80098d2:	68db      	ldr	r3, [r3, #12]
 80098d4:	63fb      	str	r3, [r7, #60]	; 0x3c
 80098d6:	f897 303c 	ldrb.w	r3, [r7, #60]	; 0x3c
 80098da:	f043 0302 	orr.w	r3, r3, #2
 80098de:	f887 303c 	strb.w	r3, [r7, #60]	; 0x3c
 80098e2:	1d3b      	adds	r3, r7, #4
 80098e4:	681a      	ldr	r2, [r3, #0]
 80098e6:	463b      	mov	r3, r7
 80098e8:	681b      	ldr	r3, [r3, #0]
 80098ea:	3322      	adds	r3, #34	; 0x22
 80098ec:	009b      	lsls	r3, r3, #2
 80098ee:	4413      	add	r3, r2
 80098f0:	689b      	ldr	r3, [r3, #8]
 80098f2:	6bfa      	ldr	r2, [r7, #60]	; 0x3c
 80098f4:	60da      	str	r2, [r3, #12]
 80098f6:	463b      	mov	r3, r7
 80098f8:	681b      	ldr	r3, [r3, #0]
 80098fa:	b2db      	uxtb	r3, r3
 80098fc:	1d3a      	adds	r2, r7, #4
 80098fe:	6812      	ldr	r2, [r2, #0]
 8009900:	f8c7 2110 	str.w	r2, [r7, #272]	; 0x110
 8009904:	f887 310f 	strb.w	r3, [r7, #271]	; 0x10f
 8009908:	f897 310f 	ldrb.w	r3, [r7, #271]	; 0x10f
 800990c:	f8d7 2110 	ldr.w	r2, [r7, #272]	; 0x110
 8009910:	3322      	adds	r3, #34	; 0x22
 8009912:	009b      	lsls	r3, r3, #2
 8009914:	4413      	add	r3, r2
 8009916:	689a      	ldr	r2, [r3, #8]
 8009918:	6813      	ldr	r3, [r2, #0]
 800991a:	f8c7 30a4 	str.w	r3, [r7, #164]	; 0xa4
 800991e:	f897 30a7 	ldrb.w	r3, [r7, #167]	; 0xa7
 8009922:	f043 0380 	orr.w	r3, r3, #128	; 0x80
 8009926:	f887 30a7 	strb.w	r3, [r7, #167]	; 0xa7
 800992a:	f897 30a7 	ldrb.w	r3, [r7, #167]	; 0xa7
 800992e:	f043 0340 	orr.w	r3, r3, #64	; 0x40
 8009932:	f887 30a7 	strb.w	r3, [r7, #167]	; 0xa7
 8009936:	f897 30a6 	ldrb.w	r3, [r7, #166]	; 0xa6
 800993a:	f3c3 0381 	ubfx	r3, r3, #2, #2
 800993e:	b2db      	uxtb	r3, r3
 8009940:	2b00      	cmp	r3, #0
 8009942:	d001      	beq.n	8009948 <USB_OTG_USBH_handle_hc_n_In_ISR.8131.4183+0x5a4>
 8009944:	2b02      	cmp	r3, #2
 8009946:	d110      	bne.n	800996a <USB_OTG_USBH_handle_hc_n_In_ISR.8131.4183+0x5c6>
 8009948:	f8d7 3110 	ldr.w	r3, [r7, #272]	; 0x110
 800994c:	68db      	ldr	r3, [r3, #12]
 800994e:	6adb      	ldr	r3, [r3, #44]	; 0x2c
 8009950:	f8c7 30b0 	str.w	r3, [r7, #176]	; 0xb0
 8009954:	f897 30b2 	ldrb.w	r3, [r7, #178]	; 0xb2
 8009958:	2b00      	cmp	r3, #0
 800995a:	d116      	bne.n	800998a <USB_OTG_USBH_handle_hc_n_In_ISR.8131.4183+0x5e6>
 800995c:	f897 30a7 	ldrb.w	r3, [r7, #167]	; 0xa7
 8009960:	f36f 13c7 	bfc	r3, #7, #1
 8009964:	f887 30a7 	strb.w	r3, [r7, #167]	; 0xa7
 8009968:	e00f      	b.n	800998a <USB_OTG_USBH_handle_hc_n_In_ISR.8131.4183+0x5e6>
 800996a:	f8d7 3110 	ldr.w	r3, [r7, #272]	; 0x110
 800996e:	695b      	ldr	r3, [r3, #20]
 8009970:	691b      	ldr	r3, [r3, #16]
 8009972:	f8c7 30a8 	str.w	r3, [r7, #168]	; 0xa8
 8009976:	f897 30aa 	ldrb.w	r3, [r7, #170]	; 0xaa
 800997a:	2b00      	cmp	r3, #0
 800997c:	d105      	bne.n	800998a <USB_OTG_USBH_handle_hc_n_In_ISR.8131.4183+0x5e6>
 800997e:	f897 30a7 	ldrb.w	r3, [r7, #167]	; 0xa7
 8009982:	f36f 13c7 	bfc	r3, #7, #1
 8009986:	f887 30a7 	strb.w	r3, [r7, #167]	; 0xa7
 800998a:	f8d7 30a4 	ldr.w	r3, [r7, #164]	; 0xa4
 800998e:	6013      	str	r3, [r2, #0]
 8009990:	2300      	movs	r3, #0
 8009992:	643b      	str	r3, [r7, #64]	; 0x40
 8009994:	f897 3040 	ldrb.w	r3, [r7, #64]	; 0x40
 8009998:	f043 0310 	orr.w	r3, r3, #16
 800999c:	f887 3040 	strb.w	r3, [r7, #64]	; 0x40
 80099a0:	6c3a      	ldr	r2, [r7, #64]	; 0x40
 80099a2:	f8d7 312c 	ldr.w	r3, [r7, #300]	; 0x12c
 80099a6:	609a      	str	r2, [r3, #8]
 80099a8:	1d3b      	adds	r3, r7, #4
 80099aa:	681a      	ldr	r2, [r3, #0]
 80099ac:	463b      	mov	r3, r7
 80099ae:	681b      	ldr	r3, [r3, #0]
 80099b0:	331e      	adds	r3, #30
 80099b2:	015b      	lsls	r3, r3, #5
 80099b4:	4413      	add	r3, r2
 80099b6:	791b      	ldrb	r3, [r3, #4]
 80099b8:	f083 0301 	eor.w	r3, r3, #1
 80099bc:	b2da      	uxtb	r2, r3
 80099be:	1d3b      	adds	r3, r7, #4
 80099c0:	6819      	ldr	r1, [r3, #0]
 80099c2:	463b      	mov	r3, r7
 80099c4:	681b      	ldr	r3, [r3, #0]
 80099c6:	331e      	adds	r3, #30
 80099c8:	015b      	lsls	r3, r3, #5
 80099ca:	440b      	add	r3, r1
 80099cc:	711a      	strb	r2, [r3, #4]
 80099ce:	e205      	b.n	8009ddc <USB_OTG_USBH_handle_hc_n_In_ISR.8131.4183+0xa38>
 80099d0:	f897 30f2 	ldrb.w	r3, [r7, #242]	; 0xf2
 80099d4:	f3c3 0381 	ubfx	r3, r3, #2, #2
 80099d8:	b2db      	uxtb	r3, r3
 80099da:	2b03      	cmp	r3, #3
 80099dc:	f040 81fe 	bne.w	8009ddc <USB_OTG_USBH_handle_hc_n_In_ISR.8131.4183+0xa38>
 80099e0:	f897 30f3 	ldrb.w	r3, [r7, #243]	; 0xf3
 80099e4:	f043 0320 	orr.w	r3, r3, #32
 80099e8:	f887 30f3 	strb.w	r3, [r7, #243]	; 0xf3
 80099ec:	1d3b      	adds	r3, r7, #4
 80099ee:	681a      	ldr	r2, [r3, #0]
 80099f0:	463b      	mov	r3, r7
 80099f2:	681b      	ldr	r3, [r3, #0]
 80099f4:	3322      	adds	r3, #34	; 0x22
 80099f6:	009b      	lsls	r3, r3, #2
 80099f8:	4413      	add	r3, r2
 80099fa:	689b      	ldr	r3, [r3, #8]
 80099fc:	f8d7 20f0 	ldr.w	r2, [r7, #240]	; 0xf0
 8009a00:	601a      	str	r2, [r3, #0]
 8009a02:	1d3b      	adds	r3, r7, #4
 8009a04:	681a      	ldr	r2, [r3, #0]
 8009a06:	463b      	mov	r3, r7
 8009a08:	681b      	ldr	r3, [r3, #0]
 8009a0a:	4413      	add	r3, r2
 8009a0c:	f503 7366 	add.w	r3, r3, #920	; 0x398
 8009a10:	2201      	movs	r2, #1
 8009a12:	70da      	strb	r2, [r3, #3]
 8009a14:	e1e2      	b.n	8009ddc <USB_OTG_USBH_handle_hc_n_In_ISR.8131.4183+0xa38>
 8009a16:	f897 30f8 	ldrb.w	r3, [r7, #248]	; 0xf8
 8009a1a:	f3c3 0340 	ubfx	r3, r3, #1, #1
 8009a1e:	b2db      	uxtb	r3, r3
 8009a20:	2b00      	cmp	r3, #0
 8009a22:	f000 8094 	beq.w	8009b4e <USB_OTG_USBH_handle_hc_n_In_ISR.8131.4183+0x7aa>
 8009a26:	1d3b      	adds	r3, r7, #4
 8009a28:	681a      	ldr	r2, [r3, #0]
 8009a2a:	463b      	mov	r3, r7
 8009a2c:	681b      	ldr	r3, [r3, #0]
 8009a2e:	3322      	adds	r3, #34	; 0x22
 8009a30:	009b      	lsls	r3, r3, #2
 8009a32:	4413      	add	r3, r2
 8009a34:	689b      	ldr	r3, [r3, #8]
 8009a36:	68db      	ldr	r3, [r3, #12]
 8009a38:	647b      	str	r3, [r7, #68]	; 0x44
 8009a3a:	f897 3044 	ldrb.w	r3, [r7, #68]	; 0x44
 8009a3e:	f36f 0341 	bfc	r3, #1, #1
 8009a42:	f887 3044 	strb.w	r3, [r7, #68]	; 0x44
 8009a46:	1d3b      	adds	r3, r7, #4
 8009a48:	681a      	ldr	r2, [r3, #0]
 8009a4a:	463b      	mov	r3, r7
 8009a4c:	681b      	ldr	r3, [r3, #0]
 8009a4e:	3322      	adds	r3, #34	; 0x22
 8009a50:	009b      	lsls	r3, r3, #2
 8009a52:	4413      	add	r3, r2
 8009a54:	689b      	ldr	r3, [r3, #8]
 8009a56:	6c7a      	ldr	r2, [r7, #68]	; 0x44
 8009a58:	60da      	str	r2, [r3, #12]
 8009a5a:	1d3b      	adds	r3, r7, #4
 8009a5c:	681a      	ldr	r2, [r3, #0]
 8009a5e:	463b      	mov	r3, r7
 8009a60:	681b      	ldr	r3, [r3, #0]
 8009a62:	4413      	add	r3, r2
 8009a64:	f503 7362 	add.w	r3, r3, #904	; 0x388
 8009a68:	791b      	ldrb	r3, [r3, #4]
 8009a6a:	b2db      	uxtb	r3, r3
 8009a6c:	2b01      	cmp	r3, #1
 8009a6e:	d109      	bne.n	8009a84 <USB_OTG_USBH_handle_hc_n_In_ISR.8131.4183+0x6e0>
 8009a70:	1d3b      	adds	r3, r7, #4
 8009a72:	681a      	ldr	r2, [r3, #0]
 8009a74:	463b      	mov	r3, r7
 8009a76:	681b      	ldr	r3, [r3, #0]
 8009a78:	4413      	add	r3, r2
 8009a7a:	f503 7366 	add.w	r3, r3, #920	; 0x398
 8009a7e:	2201      	movs	r2, #1
 8009a80:	70da      	strb	r2, [r3, #3]
 8009a82:	e057      	b.n	8009b34 <USB_OTG_USBH_handle_hc_n_In_ISR.8131.4183+0x790>
 8009a84:	1d3b      	adds	r3, r7, #4
 8009a86:	681a      	ldr	r2, [r3, #0]
 8009a88:	463b      	mov	r3, r7
 8009a8a:	681b      	ldr	r3, [r3, #0]
 8009a8c:	4413      	add	r3, r2
 8009a8e:	f503 7362 	add.w	r3, r3, #904	; 0x388
 8009a92:	791b      	ldrb	r3, [r3, #4]
 8009a94:	b2db      	uxtb	r3, r3
 8009a96:	2b05      	cmp	r3, #5
 8009a98:	d109      	bne.n	8009aae <USB_OTG_USBH_handle_hc_n_In_ISR.8131.4183+0x70a>
 8009a9a:	1d3b      	adds	r3, r7, #4
 8009a9c:	681a      	ldr	r2, [r3, #0]
 8009a9e:	463b      	mov	r3, r7
 8009aa0:	681b      	ldr	r3, [r3, #0]
 8009aa2:	4413      	add	r3, r2
 8009aa4:	f503 7366 	add.w	r3, r3, #920	; 0x398
 8009aa8:	2204      	movs	r2, #4
 8009aaa:	70da      	strb	r2, [r3, #3]
 8009aac:	e042      	b.n	8009b34 <USB_OTG_USBH_handle_hc_n_In_ISR.8131.4183+0x790>
 8009aae:	1d3b      	adds	r3, r7, #4
 8009ab0:	681a      	ldr	r2, [r3, #0]
 8009ab2:	463b      	mov	r3, r7
 8009ab4:	681b      	ldr	r3, [r3, #0]
 8009ab6:	4413      	add	r3, r2
 8009ab8:	f503 7362 	add.w	r3, r3, #904	; 0x388
 8009abc:	791b      	ldrb	r3, [r3, #4]
 8009abe:	b2db      	uxtb	r3, r3
 8009ac0:	2b06      	cmp	r3, #6
 8009ac2:	d00a      	beq.n	8009ada <USB_OTG_USBH_handle_hc_n_In_ISR.8131.4183+0x736>
 8009ac4:	1d3b      	adds	r3, r7, #4
 8009ac6:	681a      	ldr	r2, [r3, #0]
 8009ac8:	463b      	mov	r3, r7
 8009aca:	681b      	ldr	r3, [r3, #0]
 8009acc:	4413      	add	r3, r2
 8009ace:	f503 7362 	add.w	r3, r3, #904	; 0x388
 8009ad2:	791b      	ldrb	r3, [r3, #4]
 8009ad4:	b2db      	uxtb	r3, r3
 8009ad6:	2b08      	cmp	r3, #8
 8009ad8:	d112      	bne.n	8009b00 <USB_OTG_USBH_handle_hc_n_In_ISR.8131.4183+0x75c>
 8009ada:	1d3b      	adds	r3, r7, #4
 8009adc:	681a      	ldr	r2, [r3, #0]
 8009ade:	463b      	mov	r3, r7
 8009ae0:	681b      	ldr	r3, [r3, #0]
 8009ae2:	33c4      	adds	r3, #196	; 0xc4
 8009ae4:	009b      	lsls	r3, r3, #2
 8009ae6:	4413      	add	r3, r2
 8009ae8:	2200      	movs	r2, #0
 8009aea:	605a      	str	r2, [r3, #4]
 8009aec:	1d3b      	adds	r3, r7, #4
 8009aee:	681a      	ldr	r2, [r3, #0]
 8009af0:	463b      	mov	r3, r7
 8009af2:	681b      	ldr	r3, [r3, #0]
 8009af4:	4413      	add	r3, r2
 8009af6:	f503 7366 	add.w	r3, r3, #920	; 0x398
 8009afa:	2203      	movs	r2, #3
 8009afc:	70da      	strb	r2, [r3, #3]
 8009afe:	e019      	b.n	8009b34 <USB_OTG_USBH_handle_hc_n_In_ISR.8131.4183+0x790>
 8009b00:	f897 30f2 	ldrb.w	r3, [r7, #242]	; 0xf2
 8009b04:	f3c3 0381 	ubfx	r3, r3, #2, #2
 8009b08:	b2db      	uxtb	r3, r3
 8009b0a:	2b03      	cmp	r3, #3
 8009b0c:	d112      	bne.n	8009b34 <USB_OTG_USBH_handle_hc_n_In_ISR.8131.4183+0x790>
 8009b0e:	1d3b      	adds	r3, r7, #4
 8009b10:	681a      	ldr	r2, [r3, #0]
 8009b12:	463b      	mov	r3, r7
 8009b14:	681b      	ldr	r3, [r3, #0]
 8009b16:	331e      	adds	r3, #30
 8009b18:	015b      	lsls	r3, r3, #5
 8009b1a:	4413      	add	r3, r2
 8009b1c:	791b      	ldrb	r3, [r3, #4]
 8009b1e:	f083 0301 	eor.w	r3, r3, #1
 8009b22:	b2da      	uxtb	r2, r3
 8009b24:	1d3b      	adds	r3, r7, #4
 8009b26:	6819      	ldr	r1, [r3, #0]
 8009b28:	463b      	mov	r3, r7
 8009b2a:	681b      	ldr	r3, [r3, #0]
 8009b2c:	331e      	adds	r3, #30
 8009b2e:	015b      	lsls	r3, r3, #5
 8009b30:	440b      	add	r3, r1
 8009b32:	711a      	strb	r2, [r3, #4]
 8009b34:	2300      	movs	r3, #0
 8009b36:	64bb      	str	r3, [r7, #72]	; 0x48
 8009b38:	f897 3048 	ldrb.w	r3, [r7, #72]	; 0x48
 8009b3c:	f043 0302 	orr.w	r3, r3, #2
 8009b40:	f887 3048 	strb.w	r3, [r7, #72]	; 0x48
 8009b44:	6cba      	ldr	r2, [r7, #72]	; 0x48
 8009b46:	f8d7 312c 	ldr.w	r3, [r7, #300]	; 0x12c
 8009b4a:	609a      	str	r2, [r3, #8]
 8009b4c:	e146      	b.n	8009ddc <USB_OTG_USBH_handle_hc_n_In_ISR.8131.4183+0xa38>
 8009b4e:	f897 30f8 	ldrb.w	r3, [r7, #248]	; 0xf8
 8009b52:	f3c3 13c0 	ubfx	r3, r3, #7, #1
 8009b56:	b2db      	uxtb	r3, r3
 8009b58:	2b00      	cmp	r3, #0
 8009b5a:	f000 808e 	beq.w	8009c7a <USB_OTG_USBH_handle_hc_n_In_ISR.8131.4183+0x8d6>
 8009b5e:	1d3b      	adds	r3, r7, #4
 8009b60:	681a      	ldr	r2, [r3, #0]
 8009b62:	463b      	mov	r3, r7
 8009b64:	681b      	ldr	r3, [r3, #0]
 8009b66:	3322      	adds	r3, #34	; 0x22
 8009b68:	009b      	lsls	r3, r3, #2
 8009b6a:	4413      	add	r3, r2
 8009b6c:	689b      	ldr	r3, [r3, #8]
 8009b6e:	68db      	ldr	r3, [r3, #12]
 8009b70:	64fb      	str	r3, [r7, #76]	; 0x4c
 8009b72:	f897 304c 	ldrb.w	r3, [r7, #76]	; 0x4c
 8009b76:	f043 0302 	orr.w	r3, r3, #2
 8009b7a:	f887 304c 	strb.w	r3, [r7, #76]	; 0x4c
 8009b7e:	1d3b      	adds	r3, r7, #4
 8009b80:	681a      	ldr	r2, [r3, #0]
 8009b82:	463b      	mov	r3, r7
 8009b84:	681b      	ldr	r3, [r3, #0]
 8009b86:	3322      	adds	r3, #34	; 0x22
 8009b88:	009b      	lsls	r3, r3, #2
 8009b8a:	4413      	add	r3, r2
 8009b8c:	689b      	ldr	r3, [r3, #8]
 8009b8e:	6cfa      	ldr	r2, [r7, #76]	; 0x4c
 8009b90:	60da      	str	r2, [r3, #12]
 8009b92:	1d3b      	adds	r3, r7, #4
 8009b94:	681a      	ldr	r2, [r3, #0]
 8009b96:	463b      	mov	r3, r7
 8009b98:	681b      	ldr	r3, [r3, #0]
 8009b9a:	33c4      	adds	r3, #196	; 0xc4
 8009b9c:	009b      	lsls	r3, r3, #2
 8009b9e:	4413      	add	r3, r2
 8009ba0:	685b      	ldr	r3, [r3, #4]
 8009ba2:	1c5a      	adds	r2, r3, #1
 8009ba4:	1d3b      	adds	r3, r7, #4
 8009ba6:	6819      	ldr	r1, [r3, #0]
 8009ba8:	463b      	mov	r3, r7
 8009baa:	681b      	ldr	r3, [r3, #0]
 8009bac:	33c4      	adds	r3, #196	; 0xc4
 8009bae:	009b      	lsls	r3, r3, #2
 8009bb0:	440b      	add	r3, r1
 8009bb2:	605a      	str	r2, [r3, #4]
 8009bb4:	1d3b      	adds	r3, r7, #4
 8009bb6:	681a      	ldr	r2, [r3, #0]
 8009bb8:	463b      	mov	r3, r7
 8009bba:	681b      	ldr	r3, [r3, #0]
 8009bbc:	4413      	add	r3, r2
 8009bbe:	f503 7362 	add.w	r3, r3, #904	; 0x388
 8009bc2:	2206      	movs	r2, #6
 8009bc4:	711a      	strb	r2, [r3, #4]
 8009bc6:	463b      	mov	r3, r7
 8009bc8:	681b      	ldr	r3, [r3, #0]
 8009bca:	b2db      	uxtb	r3, r3
 8009bcc:	1d3a      	adds	r2, r7, #4
 8009bce:	6812      	ldr	r2, [r2, #0]
 8009bd0:	f8c7 2108 	str.w	r2, [r7, #264]	; 0x108
 8009bd4:	f887 3107 	strb.w	r3, [r7, #263]	; 0x107
 8009bd8:	f897 3107 	ldrb.w	r3, [r7, #263]	; 0x107
 8009bdc:	f8d7 2108 	ldr.w	r2, [r7, #264]	; 0x108
 8009be0:	3322      	adds	r3, #34	; 0x22
 8009be2:	009b      	lsls	r3, r3, #2
 8009be4:	4413      	add	r3, r2
 8009be6:	689a      	ldr	r2, [r3, #8]
 8009be8:	6813      	ldr	r3, [r2, #0]
 8009bea:	f8c7 30bc 	str.w	r3, [r7, #188]	; 0xbc
 8009bee:	f897 30bf 	ldrb.w	r3, [r7, #191]	; 0xbf
 8009bf2:	f043 0380 	orr.w	r3, r3, #128	; 0x80
 8009bf6:	f887 30bf 	strb.w	r3, [r7, #191]	; 0xbf
 8009bfa:	f897 30bf 	ldrb.w	r3, [r7, #191]	; 0xbf
 8009bfe:	f043 0340 	orr.w	r3, r3, #64	; 0x40
 8009c02:	f887 30bf 	strb.w	r3, [r7, #191]	; 0xbf
 8009c06:	f897 30be 	ldrb.w	r3, [r7, #190]	; 0xbe
 8009c0a:	f3c3 0381 	ubfx	r3, r3, #2, #2
 8009c0e:	b2db      	uxtb	r3, r3
 8009c10:	2b00      	cmp	r3, #0
 8009c12:	d001      	beq.n	8009c18 <USB_OTG_USBH_handle_hc_n_In_ISR.8131.4183+0x874>
 8009c14:	2b02      	cmp	r3, #2
 8009c16:	d110      	bne.n	8009c3a <USB_OTG_USBH_handle_hc_n_In_ISR.8131.4183+0x896>
 8009c18:	f8d7 3108 	ldr.w	r3, [r7, #264]	; 0x108
 8009c1c:	68db      	ldr	r3, [r3, #12]
 8009c1e:	6adb      	ldr	r3, [r3, #44]	; 0x2c
 8009c20:	f8c7 30c8 	str.w	r3, [r7, #200]	; 0xc8
 8009c24:	f897 30ca 	ldrb.w	r3, [r7, #202]	; 0xca
 8009c28:	2b00      	cmp	r3, #0
 8009c2a:	d116      	bne.n	8009c5a <USB_OTG_USBH_handle_hc_n_In_ISR.8131.4183+0x8b6>
 8009c2c:	f897 30bf 	ldrb.w	r3, [r7, #191]	; 0xbf
 8009c30:	f36f 13c7 	bfc	r3, #7, #1
 8009c34:	f887 30bf 	strb.w	r3, [r7, #191]	; 0xbf
 8009c38:	e00f      	b.n	8009c5a <USB_OTG_USBH_handle_hc_n_In_ISR.8131.4183+0x8b6>
 8009c3a:	f8d7 3108 	ldr.w	r3, [r7, #264]	; 0x108
 8009c3e:	695b      	ldr	r3, [r3, #20]
 8009c40:	691b      	ldr	r3, [r3, #16]
 8009c42:	f8c7 30c0 	str.w	r3, [r7, #192]	; 0xc0
 8009c46:	f897 30c2 	ldrb.w	r3, [r7, #194]	; 0xc2
 8009c4a:	2b00      	cmp	r3, #0
 8009c4c:	d105      	bne.n	8009c5a <USB_OTG_USBH_handle_hc_n_In_ISR.8131.4183+0x8b6>
 8009c4e:	f897 30bf 	ldrb.w	r3, [r7, #191]	; 0xbf
 8009c52:	f36f 13c7 	bfc	r3, #7, #1
 8009c56:	f887 30bf 	strb.w	r3, [r7, #191]	; 0xbf
 8009c5a:	f8d7 30bc 	ldr.w	r3, [r7, #188]	; 0xbc
 8009c5e:	6013      	str	r3, [r2, #0]
 8009c60:	2300      	movs	r3, #0
 8009c62:	653b      	str	r3, [r7, #80]	; 0x50
 8009c64:	f897 3050 	ldrb.w	r3, [r7, #80]	; 0x50
 8009c68:	f043 0380 	orr.w	r3, r3, #128	; 0x80
 8009c6c:	f887 3050 	strb.w	r3, [r7, #80]	; 0x50
 8009c70:	6d3a      	ldr	r2, [r7, #80]	; 0x50
 8009c72:	f8d7 312c 	ldr.w	r3, [r7, #300]	; 0x12c
 8009c76:	609a      	str	r2, [r3, #8]
 8009c78:	e0b0      	b.n	8009ddc <USB_OTG_USBH_handle_hc_n_In_ISR.8131.4183+0xa38>
 8009c7a:	f897 30f8 	ldrb.w	r3, [r7, #248]	; 0xf8
 8009c7e:	f3c3 1300 	ubfx	r3, r3, #4, #1
 8009c82:	b2db      	uxtb	r3, r3
 8009c84:	2b00      	cmp	r3, #0
 8009c86:	f000 80a9 	beq.w	8009ddc <USB_OTG_USBH_handle_hc_n_In_ISR.8131.4183+0xa38>
 8009c8a:	f897 30f2 	ldrb.w	r3, [r7, #242]	; 0xf2
 8009c8e:	f3c3 0381 	ubfx	r3, r3, #2, #2
 8009c92:	b2db      	uxtb	r3, r3
 8009c94:	2b03      	cmp	r3, #3
 8009c96:	d167      	bne.n	8009d68 <USB_OTG_USBH_handle_hc_n_In_ISR.8131.4183+0x9c4>
 8009c98:	1d3b      	adds	r3, r7, #4
 8009c9a:	681a      	ldr	r2, [r3, #0]
 8009c9c:	463b      	mov	r3, r7
 8009c9e:	681b      	ldr	r3, [r3, #0]
 8009ca0:	3322      	adds	r3, #34	; 0x22
 8009ca2:	009b      	lsls	r3, r3, #2
 8009ca4:	4413      	add	r3, r2
 8009ca6:	689b      	ldr	r3, [r3, #8]
 8009ca8:	68db      	ldr	r3, [r3, #12]
 8009caa:	657b      	str	r3, [r7, #84]	; 0x54
 8009cac:	f897 3054 	ldrb.w	r3, [r7, #84]	; 0x54
 8009cb0:	f043 0302 	orr.w	r3, r3, #2
 8009cb4:	f887 3054 	strb.w	r3, [r7, #84]	; 0x54
 8009cb8:	1d3b      	adds	r3, r7, #4
 8009cba:	681a      	ldr	r2, [r3, #0]
 8009cbc:	463b      	mov	r3, r7
 8009cbe:	681b      	ldr	r3, [r3, #0]
 8009cc0:	3322      	adds	r3, #34	; 0x22
 8009cc2:	009b      	lsls	r3, r3, #2
 8009cc4:	4413      	add	r3, r2
 8009cc6:	689b      	ldr	r3, [r3, #8]
 8009cc8:	6d7a      	ldr	r2, [r7, #84]	; 0x54
 8009cca:	60da      	str	r2, [r3, #12]
 8009ccc:	463b      	mov	r3, r7
 8009cce:	681b      	ldr	r3, [r3, #0]
 8009cd0:	b2db      	uxtb	r3, r3
 8009cd2:	1d3a      	adds	r2, r7, #4
 8009cd4:	6812      	ldr	r2, [r2, #0]
 8009cd6:	f8c7 2100 	str.w	r2, [r7, #256]	; 0x100
 8009cda:	f887 30ff 	strb.w	r3, [r7, #255]	; 0xff
 8009cde:	f897 30ff 	ldrb.w	r3, [r7, #255]	; 0xff
 8009ce2:	f8d7 2100 	ldr.w	r2, [r7, #256]	; 0x100
 8009ce6:	3322      	adds	r3, #34	; 0x22
 8009ce8:	009b      	lsls	r3, r3, #2
 8009cea:	4413      	add	r3, r2
 8009cec:	689a      	ldr	r2, [r3, #8]
 8009cee:	6813      	ldr	r3, [r2, #0]
 8009cf0:	f8c7 30d4 	str.w	r3, [r7, #212]	; 0xd4
 8009cf4:	f897 30d7 	ldrb.w	r3, [r7, #215]	; 0xd7
 8009cf8:	f043 0380 	orr.w	r3, r3, #128	; 0x80
 8009cfc:	f887 30d7 	strb.w	r3, [r7, #215]	; 0xd7
 8009d00:	f897 30d7 	ldrb.w	r3, [r7, #215]	; 0xd7
 8009d04:	f043 0340 	orr.w	r3, r3, #64	; 0x40
 8009d08:	f887 30d7 	strb.w	r3, [r7, #215]	; 0xd7
 8009d0c:	f897 30d6 	ldrb.w	r3, [r7, #214]	; 0xd6
 8009d10:	f3c3 0381 	ubfx	r3, r3, #2, #2
 8009d14:	b2db      	uxtb	r3, r3
 8009d16:	2b00      	cmp	r3, #0
 8009d18:	d001      	beq.n	8009d1e <USB_OTG_USBH_handle_hc_n_In_ISR.8131.4183+0x97a>
 8009d1a:	2b02      	cmp	r3, #2
 8009d1c:	d110      	bne.n	8009d40 <USB_OTG_USBH_handle_hc_n_In_ISR.8131.4183+0x99c>
 8009d1e:	f8d7 3100 	ldr.w	r3, [r7, #256]	; 0x100
 8009d22:	68db      	ldr	r3, [r3, #12]
 8009d24:	6adb      	ldr	r3, [r3, #44]	; 0x2c
 8009d26:	f8c7 30e0 	str.w	r3, [r7, #224]	; 0xe0
 8009d2a:	f897 30e2 	ldrb.w	r3, [r7, #226]	; 0xe2
 8009d2e:	2b00      	cmp	r3, #0
 8009d30:	d116      	bne.n	8009d60 <USB_OTG_USBH_handle_hc_n_In_ISR.8131.4183+0x9bc>
 8009d32:	f897 30d7 	ldrb.w	r3, [r7, #215]	; 0xd7
 8009d36:	f36f 13c7 	bfc	r3, #7, #1
 8009d3a:	f887 30d7 	strb.w	r3, [r7, #215]	; 0xd7
 8009d3e:	e00f      	b.n	8009d60 <USB_OTG_USBH_handle_hc_n_In_ISR.8131.4183+0x9bc>
 8009d40:	f8d7 3100 	ldr.w	r3, [r7, #256]	; 0x100
 8009d44:	695b      	ldr	r3, [r3, #20]
 8009d46:	691b      	ldr	r3, [r3, #16]
 8009d48:	f8c7 30d8 	str.w	r3, [r7, #216]	; 0xd8
 8009d4c:	f897 30da 	ldrb.w	r3, [r7, #218]	; 0xda
 8009d50:	2b00      	cmp	r3, #0
 8009d52:	d105      	bne.n	8009d60 <USB_OTG_USBH_handle_hc_n_In_ISR.8131.4183+0x9bc>
 8009d54:	f897 30d7 	ldrb.w	r3, [r7, #215]	; 0xd7
 8009d58:	f36f 13c7 	bfc	r3, #7, #1
 8009d5c:	f887 30d7 	strb.w	r3, [r7, #215]	; 0xd7
 8009d60:	f8d7 30d4 	ldr.w	r3, [r7, #212]	; 0xd4
 8009d64:	6013      	str	r3, [r2, #0]
 8009d66:	e024      	b.n	8009db2 <USB_OTG_USBH_handle_hc_n_In_ISR.8131.4183+0xa0e>
 8009d68:	f897 30f2 	ldrb.w	r3, [r7, #242]	; 0xf2
 8009d6c:	f3c3 0381 	ubfx	r3, r3, #2, #2
 8009d70:	b2db      	uxtb	r3, r3
 8009d72:	2b00      	cmp	r3, #0
 8009d74:	d006      	beq.n	8009d84 <USB_OTG_USBH_handle_hc_n_In_ISR.8131.4183+0x9e0>
 8009d76:	f897 30f2 	ldrb.w	r3, [r7, #242]	; 0xf2
 8009d7a:	f3c3 0381 	ubfx	r3, r3, #2, #2
 8009d7e:	b2db      	uxtb	r3, r3
 8009d80:	2b02      	cmp	r3, #2
 8009d82:	d116      	bne.n	8009db2 <USB_OTG_USBH_handle_hc_n_In_ISR.8131.4183+0xa0e>
 8009d84:	f897 30f3 	ldrb.w	r3, [r7, #243]	; 0xf3
 8009d88:	f043 0380 	orr.w	r3, r3, #128	; 0x80
 8009d8c:	f887 30f3 	strb.w	r3, [r7, #243]	; 0xf3
 8009d90:	f897 30f3 	ldrb.w	r3, [r7, #243]	; 0xf3
 8009d94:	f36f 1386 	bfc	r3, #6, #1
 8009d98:	f887 30f3 	strb.w	r3, [r7, #243]	; 0xf3
 8009d9c:	1d3b      	adds	r3, r7, #4
 8009d9e:	681a      	ldr	r2, [r3, #0]
 8009da0:	463b      	mov	r3, r7
 8009da2:	681b      	ldr	r3, [r3, #0]
 8009da4:	3322      	adds	r3, #34	; 0x22
 8009da6:	009b      	lsls	r3, r3, #2
 8009da8:	4413      	add	r3, r2
 8009daa:	689b      	ldr	r3, [r3, #8]
 8009dac:	f8d7 20f0 	ldr.w	r2, [r7, #240]	; 0xf0
 8009db0:	601a      	str	r2, [r3, #0]
 8009db2:	1d3b      	adds	r3, r7, #4
 8009db4:	681a      	ldr	r2, [r3, #0]
 8009db6:	463b      	mov	r3, r7
 8009db8:	681b      	ldr	r3, [r3, #0]
 8009dba:	4413      	add	r3, r2
 8009dbc:	f503 7362 	add.w	r3, r3, #904	; 0x388
 8009dc0:	2203      	movs	r2, #3
 8009dc2:	711a      	strb	r2, [r3, #4]
 8009dc4:	2300      	movs	r3, #0
 8009dc6:	65bb      	str	r3, [r7, #88]	; 0x58
 8009dc8:	f897 3058 	ldrb.w	r3, [r7, #88]	; 0x58
 8009dcc:	f043 0310 	orr.w	r3, r3, #16
 8009dd0:	f887 3058 	strb.w	r3, [r7, #88]	; 0x58
 8009dd4:	6dba      	ldr	r2, [r7, #88]	; 0x58
 8009dd6:	f8d7 312c 	ldr.w	r3, [r7, #300]	; 0x12c
 8009dda:	609a      	str	r2, [r3, #8]
 8009ddc:	2301      	movs	r3, #1
 8009dde:	4618      	mov	r0, r3
 8009de0:	f507 779a 	add.w	r7, r7, #308	; 0x134
 8009de4:	46bd      	mov	sp, r7
 8009de6:	f85d 7b04 	ldr.w	r7, [sp], #4
 8009dea:	4770      	bx	lr

08009dec <USB_OTG_USBH_handle_hc_ISR.8135.4177>:
USB_OTG_USBH_handle_hc_ISR.8135.4177():
 8009dec:	b580      	push	{r7, lr}
 8009dee:	b088      	sub	sp, #32
 8009df0:	af00      	add	r7, sp, #0
 8009df2:	6078      	str	r0, [r7, #4]
 8009df4:	2300      	movs	r3, #0
 8009df6:	61fb      	str	r3, [r7, #28]
 8009df8:	2300      	movs	r3, #0
 8009dfa:	61bb      	str	r3, [r7, #24]
 8009dfc:	687b      	ldr	r3, [r7, #4]
 8009dfe:	617b      	str	r3, [r7, #20]
 8009e00:	697b      	ldr	r3, [r7, #20]
 8009e02:	695b      	ldr	r3, [r3, #20]
 8009e04:	695b      	ldr	r3, [r3, #20]
 8009e06:	613b      	str	r3, [r7, #16]
 8009e08:	2300      	movs	r3, #0
 8009e0a:	61fb      	str	r3, [r7, #28]
 8009e0c:	e02a      	b.n	8009e64 <USB_OTG_USBH_handle_hc_ISR.8135.4177+0x78>
 8009e0e:	8a3b      	ldrh	r3, [r7, #16]
 8009e10:	461a      	mov	r2, r3
 8009e12:	69fb      	ldr	r3, [r7, #28]
 8009e14:	fa42 f303 	asr.w	r3, r2, r3
 8009e18:	f003 0301 	and.w	r3, r3, #1
 8009e1c:	2b00      	cmp	r3, #0
 8009e1e:	d01e      	beq.n	8009e5e <USB_OTG_USBH_handle_hc_ISR.8135.4177+0x72>
 8009e20:	687a      	ldr	r2, [r7, #4]
 8009e22:	69fb      	ldr	r3, [r7, #28]
 8009e24:	3322      	adds	r3, #34	; 0x22
 8009e26:	009b      	lsls	r3, r3, #2
 8009e28:	4413      	add	r3, r2
 8009e2a:	689b      	ldr	r3, [r3, #8]
 8009e2c:	681b      	ldr	r3, [r3, #0]
 8009e2e:	60fb      	str	r3, [r7, #12]
 8009e30:	7b7b      	ldrb	r3, [r7, #13]
 8009e32:	f3c3 13c0 	ubfx	r3, r3, #7, #1
 8009e36:	b2db      	uxtb	r3, r3
 8009e38:	2b00      	cmp	r3, #0
 8009e3a:	d008      	beq.n	8009e4e <USB_OTG_USBH_handle_hc_ISR.8135.4177+0x62>
 8009e3c:	6878      	ldr	r0, [r7, #4]
 8009e3e:	69f9      	ldr	r1, [r7, #28]
 8009e40:	f7ff fab0 	bl	80093a4 <USB_OTG_USBH_handle_hc_n_In_ISR.8131.4183>
 8009e44:	4603      	mov	r3, r0
 8009e46:	69ba      	ldr	r2, [r7, #24]
 8009e48:	4313      	orrs	r3, r2
 8009e4a:	61bb      	str	r3, [r7, #24]
 8009e4c:	e007      	b.n	8009e5e <USB_OTG_USBH_handle_hc_ISR.8135.4177+0x72>
 8009e4e:	6878      	ldr	r0, [r7, #4]
 8009e50:	69f9      	ldr	r1, [r7, #28]
 8009e52:	f7fe f855 	bl	8007f00 <USB_OTG_USBH_handle_hc_n_Out_ISR.8127>
 8009e56:	4603      	mov	r3, r0
 8009e58:	69ba      	ldr	r2, [r7, #24]
 8009e5a:	4313      	orrs	r3, r2
 8009e5c:	61bb      	str	r3, [r7, #24]
 8009e5e:	69fb      	ldr	r3, [r7, #28]
 8009e60:	3301      	adds	r3, #1
 8009e62:	61fb      	str	r3, [r7, #28]
 8009e64:	687b      	ldr	r3, [r7, #4]
 8009e66:	781b      	ldrb	r3, [r3, #0]
 8009e68:	461a      	mov	r2, r3
 8009e6a:	69fb      	ldr	r3, [r7, #28]
 8009e6c:	429a      	cmp	r2, r3
 8009e6e:	d8ce      	bhi.n	8009e0e <USB_OTG_USBH_handle_hc_ISR.8135.4177+0x22>
 8009e70:	69bb      	ldr	r3, [r7, #24]
 8009e72:	4618      	mov	r0, r3
 8009e74:	3720      	adds	r7, #32
 8009e76:	46bd      	mov	sp, r7
 8009e78:	bd80      	pop	{r7, pc}
 8009e7a:	bf00      	nop

08009e7c <USBH_OTG_ISR_Handler.4013>:
USBH_OTG_ISR_Handler.4013():
 8009e7c:	b580      	push	{r7, lr}
 8009e7e:	b088      	sub	sp, #32
 8009e80:	af00      	add	r7, sp, #0
 8009e82:	6078      	str	r0, [r7, #4]
 8009e84:	2300      	movs	r3, #0
 8009e86:	61fb      	str	r3, [r7, #28]
 8009e88:	2300      	movs	r3, #0
 8009e8a:	60fb      	str	r3, [r7, #12]
 8009e8c:	687b      	ldr	r3, [r7, #4]
 8009e8e:	61bb      	str	r3, [r7, #24]
 8009e90:	69bb      	ldr	r3, [r7, #24]
 8009e92:	68db      	ldr	r3, [r3, #12]
 8009e94:	695b      	ldr	r3, [r3, #20]
 8009e96:	f003 0301 	and.w	r3, r3, #1
 8009e9a:	2b01      	cmp	r3, #1
 8009e9c:	bf14      	ite	ne
 8009e9e:	2300      	movne	r3, #0
 8009ea0:	2301      	moveq	r3, #1
 8009ea2:	b2db      	uxtb	r3, r3
 8009ea4:	2b00      	cmp	r3, #0
 8009ea6:	d078      	beq.n	8009f9a <USBH_OTG_ISR_Handler.4013+0x11e>
 8009ea8:	687b      	ldr	r3, [r7, #4]
 8009eaa:	617b      	str	r3, [r7, #20]
 8009eac:	697b      	ldr	r3, [r7, #20]
 8009eae:	68db      	ldr	r3, [r3, #12]
 8009eb0:	695a      	ldr	r2, [r3, #20]
 8009eb2:	613a      	str	r2, [r7, #16]
 8009eb4:	699b      	ldr	r3, [r3, #24]
 8009eb6:	693a      	ldr	r2, [r7, #16]
 8009eb8:	4013      	ands	r3, r2
 8009eba:	613b      	str	r3, [r7, #16]
 8009ebc:	693b      	ldr	r3, [r7, #16]
 8009ebe:	60fb      	str	r3, [r7, #12]
 8009ec0:	68fb      	ldr	r3, [r7, #12]
 8009ec2:	2b00      	cmp	r3, #0
 8009ec4:	d101      	bne.n	8009eca <USBH_OTG_ISR_Handler.4013+0x4e>
 8009ec6:	2300      	movs	r3, #0
 8009ec8:	e068      	b.n	8009f9c <USBH_OTG_ISR_Handler.4013+0x120>
 8009eca:	7b3b      	ldrb	r3, [r7, #12]
 8009ecc:	f3c3 03c0 	ubfx	r3, r3, #3, #1
 8009ed0:	b2db      	uxtb	r3, r3
 8009ed2:	2b00      	cmp	r3, #0
 8009ed4:	d006      	beq.n	8009ee4 <USBH_OTG_ISR_Handler.4013+0x68>
 8009ed6:	6878      	ldr	r0, [r7, #4]
 8009ed8:	f7ff f882 	bl	8008fe0 <USB_OTG_USBH_handle_sof_ISR.7972>
 8009edc:	4603      	mov	r3, r0
 8009ede:	69fa      	ldr	r2, [r7, #28]
 8009ee0:	4313      	orrs	r3, r2
 8009ee2:	61fb      	str	r3, [r7, #28]
 8009ee4:	7b3b      	ldrb	r3, [r7, #12]
 8009ee6:	f3c3 1300 	ubfx	r3, r3, #4, #1
 8009eea:	b2db      	uxtb	r3, r3
 8009eec:	2b00      	cmp	r3, #0
 8009eee:	d006      	beq.n	8009efe <USBH_OTG_ISR_Handler.4013+0x82>
 8009ef0:	6878      	ldr	r0, [r7, #4]
 8009ef2:	f7ff f971 	bl	80091d8 <USB_OTG_USBH_handle_rx_qlvl_ISR.8138.4169>
 8009ef6:	4603      	mov	r3, r0
 8009ef8:	69fa      	ldr	r2, [r7, #28]
 8009efa:	4313      	orrs	r3, r2
 8009efc:	61fb      	str	r3, [r7, #28]
 8009efe:	7b3b      	ldrb	r3, [r7, #12]
 8009f00:	f3c3 1340 	ubfx	r3, r3, #5, #1
 8009f04:	b2db      	uxtb	r3, r3
 8009f06:	2b00      	cmp	r3, #0
 8009f08:	d006      	beq.n	8009f18 <USBH_OTG_ISR_Handler.4013+0x9c>
 8009f0a:	6878      	ldr	r0, [r7, #4]
 8009f0c:	f7fe ff5c 	bl	8008dc8 <USB_OTG_USBH_handle_nptxfempty_ISR.8118>
 8009f10:	4603      	mov	r3, r0
 8009f12:	69fa      	ldr	r2, [r7, #28]
 8009f14:	4313      	orrs	r3, r2
 8009f16:	61fb      	str	r3, [r7, #28]
 8009f18:	7bfb      	ldrb	r3, [r7, #15]
 8009f1a:	f3c3 0380 	ubfx	r3, r3, #2, #1
 8009f1e:	b2db      	uxtb	r3, r3
 8009f20:	2b00      	cmp	r3, #0
 8009f22:	d006      	beq.n	8009f32 <USBH_OTG_ISR_Handler.4013+0xb6>
 8009f24:	6878      	ldr	r0, [r7, #4]
 8009f26:	f7fe fe5d 	bl	8008be4 <USB_OTG_USBH_handle_ptxfempty_ISR.8121>
 8009f2a:	4603      	mov	r3, r0
 8009f2c:	69fa      	ldr	r2, [r7, #28]
 8009f2e:	4313      	orrs	r3, r2
 8009f30:	61fb      	str	r3, [r7, #28]
 8009f32:	7bfb      	ldrb	r3, [r7, #15]
 8009f34:	f3c3 0340 	ubfx	r3, r3, #1, #1
 8009f38:	b2db      	uxtb	r3, r3
 8009f3a:	2b00      	cmp	r3, #0
 8009f3c:	d006      	beq.n	8009f4c <USBH_OTG_ISR_Handler.4013+0xd0>
 8009f3e:	6878      	ldr	r0, [r7, #4]
 8009f40:	f7ff ff54 	bl	8009dec <USB_OTG_USBH_handle_hc_ISR.8135.4177>
 8009f44:	4603      	mov	r3, r0
 8009f46:	69fa      	ldr	r2, [r7, #28]
 8009f48:	4313      	orrs	r3, r2
 8009f4a:	61fb      	str	r3, [r7, #28]
 8009f4c:	7bfb      	ldrb	r3, [r7, #15]
 8009f4e:	f3c3 0300 	ubfx	r3, r3, #0, #1
 8009f52:	b2db      	uxtb	r3, r3
 8009f54:	2b00      	cmp	r3, #0
 8009f56:	d006      	beq.n	8009f66 <USBH_OTG_ISR_Handler.4013+0xea>
 8009f58:	6878      	ldr	r0, [r7, #4]
 8009f5a:	f7fe fd6f 	bl	8008a3c <USB_OTG_USBH_handle_port_ISR.8124>
 8009f5e:	4603      	mov	r3, r0
 8009f60:	69fa      	ldr	r2, [r7, #28]
 8009f62:	4313      	orrs	r3, r2
 8009f64:	61fb      	str	r3, [r7, #28]
 8009f66:	7bfb      	ldrb	r3, [r7, #15]
 8009f68:	f3c3 1340 	ubfx	r3, r3, #5, #1
 8009f6c:	b2db      	uxtb	r3, r3
 8009f6e:	2b00      	cmp	r3, #0
 8009f70:	d006      	beq.n	8009f80 <USBH_OTG_ISR_Handler.4013+0x104>
 8009f72:	6878      	ldr	r0, [r7, #4]
 8009f74:	f7ff f81a 	bl	8008fac <USB_OTG_USBH_handle_Disconnect_ISR.8115>
 8009f78:	4603      	mov	r3, r0
 8009f7a:	69fa      	ldr	r2, [r7, #28]
 8009f7c:	4313      	orrs	r3, r2
 8009f7e:	61fb      	str	r3, [r7, #28]
 8009f80:	7bbb      	ldrb	r3, [r7, #14]
 8009f82:	f3c3 1340 	ubfx	r3, r3, #5, #1
 8009f86:	b2db      	uxtb	r3, r3
 8009f88:	2b00      	cmp	r3, #0
 8009f8a:	d006      	beq.n	8009f9a <USBH_OTG_ISR_Handler.4013+0x11e>
 8009f8c:	6878      	ldr	r0, [r7, #4]
 8009f8e:	f7ff f8fb 	bl	8009188 <USB_OTG_USBH_handle_IncompletePeriodicXfer_ISR.8141.4166>
 8009f92:	4603      	mov	r3, r0
 8009f94:	69fa      	ldr	r2, [r7, #28]
 8009f96:	4313      	orrs	r3, r2
 8009f98:	61fb      	str	r3, [r7, #28]
 8009f9a:	69fb      	ldr	r3, [r7, #28]
 8009f9c:	4618      	mov	r0, r3
 8009f9e:	3720      	adds	r7, #32
 8009fa0:	46bd      	mov	sp, r7
 8009fa2:	bd80      	pop	{r7, pc}

08009fa4 <OTG_FS_IRQHandler.4010>:
OTG_FS_IRQHandler.4010():
 8009fa4:	4801      	ldr	r0, [pc, #4]	; (8009fac <OTG_FS_IRQHandler.4010+0x8>)
 8009fa6:	f7ff bf69 	b.w	8009e7c <USBH_OTG_ISR_Handler.4013>
 8009faa:	bf00      	nop
 8009fac:	20014d90 	.word	0x20014d90

08009fb0 <DMA1_Stream0_IRQHandler>:
DMA1_Stream0_IRQHandler():
 8009fb0:	b570      	push	{r4, r5, r6, lr}
 8009fb2:	4c11      	ldr	r4, [pc, #68]	; (8009ff8 <DMA1_Stream0_IRQHandler+0x48>)
 8009fb4:	6863      	ldr	r3, [r4, #4]
 8009fb6:	011a      	lsls	r2, r3, #4
 8009fb8:	d50c      	bpl.n	8009fd4 <DMA1_Stream0_IRQHandler+0x24>
 8009fba:	4e10      	ldr	r6, [pc, #64]	; (8009ffc <DMA1_Stream0_IRQHandler+0x4c>)
 8009fbc:	4810      	ldr	r0, [pc, #64]	; (800a000 <DMA1_Stream0_IRQHandler+0x50>)
 8009fbe:	6873      	ldr	r3, [r6, #4]
 8009fc0:	f44f 5500 	mov.w	r5, #8192	; 0x2000
 8009fc4:	835d      	strh	r5, [r3, #26]
 8009fc6:	f7f8 fa77 	bl	80024b8 <make_sound.constprop.52>
 8009fca:	6872      	ldr	r2, [r6, #4]
 8009fcc:	f04f 6300 	mov.w	r3, #134217728	; 0x8000000
 8009fd0:	8315      	strh	r5, [r2, #24]
 8009fd2:	60e3      	str	r3, [r4, #12]
 8009fd4:	4c08      	ldr	r4, [pc, #32]	; (8009ff8 <DMA1_Stream0_IRQHandler+0x48>)
 8009fd6:	6863      	ldr	r3, [r4, #4]
 8009fd8:	015b      	lsls	r3, r3, #5
 8009fda:	d50c      	bpl.n	8009ff6 <DMA1_Stream0_IRQHandler+0x46>
 8009fdc:	4e07      	ldr	r6, [pc, #28]	; (8009ffc <DMA1_Stream0_IRQHandler+0x4c>)
 8009fde:	4809      	ldr	r0, [pc, #36]	; (800a004 <DMA1_Stream0_IRQHandler+0x54>)
 8009fe0:	6873      	ldr	r3, [r6, #4]
 8009fe2:	f44f 5500 	mov.w	r5, #8192	; 0x2000
 8009fe6:	835d      	strh	r5, [r3, #26]
 8009fe8:	f7f8 fa66 	bl	80024b8 <make_sound.constprop.52>
 8009fec:	6872      	ldr	r2, [r6, #4]
 8009fee:	f04f 6380 	mov.w	r3, #67108864	; 0x4000000
 8009ff2:	8315      	strh	r5, [r2, #24]
 8009ff4:	60e3      	str	r3, [r4, #12]
 8009ff6:	bd70      	pop	{r4, r5, r6, pc}
 8009ff8:	40026000 	.word	0x40026000
 8009ffc:	20000084 	.word	0x20000084
 800a000:	20000be8 	.word	0x20000be8
 800a004:	200005a8 	.word	0x200005a8

0800a008 <DMA1_Stream7_IRQHandler>:
DMA1_Stream7_IRQHandler():
 800a008:	b570      	push	{r4, r5, r6, lr}
 800a00a:	4c11      	ldr	r4, [pc, #68]	; (800a050 <DMA1_Stream7_IRQHandler+0x48>)
 800a00c:	6863      	ldr	r3, [r4, #4]
 800a00e:	011a      	lsls	r2, r3, #4
 800a010:	d50c      	bpl.n	800a02c <DMA1_Stream7_IRQHandler+0x24>
 800a012:	4e10      	ldr	r6, [pc, #64]	; (800a054 <DMA1_Stream7_IRQHandler+0x4c>)
 800a014:	4810      	ldr	r0, [pc, #64]	; (800a058 <DMA1_Stream7_IRQHandler+0x50>)
 800a016:	6873      	ldr	r3, [r6, #4]
 800a018:	f44f 5500 	mov.w	r5, #8192	; 0x2000
 800a01c:	835d      	strh	r5, [r3, #26]
 800a01e:	f7f8 fa4b 	bl	80024b8 <make_sound.constprop.52>
 800a022:	6872      	ldr	r2, [r6, #4]
 800a024:	f04f 6300 	mov.w	r3, #134217728	; 0x8000000
 800a028:	8315      	strh	r5, [r2, #24]
 800a02a:	60e3      	str	r3, [r4, #12]
 800a02c:	4c08      	ldr	r4, [pc, #32]	; (800a050 <DMA1_Stream7_IRQHandler+0x48>)
 800a02e:	6863      	ldr	r3, [r4, #4]
 800a030:	015b      	lsls	r3, r3, #5
 800a032:	d50c      	bpl.n	800a04e <DMA1_Stream7_IRQHandler+0x46>
 800a034:	4e07      	ldr	r6, [pc, #28]	; (800a054 <DMA1_Stream7_IRQHandler+0x4c>)
 800a036:	4809      	ldr	r0, [pc, #36]	; (800a05c <DMA1_Stream7_IRQHandler+0x54>)
 800a038:	6873      	ldr	r3, [r6, #4]
 800a03a:	f44f 5500 	mov.w	r5, #8192	; 0x2000
 800a03e:	835d      	strh	r5, [r3, #26]
 800a040:	f7f8 fa3a 	bl	80024b8 <make_sound.constprop.52>
 800a044:	6872      	ldr	r2, [r6, #4]
 800a046:	f04f 6380 	mov.w	r3, #67108864	; 0x4000000
 800a04a:	8315      	strh	r5, [r2, #24]
 800a04c:	60e3      	str	r3, [r4, #12]
 800a04e:	bd70      	pop	{r4, r5, r6, pc}
 800a050:	40026000 	.word	0x40026000
 800a054:	20000084 	.word	0x20000084
 800a058:	20000be8 	.word	0x20000be8
 800a05c:	200005a8 	.word	0x200005a8

0800a060 <memcpy>:
memcpy():
 800a060:	4684      	mov	ip, r0
 800a062:	ea41 0300 	orr.w	r3, r1, r0
 800a066:	f013 0303 	ands.w	r3, r3, #3
 800a06a:	d16d      	bne.n	800a148 <memcpy+0xe8>
 800a06c:	3a40      	subs	r2, #64	; 0x40
 800a06e:	d341      	bcc.n	800a0f4 <memcpy+0x94>
 800a070:	f851 3b04 	ldr.w	r3, [r1], #4
 800a074:	f840 3b04 	str.w	r3, [r0], #4
 800a078:	f851 3b04 	ldr.w	r3, [r1], #4
 800a07c:	f840 3b04 	str.w	r3, [r0], #4
 800a080:	f851 3b04 	ldr.w	r3, [r1], #4
 800a084:	f840 3b04 	str.w	r3, [r0], #4
 800a088:	f851 3b04 	ldr.w	r3, [r1], #4
 800a08c:	f840 3b04 	str.w	r3, [r0], #4
 800a090:	f851 3b04 	ldr.w	r3, [r1], #4
 800a094:	f840 3b04 	str.w	r3, [r0], #4
 800a098:	f851 3b04 	ldr.w	r3, [r1], #4
 800a09c:	f840 3b04 	str.w	r3, [r0], #4
 800a0a0:	f851 3b04 	ldr.w	r3, [r1], #4
 800a0a4:	f840 3b04 	str.w	r3, [r0], #4
 800a0a8:	f851 3b04 	ldr.w	r3, [r1], #4
 800a0ac:	f840 3b04 	str.w	r3, [r0], #4
 800a0b0:	f851 3b04 	ldr.w	r3, [r1], #4
 800a0b4:	f840 3b04 	str.w	r3, [r0], #4
 800a0b8:	f851 3b04 	ldr.w	r3, [r1], #4
 800a0bc:	f840 3b04 	str.w	r3, [r0], #4
 800a0c0:	f851 3b04 	ldr.w	r3, [r1], #4
 800a0c4:	f840 3b04 	str.w	r3, [r0], #4
 800a0c8:	f851 3b04 	ldr.w	r3, [r1], #4
 800a0cc:	f840 3b04 	str.w	r3, [r0], #4
 800a0d0:	f851 3b04 	ldr.w	r3, [r1], #4
 800a0d4:	f840 3b04 	str.w	r3, [r0], #4
 800a0d8:	f851 3b04 	ldr.w	r3, [r1], #4
 800a0dc:	f840 3b04 	str.w	r3, [r0], #4
 800a0e0:	f851 3b04 	ldr.w	r3, [r1], #4
 800a0e4:	f840 3b04 	str.w	r3, [r0], #4
 800a0e8:	f851 3b04 	ldr.w	r3, [r1], #4
 800a0ec:	f840 3b04 	str.w	r3, [r0], #4
 800a0f0:	3a40      	subs	r2, #64	; 0x40
 800a0f2:	d2bd      	bcs.n	800a070 <memcpy+0x10>
 800a0f4:	3230      	adds	r2, #48	; 0x30
 800a0f6:	d311      	bcc.n	800a11c <memcpy+0xbc>
 800a0f8:	f851 3b04 	ldr.w	r3, [r1], #4
 800a0fc:	f840 3b04 	str.w	r3, [r0], #4
 800a100:	f851 3b04 	ldr.w	r3, [r1], #4
 800a104:	f840 3b04 	str.w	r3, [r0], #4
 800a108:	f851 3b04 	ldr.w	r3, [r1], #4
 800a10c:	f840 3b04 	str.w	r3, [r0], #4
 800a110:	f851 3b04 	ldr.w	r3, [r1], #4
 800a114:	f840 3b04 	str.w	r3, [r0], #4
 800a118:	3a10      	subs	r2, #16
 800a11a:	d2ed      	bcs.n	800a0f8 <memcpy+0x98>
 800a11c:	320c      	adds	r2, #12
 800a11e:	d305      	bcc.n	800a12c <memcpy+0xcc>
 800a120:	f851 3b04 	ldr.w	r3, [r1], #4
 800a124:	f840 3b04 	str.w	r3, [r0], #4
 800a128:	3a04      	subs	r2, #4
 800a12a:	d2f9      	bcs.n	800a120 <memcpy+0xc0>
 800a12c:	3204      	adds	r2, #4
 800a12e:	d008      	beq.n	800a142 <memcpy+0xe2>
 800a130:	07d2      	lsls	r2, r2, #31
 800a132:	bf1c      	itt	ne
 800a134:	f811 3b01 	ldrbne.w	r3, [r1], #1
 800a138:	f800 3b01 	strbne.w	r3, [r0], #1
 800a13c:	d301      	bcc.n	800a142 <memcpy+0xe2>
 800a13e:	880b      	ldrh	r3, [r1, #0]
 800a140:	8003      	strh	r3, [r0, #0]
 800a142:	4660      	mov	r0, ip
 800a144:	4770      	bx	lr
 800a146:	bf00      	nop
 800a148:	2a08      	cmp	r2, #8
 800a14a:	d313      	bcc.n	800a174 <memcpy+0x114>
 800a14c:	078b      	lsls	r3, r1, #30
 800a14e:	d08d      	beq.n	800a06c <memcpy+0xc>
 800a150:	f010 0303 	ands.w	r3, r0, #3
 800a154:	d08a      	beq.n	800a06c <memcpy+0xc>
 800a156:	f1c3 0304 	rsb	r3, r3, #4
 800a15a:	1ad2      	subs	r2, r2, r3
 800a15c:	07db      	lsls	r3, r3, #31
 800a15e:	bf1c      	itt	ne
 800a160:	f811 3b01 	ldrbne.w	r3, [r1], #1
 800a164:	f800 3b01 	strbne.w	r3, [r0], #1
 800a168:	d380      	bcc.n	800a06c <memcpy+0xc>
 800a16a:	f831 3b02 	ldrh.w	r3, [r1], #2
 800a16e:	f820 3b02 	strh.w	r3, [r0], #2
 800a172:	e77b      	b.n	800a06c <memcpy+0xc>
 800a174:	3a04      	subs	r2, #4
 800a176:	d3d9      	bcc.n	800a12c <memcpy+0xcc>
 800a178:	3a01      	subs	r2, #1
 800a17a:	f811 3b01 	ldrb.w	r3, [r1], #1
 800a17e:	f800 3b01 	strb.w	r3, [r0], #1
 800a182:	d2f9      	bcs.n	800a178 <memcpy+0x118>
 800a184:	780b      	ldrb	r3, [r1, #0]
 800a186:	7003      	strb	r3, [r0, #0]
 800a188:	784b      	ldrb	r3, [r1, #1]
 800a18a:	7043      	strb	r3, [r0, #1]
 800a18c:	788b      	ldrb	r3, [r1, #2]
 800a18e:	7083      	strb	r3, [r0, #2]
 800a190:	4660      	mov	r0, ip
 800a192:	4770      	bx	lr

0800a194 <memset>:
memset():
 800a194:	b4f0      	push	{r4, r5, r6, r7}
 800a196:	0784      	lsls	r4, r0, #30
 800a198:	d043      	beq.n	800a222 <memset+0x8e>
 800a19a:	1e54      	subs	r4, r2, #1
 800a19c:	2a00      	cmp	r2, #0
 800a19e:	d03e      	beq.n	800a21e <memset+0x8a>
 800a1a0:	b2cd      	uxtb	r5, r1
 800a1a2:	4603      	mov	r3, r0
 800a1a4:	e003      	b.n	800a1ae <memset+0x1a>
 800a1a6:	1e62      	subs	r2, r4, #1
 800a1a8:	2c00      	cmp	r4, #0
 800a1aa:	d038      	beq.n	800a21e <memset+0x8a>
 800a1ac:	4614      	mov	r4, r2
 800a1ae:	f803 5b01 	strb.w	r5, [r3], #1
 800a1b2:	079a      	lsls	r2, r3, #30
 800a1b4:	d1f7      	bne.n	800a1a6 <memset+0x12>
 800a1b6:	2c03      	cmp	r4, #3
 800a1b8:	d92a      	bls.n	800a210 <memset+0x7c>
 800a1ba:	b2cd      	uxtb	r5, r1
 800a1bc:	ea45 2505 	orr.w	r5, r5, r5, lsl #8
 800a1c0:	2c0f      	cmp	r4, #15
 800a1c2:	ea45 4505 	orr.w	r5, r5, r5, lsl #16
 800a1c6:	d915      	bls.n	800a1f4 <memset+0x60>
 800a1c8:	f1a4 0710 	sub.w	r7, r4, #16
 800a1cc:	093f      	lsrs	r7, r7, #4
 800a1ce:	f103 0610 	add.w	r6, r3, #16
 800a1d2:	eb06 1607 	add.w	r6, r6, r7, lsl #4
 800a1d6:	461a      	mov	r2, r3
 800a1d8:	6015      	str	r5, [r2, #0]
 800a1da:	6055      	str	r5, [r2, #4]
 800a1dc:	6095      	str	r5, [r2, #8]
 800a1de:	60d5      	str	r5, [r2, #12]
 800a1e0:	3210      	adds	r2, #16
 800a1e2:	42b2      	cmp	r2, r6
 800a1e4:	d1f8      	bne.n	800a1d8 <memset+0x44>
 800a1e6:	f004 040f 	and.w	r4, r4, #15
 800a1ea:	3701      	adds	r7, #1
 800a1ec:	2c03      	cmp	r4, #3
 800a1ee:	eb03 1307 	add.w	r3, r3, r7, lsl #4
 800a1f2:	d90d      	bls.n	800a210 <memset+0x7c>
 800a1f4:	461e      	mov	r6, r3
 800a1f6:	4622      	mov	r2, r4
 800a1f8:	3a04      	subs	r2, #4
 800a1fa:	2a03      	cmp	r2, #3
 800a1fc:	f846 5b04 	str.w	r5, [r6], #4
 800a200:	d8fa      	bhi.n	800a1f8 <memset+0x64>
 800a202:	1f22      	subs	r2, r4, #4
 800a204:	f022 0203 	bic.w	r2, r2, #3
 800a208:	3204      	adds	r2, #4
 800a20a:	4413      	add	r3, r2
 800a20c:	f004 0403 	and.w	r4, r4, #3
 800a210:	b12c      	cbz	r4, 800a21e <memset+0x8a>
 800a212:	b2c9      	uxtb	r1, r1
 800a214:	441c      	add	r4, r3
 800a216:	f803 1b01 	strb.w	r1, [r3], #1
 800a21a:	42a3      	cmp	r3, r4
 800a21c:	d1fb      	bne.n	800a216 <memset+0x82>
 800a21e:	bcf0      	pop	{r4, r5, r6, r7}
 800a220:	4770      	bx	lr
 800a222:	4614      	mov	r4, r2
 800a224:	4603      	mov	r3, r0
 800a226:	e7c6      	b.n	800a1b6 <memset+0x22>

0800a228 <fabsf>:
fabsf():
 800a228:	ee10 2a10 	vmov	r2, s0
 800a22c:	f022 4300 	bic.w	r3, r2, #2147483648	; 0x80000000
 800a230:	ee00 3a10 	vmov	s0, r3
 800a234:	4770      	bx	lr
 800a236:	bf00      	nop

0800a238 <floorf>:
floorf():
 800a238:	ee10 3a10 	vmov	r3, s0
 800a23c:	f023 4000 	bic.w	r0, r3, #2147483648	; 0x80000000
 800a240:	0dc1      	lsrs	r1, r0, #23
 800a242:	397f      	subs	r1, #127	; 0x7f
 800a244:	2916      	cmp	r1, #22
 800a246:	b410      	push	{r4}
 800a248:	dc18      	bgt.n	800a27c <floorf+0x44>
 800a24a:	2900      	cmp	r1, #0
 800a24c:	461c      	mov	r4, r3
 800a24e:	db22      	blt.n	800a296 <floorf+0x5e>
 800a250:	481e      	ldr	r0, [pc, #120]	; (800a2cc <floorf+0x94>)
 800a252:	4108      	asrs	r0, r1
 800a254:	4218      	tst	r0, r3
 800a256:	d014      	beq.n	800a282 <floorf+0x4a>
 800a258:	eddf 7a1d 	vldr	s15, [pc, #116]	; 800a2d0 <floorf+0x98>
 800a25c:	ee70 7a27 	vadd.f32	s15, s0, s15
 800a260:	eef5 7ac0 	vcmpe.f32	s15, #0.0
 800a264:	eef1 fa10 	vmrs	APSR_nzcv, fpscr
 800a268:	dd0b      	ble.n	800a282 <floorf+0x4a>
 800a26a:	2b00      	cmp	r3, #0
 800a26c:	db21      	blt.n	800a2b2 <floorf+0x7a>
 800a26e:	ea24 0000 	bic.w	r0, r4, r0
 800a272:	ee00 0a10 	vmov	s0, r0
 800a276:	f85d 4b04 	ldr.w	r4, [sp], #4
 800a27a:	4770      	bx	lr
 800a27c:	f1b0 4fff 	cmp.w	r0, #2139095040	; 0x7f800000
 800a280:	d204      	bcs.n	800a28c <floorf+0x54>
 800a282:	ee00 3a10 	vmov	s0, r3
 800a286:	f85d 4b04 	ldr.w	r4, [sp], #4
 800a28a:	4770      	bx	lr
 800a28c:	ee30 0a00 	vadd.f32	s0, s0, s0
 800a290:	f85d 4b04 	ldr.w	r4, [sp], #4
 800a294:	4770      	bx	lr
 800a296:	eddf 7a0e 	vldr	s15, [pc, #56]	; 800a2d0 <floorf+0x98>
 800a29a:	ee70 7a27 	vadd.f32	s15, s0, s15
 800a29e:	eef5 7ac0 	vcmpe.f32	s15, #0.0
 800a2a2:	eef1 fa10 	vmrs	APSR_nzcv, fpscr
 800a2a6:	ddec      	ble.n	800a282 <floorf+0x4a>
 800a2a8:	2b00      	cmp	r3, #0
 800a2aa:	db08      	blt.n	800a2be <floorf+0x86>
 800a2ac:	ed9f 0a09 	vldr	s0, [pc, #36]	; 800a2d4 <floorf+0x9c>
 800a2b0:	e7e9      	b.n	800a286 <floorf+0x4e>
 800a2b2:	f44f 0300 	mov.w	r3, #8388608	; 0x800000
 800a2b6:	fa43 f101 	asr.w	r1, r3, r1
 800a2ba:	440c      	add	r4, r1
 800a2bc:	e7d7      	b.n	800a26e <floorf+0x36>
 800a2be:	2800      	cmp	r0, #0
 800a2c0:	eebf 0a00 	vmov.f32	s0, #240	; 0xf0
 800a2c4:	bf08      	it	eq
 800a2c6:	ee00 3a10 	vmoveq	s0, r3
 800a2ca:	e7dc      	b.n	800a286 <floorf+0x4e>
 800a2cc:	007fffff 	.word	0x007fffff
 800a2d0:	7149f2ca 	.word	0x7149f2ca
 800a2d4:	00000000 	.word	0x00000000

0800a2d8 <lrintf>:
lrintf():
 800a2d8:	b410      	push	{r4}
 800a2da:	ee10 0a10 	vmov	r0, s0
 800a2de:	f3c0 51c7 	ubfx	r1, r0, #23, #8
 800a2e2:	f1a1 037f 	sub.w	r3, r1, #127	; 0x7f
 800a2e6:	2b1e      	cmp	r3, #30
 800a2e8:	b083      	sub	sp, #12
 800a2ea:	dc28      	bgt.n	800a33e <lrintf+0x66>
 800a2ec:	1c5c      	adds	r4, r3, #1
 800a2ee:	db21      	blt.n	800a334 <lrintf+0x5c>
 800a2f0:	2b16      	cmp	r3, #22
 800a2f2:	ea4f 74d0 	mov.w	r4, r0, lsr #31
 800a2f6:	dd0b      	ble.n	800a310 <lrintf+0x38>
 800a2f8:	f3c0 0016 	ubfx	r0, r0, #0, #23
 800a2fc:	f440 0000 	orr.w	r0, r0, #8388608	; 0x800000
 800a300:	3996      	subs	r1, #150	; 0x96
 800a302:	4088      	lsls	r0, r1
 800a304:	b104      	cbz	r4, 800a308 <lrintf+0x30>
 800a306:	4240      	negs	r0, r0
 800a308:	b003      	add	sp, #12
 800a30a:	f85d 4b04 	ldr.w	r4, [sp], #4
 800a30e:	4770      	bx	lr
 800a310:	4b15      	ldr	r3, [pc, #84]	; (800a368 <lrintf+0x90>)
 800a312:	eb03 0384 	add.w	r3, r3, r4, lsl #2
 800a316:	edd3 7a00 	vldr	s15, [r3]
 800a31a:	ee37 7a80 	vadd.f32	s14, s15, s0
 800a31e:	ed8d 7a01 	vstr	s14, [sp, #4]
 800a322:	ed9d 7a01 	vldr	s14, [sp, #4]
 800a326:	ee37 7a67 	vsub.f32	s14, s14, s15
 800a32a:	ee17 3a10 	vmov	r3, s14
 800a32e:	f023 4200 	bic.w	r2, r3, #2147483648	; 0x80000000
 800a332:	b962      	cbnz	r2, 800a34e <lrintf+0x76>
 800a334:	2000      	movs	r0, #0
 800a336:	b003      	add	sp, #12
 800a338:	f85d 4b04 	ldr.w	r4, [sp], #4
 800a33c:	4770      	bx	lr
 800a33e:	eefd 7ac0 	vcvt.s32.f32	s15, s0
 800a342:	ee17 0a90 	vmov	r0, s15
 800a346:	b003      	add	sp, #12
 800a348:	f85d 4b04 	ldr.w	r4, [sp], #4
 800a34c:	4770      	bx	lr
 800a34e:	f3c3 0016 	ubfx	r0, r3, #0, #23
 800a352:	f3c3 53c7 	ubfx	r3, r3, #23, #8
 800a356:	f440 0000 	orr.w	r0, r0, #8388608	; 0x800000
 800a35a:	f1c3 0396 	rsb	r3, r3, #150	; 0x96
 800a35e:	40d8      	lsrs	r0, r3
 800a360:	2c00      	cmp	r4, #0
 800a362:	d0d1      	beq.n	800a308 <lrintf+0x30>
 800a364:	e7cf      	b.n	800a306 <lrintf+0x2e>
 800a366:	bf00      	nop
 800a368:	0800d6d8 	.word	0x0800d6d8

0800a36c <rintf>:
rintf():
 800a36c:	ee10 3a10 	vmov	r3, s0
 800a370:	b410      	push	{r4}
 800a372:	f023 4200 	bic.w	r2, r3, #2147483648	; 0x80000000
 800a376:	0dd0      	lsrs	r0, r2, #23
 800a378:	387f      	subs	r0, #127	; 0x7f
 800a37a:	2816      	cmp	r0, #22
 800a37c:	b083      	sub	sp, #12
 800a37e:	ee10 1a10 	vmov	r1, s0
 800a382:	dc26      	bgt.n	800a3d2 <rintf+0x66>
 800a384:	b342      	cbz	r2, 800a3d8 <rintf+0x6c>
 800a386:	2800      	cmp	r0, #0
 800a388:	461a      	mov	r2, r3
 800a38a:	ea4f 74d3 	mov.w	r4, r3, lsr #31
 800a38e:	db2f      	blt.n	800a3f0 <rintf+0x84>
 800a390:	4928      	ldr	r1, [pc, #160]	; (800a434 <rintf+0xc8>)
 800a392:	4101      	asrs	r1, r0
 800a394:	4219      	tst	r1, r3
 800a396:	d01f      	beq.n	800a3d8 <rintf+0x6c>
 800a398:	0849      	lsrs	r1, r1, #1
 800a39a:	4219      	tst	r1, r3
 800a39c:	d006      	beq.n	800a3ac <rintf+0x40>
 800a39e:	f44f 1300 	mov.w	r3, #2097152	; 0x200000
 800a3a2:	ea22 0201 	bic.w	r2, r2, r1
 800a3a6:	fa43 f000 	asr.w	r0, r3, r0
 800a3aa:	4302      	orrs	r2, r0
 800a3ac:	4b22      	ldr	r3, [pc, #136]	; (800a438 <rintf+0xcc>)
 800a3ae:	eb03 0484 	add.w	r4, r3, r4, lsl #2
 800a3b2:	edd4 7a00 	vldr	s15, [r4]
 800a3b6:	ee06 2a90 	vmov	s13, r2
 800a3ba:	ee37 7aa6 	vadd.f32	s14, s15, s13
 800a3be:	ed8d 7a01 	vstr	s14, [sp, #4]
 800a3c2:	ed9d 0a01 	vldr	s0, [sp, #4]
 800a3c6:	ee30 0a67 	vsub.f32	s0, s0, s15
 800a3ca:	b003      	add	sp, #12
 800a3cc:	f85d 4b04 	ldr.w	r4, [sp], #4
 800a3d0:	4770      	bx	lr
 800a3d2:	f1b2 4fff 	cmp.w	r2, #2139095040	; 0x7f800000
 800a3d6:	d205      	bcs.n	800a3e4 <rintf+0x78>
 800a3d8:	ee00 3a10 	vmov	s0, r3
 800a3dc:	b003      	add	sp, #12
 800a3de:	f85d 4b04 	ldr.w	r4, [sp], #4
 800a3e2:	4770      	bx	lr
 800a3e4:	ee30 0a00 	vadd.f32	s0, s0, s0
 800a3e8:	b003      	add	sp, #12
 800a3ea:	f85d 4b04 	ldr.w	r4, [sp], #4
 800a3ee:	4770      	bx	lr
 800a3f0:	f3c3 0316 	ubfx	r3, r3, #0, #23
 800a3f4:	425b      	negs	r3, r3
 800a3f6:	4a10      	ldr	r2, [pc, #64]	; (800a438 <rintf+0xcc>)
 800a3f8:	0a5b      	lsrs	r3, r3, #9
 800a3fa:	0d09      	lsrs	r1, r1, #20
 800a3fc:	f403 0380 	and.w	r3, r3, #4194304	; 0x400000
 800a400:	0509      	lsls	r1, r1, #20
 800a402:	eb02 0284 	add.w	r2, r2, r4, lsl #2
 800a406:	4319      	orrs	r1, r3
 800a408:	edd2 7a00 	vldr	s15, [r2]
 800a40c:	ee06 1a90 	vmov	s13, r1
 800a410:	ee37 7aa6 	vadd.f32	s14, s15, s13
 800a414:	ed8d 7a01 	vstr	s14, [sp, #4]
 800a418:	ed9d 7a01 	vldr	s14, [sp, #4]
 800a41c:	ee77 7a67 	vsub.f32	s15, s14, s15
 800a420:	ee17 2a90 	vmov	r2, s15
 800a424:	f022 4300 	bic.w	r3, r2, #2147483648	; 0x80000000
 800a428:	ea43 73c4 	orr.w	r3, r3, r4, lsl #31
 800a42c:	ee00 3a10 	vmov	s0, r3
 800a430:	e7d4      	b.n	800a3dc <rintf+0x70>
 800a432:	bf00      	nop
 800a434:	007fffff 	.word	0x007fffff
 800a438:	0800d6e0 	.word	0x0800d6e0

0800a43c <sinf>:
sinf():
 800a43c:	b500      	push	{lr}
 800a43e:	ee10 3a10 	vmov	r3, s0
 800a442:	4a1b      	ldr	r2, [pc, #108]	; (800a4b0 <sinf+0x74>)
 800a444:	f023 4300 	bic.w	r3, r3, #2147483648	; 0x80000000
 800a448:	4293      	cmp	r3, r2
 800a44a:	b083      	sub	sp, #12
 800a44c:	dd1a      	ble.n	800a484 <sinf+0x48>
 800a44e:	f1b3 4fff 	cmp.w	r3, #2139095040	; 0x7f800000
 800a452:	db04      	blt.n	800a45e <sinf+0x22>
 800a454:	ee30 0a40 	vsub.f32	s0, s0, s0
 800a458:	b003      	add	sp, #12
 800a45a:	f85d fb04 	ldr.w	pc, [sp], #4
 800a45e:	4668      	mov	r0, sp
 800a460:	f000 fcb2 	bl	800adc8 <__ieee754_rem_pio2f>
 800a464:	f000 0003 	and.w	r0, r0, #3
 800a468:	2801      	cmp	r0, #1
 800a46a:	ed9d 0a00 	vldr	s0, [sp]
 800a46e:	eddd 0a01 	vldr	s1, [sp, #4]
 800a472:	d015      	beq.n	800a4a0 <sinf+0x64>
 800a474:	2802      	cmp	r0, #2
 800a476:	d00d      	beq.n	800a494 <sinf+0x58>
 800a478:	b1a8      	cbz	r0, 800a4a6 <sinf+0x6a>
 800a47a:	f000 fe3d 	bl	800b0f8 <__kernel_cosf>
 800a47e:	eeb1 0a40 	vneg.f32	s0, s0
 800a482:	e7e9      	b.n	800a458 <sinf+0x1c>
 800a484:	eddf 0a0b 	vldr	s1, [pc, #44]	; 800a4b4 <sinf+0x78>
 800a488:	2000      	movs	r0, #0
 800a48a:	f001 f99d 	bl	800b7c8 <__kernel_sinf>
 800a48e:	b003      	add	sp, #12
 800a490:	f85d fb04 	ldr.w	pc, [sp], #4
 800a494:	2001      	movs	r0, #1
 800a496:	f001 f997 	bl	800b7c8 <__kernel_sinf>
 800a49a:	eeb1 0a40 	vneg.f32	s0, s0
 800a49e:	e7db      	b.n	800a458 <sinf+0x1c>
 800a4a0:	f000 fe2a 	bl	800b0f8 <__kernel_cosf>
 800a4a4:	e7d8      	b.n	800a458 <sinf+0x1c>
 800a4a6:	2001      	movs	r0, #1
 800a4a8:	f001 f98e 	bl	800b7c8 <__kernel_sinf>
 800a4ac:	e7d4      	b.n	800a458 <sinf+0x1c>
 800a4ae:	bf00      	nop
 800a4b0:	3f490fd8 	.word	0x3f490fd8
 800a4b4:	00000000 	.word	0x00000000

0800a4b8 <powf>:
powf():
 800a4b8:	b570      	push	{r4, r5, r6, lr}
 800a4ba:	ed2d 8b04 	vpush	{d8-d9}
 800a4be:	4ea8      	ldr	r6, [pc, #672]	; (800a760 <powf+0x2a8>)
 800a4c0:	b08a      	sub	sp, #40	; 0x28
 800a4c2:	eeb0 9a40 	vmov.f32	s18, s0
 800a4c6:	eeb0 8a60 	vmov.f32	s16, s1
 800a4ca:	f000 f999 	bl	800a800 <__ieee754_powf>
 800a4ce:	f996 3000 	ldrsb.w	r3, [r6]
 800a4d2:	3301      	adds	r3, #1
 800a4d4:	eef0 8a40 	vmov.f32	s17, s0
 800a4d8:	d004      	beq.n	800a4e4 <powf+0x2c>
 800a4da:	eeb0 0a48 	vmov.f32	s0, s16
 800a4de:	f001 fa57 	bl	800b990 <__fpclassifyf>
 800a4e2:	b928      	cbnz	r0, 800a4f0 <powf+0x38>
 800a4e4:	eeb0 0a68 	vmov.f32	s0, s17
 800a4e8:	b00a      	add	sp, #40	; 0x28
 800a4ea:	ecbd 8b04 	vpop	{d8-d9}
 800a4ee:	bd70      	pop	{r4, r5, r6, pc}
 800a4f0:	eeb0 0a49 	vmov.f32	s0, s18
 800a4f4:	f001 fa4c 	bl	800b990 <__fpclassifyf>
 800a4f8:	2800      	cmp	r0, #0
 800a4fa:	d135      	bne.n	800a568 <powf+0xb0>
 800a4fc:	eeb5 8a40 	vcmp.f32	s16, #0.0
 800a500:	eef1 fa10 	vmrs	APSR_nzcv, fpscr
 800a504:	d1ee      	bne.n	800a4e4 <powf+0x2c>
 800a506:	4b97      	ldr	r3, [pc, #604]	; (800a764 <powf+0x2ac>)
 800a508:	9008      	str	r0, [sp, #32]
 800a50a:	2201      	movs	r2, #1
 800a50c:	ee19 0a10 	vmov	r0, s18
 800a510:	e88d 000c 	stmia.w	sp, {r2, r3}
 800a514:	f001 fc3a 	bl	800bd8c <__aeabi_f2d>
 800a518:	e9cd 0102 	strd	r0, r1, [sp, #8]
 800a51c:	ee18 0a10 	vmov	r0, s16
 800a520:	f001 fc34 	bl	800bd8c <__aeabi_f2d>
 800a524:	4b90      	ldr	r3, [pc, #576]	; (800a768 <powf+0x2b0>)
 800a526:	f996 4000 	ldrsb.w	r4, [r6]
 800a52a:	2200      	movs	r2, #0
 800a52c:	e9cd 2306 	strd	r2, r3, [sp, #24]
 800a530:	1c63      	adds	r3, r4, #1
 800a532:	e9cd 0104 	strd	r0, r1, [sp, #16]
 800a536:	d00d      	beq.n	800a554 <powf+0x9c>
 800a538:	2c02      	cmp	r4, #2
 800a53a:	d00b      	beq.n	800a554 <powf+0x9c>
 800a53c:	4668      	mov	r0, sp
 800a53e:	f001 f98b 	bl	800b858 <matherr>
 800a542:	2800      	cmp	r0, #0
 800a544:	f000 80a4 	beq.w	800a690 <powf+0x1d8>
 800a548:	9b08      	ldr	r3, [sp, #32]
 800a54a:	b11b      	cbz	r3, 800a554 <powf+0x9c>
 800a54c:	f001 ff84 	bl	800c458 <____errno_veneer>
 800a550:	9b08      	ldr	r3, [sp, #32]
 800a552:	6003      	str	r3, [r0, #0]
 800a554:	e9dd 0106 	ldrd	r0, r1, [sp, #24]
 800a558:	f001 ff06 	bl	800c368 <__aeabi_d2f>
 800a55c:	ee00 0a10 	vmov	s0, r0
 800a560:	b00a      	add	sp, #40	; 0x28
 800a562:	ecbd 8b04 	vpop	{d8-d9}
 800a566:	bd70      	pop	{r4, r5, r6, pc}
 800a568:	eeb5 9a40 	vcmp.f32	s18, #0.0
 800a56c:	eef1 fa10 	vmrs	APSR_nzcv, fpscr
 800a570:	d123      	bne.n	800a5ba <powf+0x102>
 800a572:	eeb5 8a40 	vcmp.f32	s16, #0.0
 800a576:	eef1 fa10 	vmrs	APSR_nzcv, fpscr
 800a57a:	d15c      	bne.n	800a636 <powf+0x17e>
 800a57c:	2301      	movs	r3, #1
 800a57e:	4a79      	ldr	r2, [pc, #484]	; (800a764 <powf+0x2ac>)
 800a580:	9300      	str	r3, [sp, #0]
 800a582:	ee19 0a10 	vmov	r0, s18
 800a586:	2300      	movs	r3, #0
 800a588:	9201      	str	r2, [sp, #4]
 800a58a:	9308      	str	r3, [sp, #32]
 800a58c:	f001 fbfe 	bl	800bd8c <__aeabi_f2d>
 800a590:	e9cd 0102 	strd	r0, r1, [sp, #8]
 800a594:	ee18 0a10 	vmov	r0, s16
 800a598:	f001 fbf8 	bl	800bd8c <__aeabi_f2d>
 800a59c:	f996 4000 	ldrsb.w	r4, [r6]
 800a5a0:	2200      	movs	r2, #0
 800a5a2:	2300      	movs	r3, #0
 800a5a4:	e9cd 0104 	strd	r0, r1, [sp, #16]
 800a5a8:	e9cd 2306 	strd	r2, r3, [sp, #24]
 800a5ac:	2c00      	cmp	r4, #0
 800a5ae:	d0c5      	beq.n	800a53c <powf+0x84>
 800a5b0:	4b6d      	ldr	r3, [pc, #436]	; (800a768 <powf+0x2b0>)
 800a5b2:	2200      	movs	r2, #0
 800a5b4:	e9cd 2306 	strd	r2, r3, [sp, #24]
 800a5b8:	e7cc      	b.n	800a554 <powf+0x9c>
 800a5ba:	eeb0 0a68 	vmov.f32	s0, s17
 800a5be:	f001 f9dd 	bl	800b97c <finitef>
 800a5c2:	4604      	mov	r4, r0
 800a5c4:	2800      	cmp	r0, #0
 800a5c6:	d068      	beq.n	800a69a <powf+0x1e2>
 800a5c8:	eef5 8a40 	vcmp.f32	s17, #0.0
 800a5cc:	eef1 fa10 	vmrs	APSR_nzcv, fpscr
 800a5d0:	d188      	bne.n	800a4e4 <powf+0x2c>
 800a5d2:	eeb0 0a49 	vmov.f32	s0, s18
 800a5d6:	f001 f9d1 	bl	800b97c <finitef>
 800a5da:	2800      	cmp	r0, #0
 800a5dc:	d082      	beq.n	800a4e4 <powf+0x2c>
 800a5de:	eeb0 0a48 	vmov.f32	s0, s16
 800a5e2:	f001 f9cb 	bl	800b97c <finitef>
 800a5e6:	2800      	cmp	r0, #0
 800a5e8:	f43f af7c 	beq.w	800a4e4 <powf+0x2c>
 800a5ec:	2304      	movs	r3, #4
 800a5ee:	4a5d      	ldr	r2, [pc, #372]	; (800a764 <powf+0x2ac>)
 800a5f0:	9300      	str	r3, [sp, #0]
 800a5f2:	ee19 0a10 	vmov	r0, s18
 800a5f6:	2300      	movs	r3, #0
 800a5f8:	9201      	str	r2, [sp, #4]
 800a5fa:	9308      	str	r3, [sp, #32]
 800a5fc:	f001 fbc6 	bl	800bd8c <__aeabi_f2d>
 800a600:	e9cd 0102 	strd	r0, r1, [sp, #8]
 800a604:	ee18 0a10 	vmov	r0, s16
 800a608:	f001 fbc0 	bl	800bd8c <__aeabi_f2d>
 800a60c:	f996 4000 	ldrsb.w	r4, [r6]
 800a610:	2200      	movs	r2, #0
 800a612:	2300      	movs	r3, #0
 800a614:	2c02      	cmp	r4, #2
 800a616:	e9cd 0104 	strd	r0, r1, [sp, #16]
 800a61a:	e9cd 2306 	strd	r2, r3, [sp, #24]
 800a61e:	f000 808e 	beq.w	800a73e <powf+0x286>
 800a622:	4668      	mov	r0, sp
 800a624:	f001 f918 	bl	800b858 <matherr>
 800a628:	2800      	cmp	r0, #0
 800a62a:	f000 8088 	beq.w	800a73e <powf+0x286>
 800a62e:	9b08      	ldr	r3, [sp, #32]
 800a630:	2b00      	cmp	r3, #0
 800a632:	d08f      	beq.n	800a554 <powf+0x9c>
 800a634:	e78a      	b.n	800a54c <powf+0x94>
 800a636:	eeb0 0a48 	vmov.f32	s0, s16
 800a63a:	f001 f99f 	bl	800b97c <finitef>
 800a63e:	2800      	cmp	r0, #0
 800a640:	f43f af50 	beq.w	800a4e4 <powf+0x2c>
 800a644:	eeb5 8ac0 	vcmpe.f32	s16, #0.0
 800a648:	eef1 fa10 	vmrs	APSR_nzcv, fpscr
 800a64c:	f57f af4a 	bpl.w	800a4e4 <powf+0x2c>
 800a650:	2301      	movs	r3, #1
 800a652:	4a44      	ldr	r2, [pc, #272]	; (800a764 <powf+0x2ac>)
 800a654:	9300      	str	r3, [sp, #0]
 800a656:	ee19 0a10 	vmov	r0, s18
 800a65a:	2300      	movs	r3, #0
 800a65c:	9201      	str	r2, [sp, #4]
 800a65e:	9308      	str	r3, [sp, #32]
 800a660:	f001 fb94 	bl	800bd8c <__aeabi_f2d>
 800a664:	e9cd 0102 	strd	r0, r1, [sp, #8]
 800a668:	ee18 0a10 	vmov	r0, s16
 800a66c:	f001 fb8e 	bl	800bd8c <__aeabi_f2d>
 800a670:	7834      	ldrb	r4, [r6, #0]
 800a672:	e9cd 0104 	strd	r0, r1, [sp, #16]
 800a676:	2200      	movs	r2, #0
 800a678:	2c00      	cmp	r4, #0
 800a67a:	d034      	beq.n	800a6e6 <powf+0x22e>
 800a67c:	4b3b      	ldr	r3, [pc, #236]	; (800a76c <powf+0x2b4>)
 800a67e:	2c02      	cmp	r4, #2
 800a680:	e9cd 2306 	strd	r2, r3, [sp, #24]
 800a684:	d132      	bne.n	800a6ec <powf+0x234>
 800a686:	f001 fee7 	bl	800c458 <____errno_veneer>
 800a68a:	2321      	movs	r3, #33	; 0x21
 800a68c:	6003      	str	r3, [r0, #0]
 800a68e:	e7ce      	b.n	800a62e <powf+0x176>
 800a690:	f001 fee2 	bl	800c458 <____errno_veneer>
 800a694:	2321      	movs	r3, #33	; 0x21
 800a696:	6003      	str	r3, [r0, #0]
 800a698:	e756      	b.n	800a548 <powf+0x90>
 800a69a:	eeb0 0a49 	vmov.f32	s0, s18
 800a69e:	f001 f96d 	bl	800b97c <finitef>
 800a6a2:	2800      	cmp	r0, #0
 800a6a4:	d090      	beq.n	800a5c8 <powf+0x110>
 800a6a6:	eeb0 0a48 	vmov.f32	s0, s16
 800a6aa:	f001 f967 	bl	800b97c <finitef>
 800a6ae:	2800      	cmp	r0, #0
 800a6b0:	d08a      	beq.n	800a5c8 <powf+0x110>
 800a6b2:	eeb0 0a68 	vmov.f32	s0, s17
 800a6b6:	f001 f96b 	bl	800b990 <__fpclassifyf>
 800a6ba:	b9e8      	cbnz	r0, 800a6f8 <powf+0x240>
 800a6bc:	4b29      	ldr	r3, [pc, #164]	; (800a764 <powf+0x2ac>)
 800a6be:	9008      	str	r0, [sp, #32]
 800a6c0:	2201      	movs	r2, #1
 800a6c2:	ee19 0a10 	vmov	r0, s18
 800a6c6:	e88d 000c 	stmia.w	sp, {r2, r3}
 800a6ca:	f001 fb5f 	bl	800bd8c <__aeabi_f2d>
 800a6ce:	e9cd 0102 	strd	r0, r1, [sp, #8]
 800a6d2:	ee18 0a10 	vmov	r0, s16
 800a6d6:	f001 fb59 	bl	800bd8c <__aeabi_f2d>
 800a6da:	7834      	ldrb	r4, [r6, #0]
 800a6dc:	e9cd 0104 	strd	r0, r1, [sp, #16]
 800a6e0:	2c00      	cmp	r4, #0
 800a6e2:	d131      	bne.n	800a748 <powf+0x290>
 800a6e4:	2200      	movs	r2, #0
 800a6e6:	2300      	movs	r3, #0
 800a6e8:	e9cd 2306 	strd	r2, r3, [sp, #24]
 800a6ec:	4668      	mov	r0, sp
 800a6ee:	f001 f8b3 	bl	800b858 <matherr>
 800a6f2:	2800      	cmp	r0, #0
 800a6f4:	d19b      	bne.n	800a62e <powf+0x176>
 800a6f6:	e7c6      	b.n	800a686 <powf+0x1ce>
 800a6f8:	4b1a      	ldr	r3, [pc, #104]	; (800a764 <powf+0x2ac>)
 800a6fa:	9408      	str	r4, [sp, #32]
 800a6fc:	2203      	movs	r2, #3
 800a6fe:	ee19 0a10 	vmov	r0, s18
 800a702:	e88d 000c 	stmia.w	sp, {r2, r3}
 800a706:	f001 fb41 	bl	800bd8c <__aeabi_f2d>
 800a70a:	e9cd 0102 	strd	r0, r1, [sp, #8]
 800a70e:	ee18 0a10 	vmov	r0, s16
 800a712:	f001 fb3b 	bl	800bd8c <__aeabi_f2d>
 800a716:	f996 3000 	ldrsb.w	r3, [r6]
 800a71a:	e9cd 0104 	strd	r0, r1, [sp, #16]
 800a71e:	bb4b      	cbnz	r3, 800a774 <powf+0x2bc>
 800a720:	4b13      	ldr	r3, [pc, #76]	; (800a770 <powf+0x2b8>)
 800a722:	eeb5 9ac0 	vcmpe.f32	s18, #0.0
 800a726:	f04f 4260 	mov.w	r2, #3758096384	; 0xe0000000
 800a72a:	eef1 fa10 	vmrs	APSR_nzcv, fpscr
 800a72e:	e9cd 2306 	strd	r2, r3, [sp, #24]
 800a732:	d443      	bmi.n	800a7bc <powf+0x304>
 800a734:	f996 3000 	ldrsb.w	r3, [r6]
 800a738:	2b02      	cmp	r3, #2
 800a73a:	f47f af72 	bne.w	800a622 <powf+0x16a>
 800a73e:	f001 fe8b 	bl	800c458 <____errno_veneer>
 800a742:	2322      	movs	r3, #34	; 0x22
 800a744:	6003      	str	r3, [r0, #0]
 800a746:	e772      	b.n	800a62e <powf+0x176>
 800a748:	2000      	movs	r0, #0
 800a74a:	2100      	movs	r1, #0
 800a74c:	4602      	mov	r2, r0
 800a74e:	460b      	mov	r3, r1
 800a750:	f001 fc9a 	bl	800c088 <__aeabi_ddiv>
 800a754:	2c02      	cmp	r4, #2
 800a756:	e9cd 0106 	strd	r0, r1, [sp, #24]
 800a75a:	d094      	beq.n	800a686 <powf+0x1ce>
 800a75c:	e7c6      	b.n	800a6ec <powf+0x234>
 800a75e:	bf00      	nop
 800a760:	200000ac 	.word	0x200000ac
 800a764:	0800d6e8 	.word	0x0800d6e8
 800a768:	3ff00000 	.word	0x3ff00000
 800a76c:	fff00000 	.word	0xfff00000
 800a770:	47efffff 	.word	0x47efffff
 800a774:	4b1f      	ldr	r3, [pc, #124]	; (800a7f4 <powf+0x33c>)
 800a776:	eeb5 9ac0 	vcmpe.f32	s18, #0.0
 800a77a:	2200      	movs	r2, #0
 800a77c:	eef1 fa10 	vmrs	APSR_nzcv, fpscr
 800a780:	e9cd 2306 	strd	r2, r3, [sp, #24]
 800a784:	d5d6      	bpl.n	800a734 <powf+0x27c>
 800a786:	eef6 7a00 	vmov.f32	s15, #96	; 0x60
 800a78a:	ee68 7a27 	vmul.f32	s15, s16, s15
 800a78e:	ee17 0a90 	vmov	r0, s15
 800a792:	f001 fafb 	bl	800bd8c <__aeabi_f2d>
 800a796:	4604      	mov	r4, r0
 800a798:	460d      	mov	r5, r1
 800a79a:	ec45 4b10 	vmov	d0, r4, r5
 800a79e:	f001 f85d 	bl	800b85c <rint>
 800a7a2:	4620      	mov	r0, r4
 800a7a4:	4629      	mov	r1, r5
 800a7a6:	ec53 2b10 	vmov	r2, r3, d0
 800a7aa:	f001 fdab 	bl	800c304 <__aeabi_dcmpeq>
 800a7ae:	2800      	cmp	r0, #0
 800a7b0:	d1c0      	bne.n	800a734 <powf+0x27c>
 800a7b2:	4b11      	ldr	r3, [pc, #68]	; (800a7f8 <powf+0x340>)
 800a7b4:	2200      	movs	r2, #0
 800a7b6:	e9cd 2306 	strd	r2, r3, [sp, #24]
 800a7ba:	e7bb      	b.n	800a734 <powf+0x27c>
 800a7bc:	eef6 7a00 	vmov.f32	s15, #96	; 0x60
 800a7c0:	ee68 7a27 	vmul.f32	s15, s16, s15
 800a7c4:	ee17 0a90 	vmov	r0, s15
 800a7c8:	f001 fae0 	bl	800bd8c <__aeabi_f2d>
 800a7cc:	4604      	mov	r4, r0
 800a7ce:	460d      	mov	r5, r1
 800a7d0:	ec45 4b10 	vmov	d0, r4, r5
 800a7d4:	f001 f842 	bl	800b85c <rint>
 800a7d8:	4620      	mov	r0, r4
 800a7da:	4629      	mov	r1, r5
 800a7dc:	ec53 2b10 	vmov	r2, r3, d0
 800a7e0:	f001 fd90 	bl	800c304 <__aeabi_dcmpeq>
 800a7e4:	2800      	cmp	r0, #0
 800a7e6:	d1a5      	bne.n	800a734 <powf+0x27c>
 800a7e8:	4b04      	ldr	r3, [pc, #16]	; (800a7fc <powf+0x344>)
 800a7ea:	f04f 4260 	mov.w	r2, #3758096384	; 0xe0000000
 800a7ee:	e9cd 2306 	strd	r2, r3, [sp, #24]
 800a7f2:	e79f      	b.n	800a734 <powf+0x27c>
 800a7f4:	7ff00000 	.word	0x7ff00000
 800a7f8:	fff00000 	.word	0xfff00000
 800a7fc:	c7efffff 	.word	0xc7efffff

0800a800 <__ieee754_powf>:
__ieee754_powf():
 800a800:	e92d 47f0 	stmdb	sp!, {r4, r5, r6, r7, r8, r9, sl, lr}
 800a804:	ee10 5a90 	vmov	r5, s1
 800a808:	f035 4700 	bics.w	r7, r5, #2147483648	; 0x80000000
 800a80c:	ed2d 8b02 	vpush	{d8}
 800a810:	ee10 4a90 	vmov	r4, s1
 800a814:	ee10 6a10 	vmov	r6, s0
 800a818:	d013      	beq.n	800a842 <__ieee754_powf+0x42>
 800a81a:	f026 4800 	bic.w	r8, r6, #2147483648	; 0x80000000
 800a81e:	f1b8 4fff 	cmp.w	r8, #2139095040	; 0x7f800000
 800a822:	ee10 9a10 	vmov	r9, s0
 800a826:	dd06      	ble.n	800a836 <__ieee754_powf+0x36>
 800a828:	ecbd 8b02 	vpop	{d8}
 800a82c:	4850      	ldr	r0, [pc, #320]	; (800a970 <__ieee754_powf+0x170>)
 800a82e:	e8bd 47f0 	ldmia.w	sp!, {r4, r5, r6, r7, r8, r9, sl, lr}
 800a832:	f001 b8c9 	b.w	800b9c8 <nanf>
 800a836:	f1b7 4fff 	cmp.w	r7, #2139095040	; 0x7f800000
 800a83a:	dd08      	ble.n	800a84e <__ieee754_powf+0x4e>
 800a83c:	f1b8 5f7e 	cmp.w	r8, #1065353216	; 0x3f800000
 800a840:	d1f2      	bne.n	800a828 <__ieee754_powf+0x28>
 800a842:	eeb7 0a00 	vmov.f32	s0, #112	; 0x70
 800a846:	ecbd 8b02 	vpop	{d8}
 800a84a:	e8bd 87f0 	ldmia.w	sp!, {r4, r5, r6, r7, r8, r9, sl, pc}
 800a84e:	2e00      	cmp	r6, #0
 800a850:	db51      	blt.n	800a8f6 <__ieee754_powf+0xf6>
 800a852:	f04f 0a00 	mov.w	sl, #0
 800a856:	f1b7 4fff 	cmp.w	r7, #2139095040	; 0x7f800000
 800a85a:	d043      	beq.n	800a8e4 <__ieee754_powf+0xe4>
 800a85c:	f1b7 5f7e 	cmp.w	r7, #1065353216	; 0x3f800000
 800a860:	d05c      	beq.n	800a91c <__ieee754_powf+0x11c>
 800a862:	f1b4 4f80 	cmp.w	r4, #1073741824	; 0x40000000
 800a866:	d068      	beq.n	800a93a <__ieee754_powf+0x13a>
 800a868:	f1b4 5f7c 	cmp.w	r4, #1056964608	; 0x3f000000
 800a86c:	ee00 6a10 	vmov	s0, r6
 800a870:	d01c      	beq.n	800a8ac <__ieee754_powf+0xac>
 800a872:	f7ff fcd9 	bl	800a228 <fabsf>
 800a876:	f1b8 0f00 	cmp.w	r8, #0
 800a87a:	d020      	beq.n	800a8be <__ieee754_powf+0xbe>
 800a87c:	f029 4340 	bic.w	r3, r9, #3221225472	; 0xc0000000
 800a880:	f1b3 5f7e 	cmp.w	r3, #1065353216	; 0x3f800000
 800a884:	d01b      	beq.n	800a8be <__ieee754_powf+0xbe>
 800a886:	ea4f 73d9 	mov.w	r3, r9, lsr #31
 800a88a:	3b01      	subs	r3, #1
 800a88c:	ea5a 0003 	orrs.w	r0, sl, r3
 800a890:	d066      	beq.n	800a960 <__ieee754_powf+0x160>
 800a892:	f1b7 4f9a 	cmp.w	r7, #1291845632	; 0x4d000000
 800a896:	dd73      	ble.n	800a980 <__ieee754_powf+0x180>
 800a898:	4a36      	ldr	r2, [pc, #216]	; (800a974 <__ieee754_powf+0x174>)
 800a89a:	4590      	cmp	r8, r2
 800a89c:	f300 81cc 	bgt.w	800ac38 <__ieee754_powf+0x438>
 800a8a0:	2c00      	cmp	r4, #0
 800a8a2:	f2c0 81cf 	blt.w	800ac44 <__ieee754_powf+0x444>
 800a8a6:	ed9f 0a34 	vldr	s0, [pc, #208]	; 800a978 <__ieee754_powf+0x178>
 800a8aa:	e7cc      	b.n	800a846 <__ieee754_powf+0x46>
 800a8ac:	f1b9 0f00 	cmp.w	r9, #0
 800a8b0:	dbdf      	blt.n	800a872 <__ieee754_powf+0x72>
 800a8b2:	ecbd 8b02 	vpop	{d8}
 800a8b6:	e8bd 47f0 	ldmia.w	sp!, {r4, r5, r6, r7, r8, r9, sl, lr}
 800a8ba:	f000 bbcb 	b.w	800b054 <__ieee754_sqrtf>
 800a8be:	2c00      	cmp	r4, #0
 800a8c0:	bfbc      	itt	lt
 800a8c2:	eef7 7a00 	vmovlt.f32	s15, #112	; 0x70
 800a8c6:	ee87 0a80 	vdivlt.f32	s0, s15, s0
 800a8ca:	f1b9 0f00 	cmp.w	r9, #0
 800a8ce:	daba      	bge.n	800a846 <__ieee754_powf+0x46>
 800a8d0:	f1a8 587e 	sub.w	r8, r8, #1065353216	; 0x3f800000
 800a8d4:	ea5a 0808 	orrs.w	r8, sl, r8
 800a8d8:	d13b      	bne.n	800a952 <__ieee754_powf+0x152>
 800a8da:	ee30 0a40 	vsub.f32	s0, s0, s0
 800a8de:	ee80 0a00 	vdiv.f32	s0, s0, s0
 800a8e2:	e7b0      	b.n	800a846 <__ieee754_powf+0x46>
 800a8e4:	f1b8 5f7e 	cmp.w	r8, #1065353216	; 0x3f800000
 800a8e8:	d0ab      	beq.n	800a842 <__ieee754_powf+0x42>
 800a8ea:	dd1f      	ble.n	800a92c <__ieee754_powf+0x12c>
 800a8ec:	2c00      	cmp	r4, #0
 800a8ee:	dbda      	blt.n	800a8a6 <__ieee754_powf+0xa6>
 800a8f0:	ee00 5a10 	vmov	s0, r5
 800a8f4:	e7a7      	b.n	800a846 <__ieee754_powf+0x46>
 800a8f6:	f1b7 4f97 	cmp.w	r7, #1266679808	; 0x4b800000
 800a8fa:	da14      	bge.n	800a926 <__ieee754_powf+0x126>
 800a8fc:	f1b7 5f7e 	cmp.w	r7, #1065353216	; 0x3f800000
 800a900:	db09      	blt.n	800a916 <__ieee754_powf+0x116>
 800a902:	15fb      	asrs	r3, r7, #23
 800a904:	f1c3 0396 	rsb	r3, r3, #150	; 0x96
 800a908:	fa47 f203 	asr.w	r2, r7, r3
 800a90c:	fa02 f303 	lsl.w	r3, r2, r3
 800a910:	42bb      	cmp	r3, r7
 800a912:	f000 8187 	beq.w	800ac24 <__ieee754_powf+0x424>
 800a916:	f04f 0a00 	mov.w	sl, #0
 800a91a:	e79f      	b.n	800a85c <__ieee754_powf+0x5c>
 800a91c:	2c00      	cmp	r4, #0
 800a91e:	db11      	blt.n	800a944 <__ieee754_powf+0x144>
 800a920:	ee00 6a10 	vmov	s0, r6
 800a924:	e78f      	b.n	800a846 <__ieee754_powf+0x46>
 800a926:	f04f 0a02 	mov.w	sl, #2
 800a92a:	e794      	b.n	800a856 <__ieee754_powf+0x56>
 800a92c:	2c00      	cmp	r4, #0
 800a92e:	daba      	bge.n	800a8a6 <__ieee754_powf+0xa6>
 800a930:	ee02 5a10 	vmov	s4, r5
 800a934:	eeb1 0a42 	vneg.f32	s0, s4
 800a938:	e785      	b.n	800a846 <__ieee754_powf+0x46>
 800a93a:	ee06 6a10 	vmov	s12, r6
 800a93e:	ee26 0a06 	vmul.f32	s0, s12, s12
 800a942:	e780      	b.n	800a846 <__ieee754_powf+0x46>
 800a944:	ee05 6a90 	vmov	s11, r6
 800a948:	eeb7 0a00 	vmov.f32	s0, #112	; 0x70
 800a94c:	ee80 0a25 	vdiv.f32	s0, s0, s11
 800a950:	e779      	b.n	800a846 <__ieee754_powf+0x46>
 800a952:	f1ba 0f01 	cmp.w	sl, #1
 800a956:	f47f af76 	bne.w	800a846 <__ieee754_powf+0x46>
 800a95a:	eeb1 0a40 	vneg.f32	s0, s0
 800a95e:	e772      	b.n	800a846 <__ieee754_powf+0x46>
 800a960:	ee02 6a10 	vmov	s4, r6
 800a964:	ee32 0a42 	vsub.f32	s0, s4, s4
 800a968:	ee80 0a00 	vdiv.f32	s0, s0, s0
 800a96c:	e76b      	b.n	800a846 <__ieee754_powf+0x46>
 800a96e:	bf00      	nop
 800a970:	0800d6ec 	.word	0x0800d6ec
 800a974:	3f7ffff7 	.word	0x3f7ffff7
 800a978:	00000000 	.word	0x00000000
 800a97c:	4b800000 	.word	0x4b800000
 800a980:	f5b8 0f00 	cmp.w	r8, #8388608	; 0x800000
 800a984:	f280 8156 	bge.w	800ac34 <__ieee754_powf+0x434>
 800a988:	ed5f 7a04 	vldr	s15, [pc, #-16]	; 800a97c <__ieee754_powf+0x17c>
 800a98c:	ee60 7a27 	vmul.f32	s15, s0, s15
 800a990:	f06f 0117 	mvn.w	r1, #23
 800a994:	ee17 8a90 	vmov	r8, s15
 800a998:	4aec      	ldr	r2, [pc, #944]	; (800ad4c <__ieee754_powf+0x54c>)
 800a99a:	ea4f 56e8 	mov.w	r6, r8, asr #23
 800a99e:	f3c8 0816 	ubfx	r8, r8, #0, #23
 800a9a2:	3e7f      	subs	r6, #127	; 0x7f
 800a9a4:	4590      	cmp	r8, r2
 800a9a6:	440e      	add	r6, r1
 800a9a8:	f048 517e 	orr.w	r1, r8, #1065353216	; 0x3f800000
 800a9ac:	f340 813f 	ble.w	800ac2e <__ieee754_powf+0x42e>
 800a9b0:	4ae7      	ldr	r2, [pc, #924]	; (800ad50 <__ieee754_powf+0x550>)
 800a9b2:	4590      	cmp	r8, r2
 800a9b4:	f340 8194 	ble.w	800ace0 <__ieee754_powf+0x4e0>
 800a9b8:	2000      	movs	r0, #0
 800a9ba:	3601      	adds	r6, #1
 800a9bc:	f5a1 0100 	sub.w	r1, r1, #8388608	; 0x800000
 800a9c0:	4602      	mov	r2, r0
 800a9c2:	f8df 83fc 	ldr.w	r8, [pc, #1020]	; 800adc0 <__ieee754_powf+0x5c0>
 800a9c6:	ed9f 6ae3 	vldr	s12, [pc, #908]	; 800ad54 <__ieee754_powf+0x554>
 800a9ca:	ed9f 3ae3 	vldr	s6, [pc, #908]	; 800ad58 <__ieee754_powf+0x558>
 800a9ce:	eddf 3ae3 	vldr	s7, [pc, #908]	; 800ad5c <__ieee754_powf+0x55c>
 800a9d2:	ed9f 4ae3 	vldr	s8, [pc, #908]	; 800ad60 <__ieee754_powf+0x560>
 800a9d6:	ed9f 5ae3 	vldr	s10, [pc, #908]	; 800ad64 <__ieee754_powf+0x564>
 800a9da:	eddf 4ae3 	vldr	s9, [pc, #908]	; 800ad68 <__ieee754_powf+0x568>
 800a9de:	f8df c3e4 	ldr.w	ip, [pc, #996]	; 800adc4 <__ieee754_powf+0x5c4>
 800a9e2:	4fe2      	ldr	r7, [pc, #904]	; (800ad6c <__ieee754_powf+0x56c>)
 800a9e4:	eddf 0ae2 	vldr	s1, [pc, #904]	; 800ad70 <__ieee754_powf+0x570>
 800a9e8:	ed9f 1ae2 	vldr	s2, [pc, #904]	; 800ad74 <__ieee754_powf+0x574>
 800a9ec:	eddf 2ae2 	vldr	s5, [pc, #904]	; 800ad78 <__ieee754_powf+0x578>
 800a9f0:	0092      	lsls	r2, r2, #2
 800a9f2:	4490      	add	r8, r2
 800a9f4:	ee07 1a90 	vmov	s15, r1
 800a9f8:	ed98 7a00 	vldr	s14, [r8]
 800a9fc:	ee77 6a87 	vadd.f32	s13, s15, s14
 800aa00:	eeb7 2a00 	vmov.f32	s4, #112	; 0x70
 800aa04:	ee82 2a26 	vdiv.f32	s4, s4, s13
 800aa08:	1049      	asrs	r1, r1, #1
 800aa0a:	f041 5100 	orr.w	r1, r1, #536870912	; 0x20000000
 800aa0e:	f501 2180 	add.w	r1, r1, #262144	; 0x40000
 800aa12:	4401      	add	r1, r0
 800aa14:	ee77 5ac7 	vsub.f32	s11, s15, s14
 800aa18:	ee01 1a90 	vmov	s3, r1
 800aa1c:	ee65 6a82 	vmul.f32	s13, s11, s4
 800aa20:	ee31 7ac7 	vsub.f32	s14, s3, s14
 800aa24:	ee16 0a90 	vmov	r0, s13
 800aa28:	ee37 0ac7 	vsub.f32	s0, s15, s14
 800aa2c:	ee26 7aa6 	vmul.f32	s14, s13, s13
 800aa30:	f420 607f 	bic.w	r0, r0, #4080	; 0xff0
 800aa34:	eea7 3a06 	vfma.f32	s6, s14, s12
 800aa38:	f020 000f 	bic.w	r0, r0, #15
 800aa3c:	eb0c 0102 	add.w	r1, ip, r2
 800aa40:	ee07 0a90 	vmov	s15, r0
 800aa44:	eee3 3a07 	vfma.f32	s7, s6, s14
 800aa48:	443a      	add	r2, r7
 800aa4a:	eeb1 6a67 	vneg.f32	s12, s15
 800aa4e:	eea3 4a87 	vfma.f32	s8, s7, s14
 800aa52:	eee6 5a21 	vfma.f32	s11, s12, s3
 800aa56:	eea4 5a07 	vfma.f32	s10, s8, s14
 800aa5a:	eee6 5a00 	vfma.f32	s11, s12, s0
 800aa5e:	eee5 4a07 	vfma.f32	s9, s10, s14
 800aa62:	ee65 3a82 	vmul.f32	s7, s11, s4
 800aa66:	ee76 5aa7 	vadd.f32	s11, s13, s15
 800aa6a:	ee27 7a07 	vmul.f32	s14, s14, s14
 800aa6e:	ee65 5aa3 	vmul.f32	s11, s11, s7
 800aa72:	eeb0 5a08 	vmov.f32	s10, #8
 800aa76:	eee7 5a24 	vfma.f32	s11, s14, s9
 800aa7a:	eeb0 7a45 	vmov.f32	s14, s10
 800aa7e:	eea7 7aa7 	vfma.f32	s14, s15, s15
 800aa82:	edd2 4a00 	vldr	s9, [r2]
 800aa86:	ed91 3a00 	vldr	s6, [r1]
 800aa8a:	ee37 7a25 	vadd.f32	s14, s14, s11
 800aa8e:	ee02 6a10 	vmov	s4, r6
 800aa92:	ee17 0a10 	vmov	r0, s14
 800aa96:	f420 607f 	bic.w	r0, r0, #4080	; 0xff0
 800aa9a:	f020 020f 	bic.w	r2, r0, #15
 800aa9e:	ee07 2a10 	vmov	s14, r2
 800aaa2:	ee37 5a45 	vsub.f32	s10, s14, s10
 800aaa6:	eeb8 4ac2 	vcvt.f32.s32	s8, s4
 800aaaa:	eea6 5a27 	vfma.f32	s10, s12, s15
 800aaae:	ee75 5ac5 	vsub.f32	s11, s11, s10
 800aab2:	ee65 6aa6 	vmul.f32	s13, s11, s13
 800aab6:	eee3 6a87 	vfma.f32	s13, s7, s14
 800aaba:	eeb0 2a66 	vmov.f32	s4, s13
 800aabe:	eea7 2a87 	vfma.f32	s4, s15, s14
 800aac2:	ee12 0a10 	vmov	r0, s4
 800aac6:	f420 607f 	bic.w	r0, r0, #4080	; 0xff0
 800aaca:	f020 020f 	bic.w	r2, r0, #15
 800aace:	ee02 2a10 	vmov	s4, r2
 800aad2:	eea6 2a07 	vfma.f32	s4, s12, s14
 800aad6:	ee07 2a90 	vmov	s15, r2
 800aada:	ee76 6ac2 	vsub.f32	s13, s13, s4
 800aade:	ee66 6aa0 	vmul.f32	s13, s13, s1
 800aae2:	eee7 6a81 	vfma.f32	s13, s15, s2
 800aae6:	ee76 6a83 	vadd.f32	s13, s13, s6
 800aaea:	eeb0 7a66 	vmov.f32	s14, s13
 800aaee:	eea7 7aa2 	vfma.f32	s14, s15, s5
 800aaf2:	ee37 7a24 	vadd.f32	s14, s14, s9
 800aaf6:	ee37 7a04 	vadd.f32	s14, s14, s8
 800aafa:	ee17 2a10 	vmov	r2, s14
 800aafe:	f422 627f 	bic.w	r2, r2, #4080	; 0xff0
 800ab02:	f022 020f 	bic.w	r2, r2, #15
 800ab06:	ee05 2a90 	vmov	s11, r2
 800ab0a:	ee35 7ac4 	vsub.f32	s14, s11, s8
 800ab0e:	ee37 7a64 	vsub.f32	s14, s14, s9
 800ab12:	eea7 7ae2 	vfms.f32	s14, s15, s5
 800ab16:	ee76 7ac7 	vsub.f32	s15, s13, s14
 800ab1a:	f424 647f 	bic.w	r4, r4, #4080	; 0xff0
 800ab1e:	f024 040f 	bic.w	r4, r4, #15
 800ab22:	ee06 5a10 	vmov	s12, r5
 800ab26:	ee07 4a10 	vmov	s14, r4
 800ab2a:	ee02 2a10 	vmov	s4, r2
 800ab2e:	ee76 6a47 	vsub.f32	s13, s12, s14
 800ab32:	ee66 7a27 	vmul.f32	s15, s12, s15
 800ab36:	ee22 7a07 	vmul.f32	s14, s4, s14
 800ab3a:	eee6 7a82 	vfma.f32	s15, s13, s4
 800ab3e:	f10a 3aff 	add.w	sl, sl, #4294967295
 800ab42:	ea5a 0a03 	orrs.w	sl, sl, r3
 800ab46:	eeb7 8a00 	vmov.f32	s16, #112	; 0x70
 800ab4a:	ee77 6a87 	vadd.f32	s13, s15, s14
 800ab4e:	eebf 6a00 	vmov.f32	s12, #240	; 0xf0
 800ab52:	ee16 3a90 	vmov	r3, s13
 800ab56:	bf08      	it	eq
 800ab58:	eeb0 8a46 	vmoveq.f32	s16, s12
 800ab5c:	2b00      	cmp	r3, #0
 800ab5e:	f023 4200 	bic.w	r2, r3, #2147483648	; 0x80000000
 800ab62:	f340 80aa 	ble.w	800acba <__ieee754_powf+0x4ba>
 800ab66:	f1b2 4f86 	cmp.w	r2, #1124073472	; 0x43000000
 800ab6a:	dc7b      	bgt.n	800ac64 <__ieee754_powf+0x464>
 800ab6c:	d06f      	beq.n	800ac4e <__ieee754_powf+0x44e>
 800ab6e:	f1b2 5f7c 	cmp.w	r2, #1056964608	; 0x3f000000
 800ab72:	dc7e      	bgt.n	800ac72 <__ieee754_powf+0x472>
 800ab74:	2200      	movs	r2, #0
 800ab76:	4610      	mov	r0, r2
 800ab78:	f423 637f 	bic.w	r3, r3, #4080	; 0xff0
 800ab7c:	f023 030f 	bic.w	r3, r3, #15
 800ab80:	ee06 3a90 	vmov	s13, r3
 800ab84:	ed9f 6a7d 	vldr	s12, [pc, #500]	; 800ad7c <__ieee754_powf+0x57c>
 800ab88:	ed9f 2a7d 	vldr	s4, [pc, #500]	; 800ad80 <__ieee754_powf+0x580>
 800ab8c:	eddf 3a7d 	vldr	s7, [pc, #500]	; 800ad84 <__ieee754_powf+0x584>
 800ab90:	eddf 2a7d 	vldr	s5, [pc, #500]	; 800ad88 <__ieee754_powf+0x588>
 800ab94:	ed9f 4a7d 	vldr	s8, [pc, #500]	; 800ad8c <__ieee754_powf+0x58c>
 800ab98:	eddf 4a7d 	vldr	s9, [pc, #500]	; 800ad90 <__ieee754_powf+0x590>
 800ab9c:	ed9f 5a7d 	vldr	s10, [pc, #500]	; 800ad94 <__ieee754_powf+0x594>
 800aba0:	eddf 5a7d 	vldr	s11, [pc, #500]	; 800ad98 <__ieee754_powf+0x598>
 800aba4:	ee36 7ac7 	vsub.f32	s14, s13, s14
 800aba8:	ee26 6a86 	vmul.f32	s12, s13, s12
 800abac:	ee77 7ac7 	vsub.f32	s15, s15, s14
 800abb0:	eeb0 3a00 	vmov.f32	s6, #0
 800abb4:	eea7 6a82 	vfma.f32	s12, s15, s4
 800abb8:	eeb7 0a00 	vmov.f32	s0, #112	; 0x70
 800abbc:	eef0 7a46 	vmov.f32	s15, s12
 800abc0:	eee6 7aa3 	vfma.f32	s15, s13, s7
 800abc4:	ee27 7aa7 	vmul.f32	s14, s15, s15
 800abc8:	eeb0 2a67 	vmov.f32	s4, s15
 800abcc:	eea7 4a22 	vfma.f32	s8, s14, s5
 800abd0:	eea6 2ae3 	vfms.f32	s4, s13, s7
 800abd4:	eee4 4a07 	vfma.f32	s9, s8, s14
 800abd8:	ee76 6a42 	vsub.f32	s13, s12, s4
 800abdc:	eea4 5a87 	vfma.f32	s10, s9, s14
 800abe0:	eeb0 6a67 	vmov.f32	s12, s15
 800abe4:	eee5 5a07 	vfma.f32	s11, s10, s14
 800abe8:	eee7 6aa6 	vfma.f32	s13, s15, s13
 800abec:	eea5 6ac7 	vfms.f32	s12, s11, s14
 800abf0:	eeb0 7a46 	vmov.f32	s14, s12
 800abf4:	ee37 7a43 	vsub.f32	s14, s14, s6
 800abf8:	ee27 6a86 	vmul.f32	s12, s15, s12
 800abfc:	ee86 7a07 	vdiv.f32	s14, s12, s14
 800ac00:	ee77 6a66 	vsub.f32	s13, s14, s13
 800ac04:	ee76 7ae7 	vsub.f32	s15, s13, s15
 800ac08:	ee30 0a67 	vsub.f32	s0, s0, s15
 800ac0c:	ee10 3a10 	vmov	r3, s0
 800ac10:	4413      	add	r3, r2
 800ac12:	f5b3 0f00 	cmp.w	r3, #8388608	; 0x800000
 800ac16:	f2c0 8096 	blt.w	800ad46 <__ieee754_powf+0x546>
 800ac1a:	ee00 3a10 	vmov	s0, r3
 800ac1e:	ee28 0a00 	vmul.f32	s0, s16, s0
 800ac22:	e610      	b.n	800a846 <__ieee754_powf+0x46>
 800ac24:	f002 0201 	and.w	r2, r2, #1
 800ac28:	f1c2 0a02 	rsb	sl, r2, #2
 800ac2c:	e616      	b.n	800a85c <__ieee754_powf+0x5c>
 800ac2e:	2000      	movs	r0, #0
 800ac30:	4602      	mov	r2, r0
 800ac32:	e6c6      	b.n	800a9c2 <__ieee754_powf+0x1c2>
 800ac34:	2100      	movs	r1, #0
 800ac36:	e6af      	b.n	800a998 <__ieee754_powf+0x198>
 800ac38:	4a58      	ldr	r2, [pc, #352]	; (800ad9c <__ieee754_powf+0x59c>)
 800ac3a:	4590      	cmp	r8, r2
 800ac3c:	dd54      	ble.n	800ace8 <__ieee754_powf+0x4e8>
 800ac3e:	2c00      	cmp	r4, #0
 800ac40:	f77f ae31 	ble.w	800a8a6 <__ieee754_powf+0xa6>
 800ac44:	ed9f 0a56 	vldr	s0, [pc, #344]	; 800ada0 <__ieee754_powf+0x5a0>
 800ac48:	ee20 0a00 	vmul.f32	s0, s0, s0
 800ac4c:	e5fb      	b.n	800a846 <__ieee754_powf+0x46>
 800ac4e:	ed9f 6a55 	vldr	s12, [pc, #340]	; 800ada4 <__ieee754_powf+0x5a4>
 800ac52:	ee76 6ac7 	vsub.f32	s13, s13, s14
 800ac56:	ee37 6a86 	vadd.f32	s12, s15, s12
 800ac5a:	eeb4 6ae6 	vcmpe.f32	s12, s13
 800ac5e:	eef1 fa10 	vmrs	APSR_nzcv, fpscr
 800ac62:	dd06      	ble.n	800ac72 <__ieee754_powf+0x472>
 800ac64:	eddf 7a4e 	vldr	s15, [pc, #312]	; 800ada0 <__ieee754_powf+0x5a0>
 800ac68:	ee28 0a27 	vmul.f32	s0, s16, s15
 800ac6c:	ee20 0a27 	vmul.f32	s0, s0, s15
 800ac70:	e5e9      	b.n	800a846 <__ieee754_powf+0x46>
 800ac72:	15d2      	asrs	r2, r2, #23
 800ac74:	f44f 0100 	mov.w	r1, #8388608	; 0x800000
 800ac78:	3a7e      	subs	r2, #126	; 0x7e
 800ac7a:	fa41 f202 	asr.w	r2, r1, r2
 800ac7e:	441a      	add	r2, r3
 800ac80:	f3c2 51c7 	ubfx	r1, r2, #23, #8
 800ac84:	4d48      	ldr	r5, [pc, #288]	; (800ada8 <__ieee754_powf+0x5a8>)
 800ac86:	f1a1 047f 	sub.w	r4, r1, #127	; 0x7f
 800ac8a:	fa45 f404 	asr.w	r4, r5, r4
 800ac8e:	f3c2 0016 	ubfx	r0, r2, #0, #23
 800ac92:	ea22 0204 	bic.w	r2, r2, r4
 800ac96:	ee05 2a90 	vmov	s11, r2
 800ac9a:	ee37 7a65 	vsub.f32	s14, s14, s11
 800ac9e:	f1c1 0196 	rsb	r1, r1, #150	; 0x96
 800aca2:	f440 0000 	orr.w	r0, r0, #8388608	; 0x800000
 800aca6:	4108      	asrs	r0, r1
 800aca8:	2b00      	cmp	r3, #0
 800acaa:	ee37 6a87 	vadd.f32	s12, s15, s14
 800acae:	bfb8      	it	lt
 800acb0:	4240      	neglt	r0, r0
 800acb2:	05c2      	lsls	r2, r0, #23
 800acb4:	ee16 3a10 	vmov	r3, s12
 800acb8:	e75e      	b.n	800ab78 <__ieee754_powf+0x378>
 800acba:	493c      	ldr	r1, [pc, #240]	; (800adac <__ieee754_powf+0x5ac>)
 800acbc:	428a      	cmp	r2, r1
 800acbe:	dc08      	bgt.n	800acd2 <__ieee754_powf+0x4d2>
 800acc0:	f47f af55 	bne.w	800ab6e <__ieee754_powf+0x36e>
 800acc4:	ee76 6ac7 	vsub.f32	s13, s13, s14
 800acc8:	eef4 7ae6 	vcmpe.f32	s15, s13
 800accc:	eef1 fa10 	vmrs	APSR_nzcv, fpscr
 800acd0:	d8cf      	bhi.n	800ac72 <__ieee754_powf+0x472>
 800acd2:	eddf 7a37 	vldr	s15, [pc, #220]	; 800adb0 <__ieee754_powf+0x5b0>
 800acd6:	ee28 0a27 	vmul.f32	s0, s16, s15
 800acda:	ee20 0a27 	vmul.f32	s0, s0, s15
 800acde:	e5b2      	b.n	800a846 <__ieee754_powf+0x46>
 800ace0:	f44f 1000 	mov.w	r0, #2097152	; 0x200000
 800ace4:	2201      	movs	r2, #1
 800ace6:	e66c      	b.n	800a9c2 <__ieee754_powf+0x1c2>
 800ace8:	eef7 7a00 	vmov.f32	s15, #112	; 0x70
 800acec:	ee30 0a67 	vsub.f32	s0, s0, s15
 800acf0:	eddf 6a1b 	vldr	s13, [pc, #108]	; 800ad60 <__ieee754_powf+0x560>
 800acf4:	eddf 7a2f 	vldr	s15, [pc, #188]	; 800adb4 <__ieee754_powf+0x5b4>
 800acf8:	ed9f 5a2f 	vldr	s10, [pc, #188]	; 800adb8 <__ieee754_powf+0x5b8>
 800acfc:	ed9f 6a2f 	vldr	s12, [pc, #188]	; 800adbc <__ieee754_powf+0x5bc>
 800ad00:	eef1 5a40 	vneg.f32	s11, s0
 800ad04:	eeb5 7a00 	vmov.f32	s14, #80	; 0x50
 800ad08:	eee5 6a87 	vfma.f32	s13, s11, s14
 800ad0c:	eeb6 7a00 	vmov.f32	s14, #96	; 0x60
 800ad10:	eea6 7ac0 	vfms.f32	s14, s13, s0
 800ad14:	ee60 6a00 	vmul.f32	s13, s0, s0
 800ad18:	ee26 7a87 	vmul.f32	s14, s13, s14
 800ad1c:	ee67 7ac7 	vnmul.f32	s15, s15, s14
 800ad20:	eee0 7a05 	vfma.f32	s15, s0, s10
 800ad24:	eef0 6a67 	vmov.f32	s13, s15
 800ad28:	eee0 6a06 	vfma.f32	s13, s0, s12
 800ad2c:	ee16 2a90 	vmov	r2, s13
 800ad30:	f422 627f 	bic.w	r2, r2, #4080	; 0xff0
 800ad34:	f022 020f 	bic.w	r2, r2, #15
 800ad38:	ee07 2a10 	vmov	s14, r2
 800ad3c:	eea5 7a86 	vfma.f32	s14, s11, s12
 800ad40:	ee77 7ac7 	vsub.f32	s15, s15, s14
 800ad44:	e6e9      	b.n	800ab1a <__ieee754_powf+0x31a>
 800ad46:	f000 fe45 	bl	800b9d4 <scalbnf>
 800ad4a:	e768      	b.n	800ac1e <__ieee754_powf+0x41e>
 800ad4c:	001cc471 	.word	0x001cc471
 800ad50:	005db3d6 	.word	0x005db3d6
 800ad54:	3e53f142 	.word	0x3e53f142
 800ad58:	3e6c3255 	.word	0x3e6c3255
 800ad5c:	3e8ba305 	.word	0x3e8ba305
 800ad60:	3eaaaaab 	.word	0x3eaaaaab
 800ad64:	3edb6db7 	.word	0x3edb6db7
 800ad68:	3f19999a 	.word	0x3f19999a
 800ad6c:	0800d6f0 	.word	0x0800d6f0
 800ad70:	3f76384f 	.word	0x3f76384f
 800ad74:	369dc3a0 	.word	0x369dc3a0
 800ad78:	3f763800 	.word	0x3f763800
 800ad7c:	35bfbe8c 	.word	0x35bfbe8c
 800ad80:	3f317218 	.word	0x3f317218
 800ad84:	3f317200 	.word	0x3f317200
 800ad88:	3331bb4c 	.word	0x3331bb4c
 800ad8c:	b5ddea0e 	.word	0xb5ddea0e
 800ad90:	388ab355 	.word	0x388ab355
 800ad94:	bb360b61 	.word	0xbb360b61
 800ad98:	3e2aaaab 	.word	0x3e2aaaab
 800ad9c:	3f800007 	.word	0x3f800007
 800ada0:	7149f2ca 	.word	0x7149f2ca
 800ada4:	3338aa3c 	.word	0x3338aa3c
 800ada8:	007fffff 	.word	0x007fffff
 800adac:	43160000 	.word	0x43160000
 800adb0:	0da24260 	.word	0x0da24260
 800adb4:	3fb8aa3b 	.word	0x3fb8aa3b
 800adb8:	36eca570 	.word	0x36eca570
 800adbc:	3fb8aa00 	.word	0x3fb8aa00
 800adc0:	0800d700 	.word	0x0800d700
 800adc4:	0800d6f8 	.word	0x0800d6f8

0800adc8 <__ieee754_rem_pio2f>:
__ieee754_rem_pio2f():
 800adc8:	b570      	push	{r4, r5, r6, lr}
 800adca:	ee10 3a10 	vmov	r3, s0
 800adce:	4a93      	ldr	r2, [pc, #588]	; (800b01c <__ieee754_rem_pio2f+0x254>)
 800add0:	f023 4400 	bic.w	r4, r3, #2147483648	; 0x80000000
 800add4:	4294      	cmp	r4, r2
 800add6:	b086      	sub	sp, #24
 800add8:	ee10 6a10 	vmov	r6, s0
 800addc:	4605      	mov	r5, r0
 800adde:	dd66      	ble.n	800aeae <__ieee754_rem_pio2f+0xe6>
 800ade0:	4a8f      	ldr	r2, [pc, #572]	; (800b020 <__ieee754_rem_pio2f+0x258>)
 800ade2:	4294      	cmp	r4, r2
 800ade4:	dc1a      	bgt.n	800ae1c <__ieee754_rem_pio2f+0x54>
 800ade6:	2b00      	cmp	r3, #0
 800ade8:	eddf 7a8e 	vldr	s15, [pc, #568]	; 800b024 <__ieee754_rem_pio2f+0x25c>
 800adec:	4a8e      	ldr	r2, [pc, #568]	; (800b028 <__ieee754_rem_pio2f+0x260>)
 800adee:	f024 040f 	bic.w	r4, r4, #15
 800adf2:	f340 80db 	ble.w	800afac <__ieee754_rem_pio2f+0x1e4>
 800adf6:	4294      	cmp	r4, r2
 800adf8:	ee70 7a67 	vsub.f32	s15, s0, s15
 800adfc:	d066      	beq.n	800aecc <__ieee754_rem_pio2f+0x104>
 800adfe:	ed9f 7a8b 	vldr	s14, [pc, #556]	; 800b02c <__ieee754_rem_pio2f+0x264>
 800ae02:	ee77 6ac7 	vsub.f32	s13, s15, s14
 800ae06:	2001      	movs	r0, #1
 800ae08:	ee77 7ae6 	vsub.f32	s15, s15, s13
 800ae0c:	edc5 6a00 	vstr	s13, [r5]
 800ae10:	ee37 7ac7 	vsub.f32	s14, s15, s14
 800ae14:	ed85 7a01 	vstr	s14, [r5, #4]
 800ae18:	b006      	add	sp, #24
 800ae1a:	bd70      	pop	{r4, r5, r6, pc}
 800ae1c:	4a84      	ldr	r2, [pc, #528]	; (800b030 <__ieee754_rem_pio2f+0x268>)
 800ae1e:	4294      	cmp	r4, r2
 800ae20:	dd66      	ble.n	800aef0 <__ieee754_rem_pio2f+0x128>
 800ae22:	f1b4 4fff 	cmp.w	r4, #2139095040	; 0x7f800000
 800ae26:	da49      	bge.n	800aebc <__ieee754_rem_pio2f+0xf4>
 800ae28:	15e2      	asrs	r2, r4, #23
 800ae2a:	3a86      	subs	r2, #134	; 0x86
 800ae2c:	eba4 54c2 	sub.w	r4, r4, r2, lsl #23
 800ae30:	ee07 4a10 	vmov	s14, r4
 800ae34:	eefd 7ac7 	vcvt.s32.f32	s15, s14
 800ae38:	eddf 6a7e 	vldr	s13, [pc, #504]	; 800b034 <__ieee754_rem_pio2f+0x26c>
 800ae3c:	eef8 7ae7 	vcvt.f32.s32	s15, s15
 800ae40:	ee37 7a67 	vsub.f32	s14, s14, s15
 800ae44:	edcd 7a03 	vstr	s15, [sp, #12]
 800ae48:	ee27 7a26 	vmul.f32	s14, s14, s13
 800ae4c:	eefd 7ac7 	vcvt.s32.f32	s15, s14
 800ae50:	eef8 7ae7 	vcvt.f32.s32	s15, s15
 800ae54:	ee37 7a67 	vsub.f32	s14, s14, s15
 800ae58:	edcd 7a04 	vstr	s15, [sp, #16]
 800ae5c:	ee27 7a26 	vmul.f32	s14, s14, s13
 800ae60:	eeb5 7a40 	vcmp.f32	s14, #0.0
 800ae64:	eef1 fa10 	vmrs	APSR_nzcv, fpscr
 800ae68:	ed8d 7a05 	vstr	s14, [sp, #20]
 800ae6c:	f040 80b1 	bne.w	800afd2 <__ieee754_rem_pio2f+0x20a>
 800ae70:	eef5 7a40 	vcmp.f32	s15, #0.0
 800ae74:	eef1 fa10 	vmrs	APSR_nzcv, fpscr
 800ae78:	bf0c      	ite	eq
 800ae7a:	2301      	moveq	r3, #1
 800ae7c:	2302      	movne	r3, #2
 800ae7e:	496e      	ldr	r1, [pc, #440]	; (800b038 <__ieee754_rem_pio2f+0x270>)
 800ae80:	2002      	movs	r0, #2
 800ae82:	e88d 0003 	stmia.w	sp, {r0, r1}
 800ae86:	a803      	add	r0, sp, #12
 800ae88:	4629      	mov	r1, r5
 800ae8a:	f000 f9b7 	bl	800b1fc <__kernel_rem_pio2f>
 800ae8e:	2e00      	cmp	r6, #0
 800ae90:	da12      	bge.n	800aeb8 <__ieee754_rem_pio2f+0xf0>
 800ae92:	ed95 7a00 	vldr	s14, [r5]
 800ae96:	edd5 7a01 	vldr	s15, [r5, #4]
 800ae9a:	eeb1 7a47 	vneg.f32	s14, s14
 800ae9e:	eef1 7a67 	vneg.f32	s15, s15
 800aea2:	4240      	negs	r0, r0
 800aea4:	ed85 7a00 	vstr	s14, [r5]
 800aea8:	edc5 7a01 	vstr	s15, [r5, #4]
 800aeac:	e004      	b.n	800aeb8 <__ieee754_rem_pio2f+0xf0>
 800aeae:	2200      	movs	r2, #0
 800aeb0:	ed85 0a00 	vstr	s0, [r5]
 800aeb4:	6042      	str	r2, [r0, #4]
 800aeb6:	2000      	movs	r0, #0
 800aeb8:	b006      	add	sp, #24
 800aeba:	bd70      	pop	{r4, r5, r6, pc}
 800aebc:	ee70 7a40 	vsub.f32	s15, s0, s0
 800aec0:	2000      	movs	r0, #0
 800aec2:	edc5 7a01 	vstr	s15, [r5, #4]
 800aec6:	edc5 7a00 	vstr	s15, [r5]
 800aeca:	e7f5      	b.n	800aeb8 <__ieee754_rem_pio2f+0xf0>
 800aecc:	eddf 6a5b 	vldr	s13, [pc, #364]	; 800b03c <__ieee754_rem_pio2f+0x274>
 800aed0:	ed9f 7a5b 	vldr	s14, [pc, #364]	; 800b040 <__ieee754_rem_pio2f+0x278>
 800aed4:	ee77 7ae6 	vsub.f32	s15, s15, s13
 800aed8:	2001      	movs	r0, #1
 800aeda:	ee77 6ac7 	vsub.f32	s13, s15, s14
 800aede:	ee77 7ae6 	vsub.f32	s15, s15, s13
 800aee2:	edc5 6a00 	vstr	s13, [r5]
 800aee6:	ee37 7ac7 	vsub.f32	s14, s15, s14
 800aeea:	ed85 7a01 	vstr	s14, [r5, #4]
 800aeee:	e7e3      	b.n	800aeb8 <__ieee754_rem_pio2f+0xf0>
 800aef0:	f7ff f99a 	bl	800a228 <fabsf>
 800aef4:	eddf 6a53 	vldr	s13, [pc, #332]	; 800b044 <__ieee754_rem_pio2f+0x27c>
 800aef8:	eddf 5a4a 	vldr	s11, [pc, #296]	; 800b024 <__ieee754_rem_pio2f+0x25c>
 800aefc:	eddf 7a4b 	vldr	s15, [pc, #300]	; 800b02c <__ieee754_rem_pio2f+0x264>
 800af00:	eeb6 7a00 	vmov.f32	s14, #96	; 0x60
 800af04:	eea0 7a26 	vfma.f32	s14, s0, s13
 800af08:	eebd 7ac7 	vcvt.s32.f32	s14, s14
 800af0c:	eef8 6ac7 	vcvt.f32.s32	s13, s14
 800af10:	ee17 0a10 	vmov	r0, s14
 800af14:	eeb1 6a66 	vneg.f32	s12, s13
 800af18:	281f      	cmp	r0, #31
 800af1a:	eea6 0a25 	vfma.f32	s0, s12, s11
 800af1e:	ee66 7aa7 	vmul.f32	s15, s13, s15
 800af22:	dc1d      	bgt.n	800af60 <__ieee754_rem_pio2f+0x198>
 800af24:	4b48      	ldr	r3, [pc, #288]	; (800b048 <__ieee754_rem_pio2f+0x280>)
 800af26:	1e41      	subs	r1, r0, #1
 800af28:	f024 02ff 	bic.w	r2, r4, #255	; 0xff
 800af2c:	f853 3021 	ldr.w	r3, [r3, r1, lsl #2]
 800af30:	429a      	cmp	r2, r3
 800af32:	d015      	beq.n	800af60 <__ieee754_rem_pio2f+0x198>
 800af34:	ee30 7a67 	vsub.f32	s14, s0, s15
 800af38:	ed85 7a00 	vstr	s14, [r5]
 800af3c:	ee30 0a47 	vsub.f32	s0, s0, s14
 800af40:	2e00      	cmp	r6, #0
 800af42:	ee70 7a67 	vsub.f32	s15, s0, s15
 800af46:	edc5 7a01 	vstr	s15, [r5, #4]
 800af4a:	dab5      	bge.n	800aeb8 <__ieee754_rem_pio2f+0xf0>
 800af4c:	eeb1 7a47 	vneg.f32	s14, s14
 800af50:	eef1 7a67 	vneg.f32	s15, s15
 800af54:	ed85 7a00 	vstr	s14, [r5]
 800af58:	edc5 7a01 	vstr	s15, [r5, #4]
 800af5c:	4240      	negs	r0, r0
 800af5e:	e7ab      	b.n	800aeb8 <__ieee754_rem_pio2f+0xf0>
 800af60:	ee30 7a67 	vsub.f32	s14, s0, s15
 800af64:	15e4      	asrs	r4, r4, #23
 800af66:	ee17 2a10 	vmov	r2, s14
 800af6a:	f3c2 53c7 	ubfx	r3, r2, #23, #8
 800af6e:	1ae3      	subs	r3, r4, r3
 800af70:	2b08      	cmp	r3, #8
 800af72:	dde1      	ble.n	800af38 <__ieee754_rem_pio2f+0x170>
 800af74:	ed9f 7a31 	vldr	s14, [pc, #196]	; 800b03c <__ieee754_rem_pio2f+0x274>
 800af78:	ed9f 5a31 	vldr	s10, [pc, #196]	; 800b040 <__ieee754_rem_pio2f+0x278>
 800af7c:	eef0 5a40 	vmov.f32	s11, s0
 800af80:	eee6 5a07 	vfma.f32	s11, s12, s14
 800af84:	ee70 7a65 	vsub.f32	s15, s0, s11
 800af88:	eee6 7a07 	vfma.f32	s15, s12, s14
 800af8c:	eed6 7a85 	vfnms.f32	s15, s13, s10
 800af90:	ee35 7ae7 	vsub.f32	s14, s11, s15
 800af94:	ee17 2a10 	vmov	r2, s14
 800af98:	f3c2 53c7 	ubfx	r3, r2, #23, #8
 800af9c:	1ae4      	subs	r4, r4, r3
 800af9e:	2c19      	cmp	r4, #25
 800afa0:	dc2c      	bgt.n	800affc <__ieee754_rem_pio2f+0x234>
 800afa2:	ed85 7a00 	vstr	s14, [r5]
 800afa6:	eeb0 0a65 	vmov.f32	s0, s11
 800afaa:	e7c7      	b.n	800af3c <__ieee754_rem_pio2f+0x174>
 800afac:	4294      	cmp	r4, r2
 800afae:	ee70 7a27 	vadd.f32	s15, s0, s15
 800afb2:	d010      	beq.n	800afd6 <__ieee754_rem_pio2f+0x20e>
 800afb4:	ed9f 7a1d 	vldr	s14, [pc, #116]	; 800b02c <__ieee754_rem_pio2f+0x264>
 800afb8:	ee77 6a87 	vadd.f32	s13, s15, s14
 800afbc:	f04f 30ff 	mov.w	r0, #4294967295
 800afc0:	ee77 7ae6 	vsub.f32	s15, s15, s13
 800afc4:	edc5 6a00 	vstr	s13, [r5]
 800afc8:	ee37 7a87 	vadd.f32	s14, s15, s14
 800afcc:	ed85 7a01 	vstr	s14, [r5, #4]
 800afd0:	e772      	b.n	800aeb8 <__ieee754_rem_pio2f+0xf0>
 800afd2:	2303      	movs	r3, #3
 800afd4:	e753      	b.n	800ae7e <__ieee754_rem_pio2f+0xb6>
 800afd6:	eddf 6a19 	vldr	s13, [pc, #100]	; 800b03c <__ieee754_rem_pio2f+0x274>
 800afda:	ed9f 7a19 	vldr	s14, [pc, #100]	; 800b040 <__ieee754_rem_pio2f+0x278>
 800afde:	ee77 7aa6 	vadd.f32	s15, s15, s13
 800afe2:	f04f 30ff 	mov.w	r0, #4294967295
 800afe6:	ee77 6a87 	vadd.f32	s13, s15, s14
 800afea:	ee77 7ae6 	vsub.f32	s15, s15, s13
 800afee:	edc5 6a00 	vstr	s13, [r5]
 800aff2:	ee37 7a87 	vadd.f32	s14, s15, s14
 800aff6:	ed85 7a01 	vstr	s14, [r5, #4]
 800affa:	e75d      	b.n	800aeb8 <__ieee754_rem_pio2f+0xf0>
 800affc:	ed9f 7a13 	vldr	s14, [pc, #76]	; 800b04c <__ieee754_rem_pio2f+0x284>
 800b000:	ed9f 5a13 	vldr	s10, [pc, #76]	; 800b050 <__ieee754_rem_pio2f+0x288>
 800b004:	eeb0 0a65 	vmov.f32	s0, s11
 800b008:	eea6 0a07 	vfma.f32	s0, s12, s14
 800b00c:	ee75 7ac0 	vsub.f32	s15, s11, s0
 800b010:	eee6 7a07 	vfma.f32	s15, s12, s14
 800b014:	eed6 7a85 	vfnms.f32	s15, s13, s10
 800b018:	e78c      	b.n	800af34 <__ieee754_rem_pio2f+0x16c>
 800b01a:	bf00      	nop
 800b01c:	3f490fd8 	.word	0x3f490fd8
 800b020:	4016cbe3 	.word	0x4016cbe3
 800b024:	3fc90f80 	.word	0x3fc90f80
 800b028:	3fc90fd0 	.word	0x3fc90fd0
 800b02c:	37354443 	.word	0x37354443
 800b030:	43490f80 	.word	0x43490f80
 800b034:	43800000 	.word	0x43800000
 800b038:	0800d788 	.word	0x0800d788
 800b03c:	37354400 	.word	0x37354400
 800b040:	2e85a308 	.word	0x2e85a308
 800b044:	3f22f984 	.word	0x3f22f984
 800b048:	0800d708 	.word	0x0800d708
 800b04c:	2e85a300 	.word	0x2e85a300
 800b050:	248d3132 	.word	0x248d3132

0800b054 <__ieee754_sqrtf>:
__ieee754_sqrtf():
 800b054:	ee10 3a10 	vmov	r3, s0
 800b058:	f023 4200 	bic.w	r2, r3, #2147483648	; 0x80000000
 800b05c:	f1b2 4fff 	cmp.w	r2, #2139095040	; 0x7f800000
 800b060:	b470      	push	{r4, r5, r6}
 800b062:	d230      	bcs.n	800b0c6 <__ieee754_sqrtf+0x72>
 800b064:	b36a      	cbz	r2, 800b0c2 <__ieee754_sqrtf+0x6e>
 800b066:	2b00      	cmp	r3, #0
 800b068:	db3d      	blt.n	800b0e6 <__ieee754_sqrtf+0x92>
 800b06a:	f5b2 0f00 	cmp.w	r2, #8388608	; 0x800000
 800b06e:	ea4f 51e3 	mov.w	r1, r3, asr #23
 800b072:	d32c      	bcc.n	800b0ce <__ieee754_sqrtf+0x7a>
 800b074:	f1a1 027f 	sub.w	r2, r1, #127	; 0x7f
 800b078:	f3c3 0316 	ubfx	r3, r3, #0, #23
 800b07c:	07d1      	lsls	r1, r2, #31
 800b07e:	f443 0300 	orr.w	r3, r3, #8388608	; 0x800000
 800b082:	bf48      	it	mi
 800b084:	005b      	lslmi	r3, r3, #1
 800b086:	2500      	movs	r5, #0
 800b088:	1056      	asrs	r6, r2, #1
 800b08a:	005b      	lsls	r3, r3, #1
 800b08c:	462c      	mov	r4, r5
 800b08e:	2119      	movs	r1, #25
 800b090:	f04f 7280 	mov.w	r2, #16777216	; 0x1000000
 800b094:	18a0      	adds	r0, r4, r2
 800b096:	4298      	cmp	r0, r3
 800b098:	dc02      	bgt.n	800b0a0 <__ieee754_sqrtf+0x4c>
 800b09a:	1a1b      	subs	r3, r3, r0
 800b09c:	1884      	adds	r4, r0, r2
 800b09e:	4415      	add	r5, r2
 800b0a0:	3901      	subs	r1, #1
 800b0a2:	ea4f 0343 	mov.w	r3, r3, lsl #1
 800b0a6:	ea4f 0252 	mov.w	r2, r2, lsr #1
 800b0aa:	d1f3      	bne.n	800b094 <__ieee754_sqrtf+0x40>
 800b0ac:	b113      	cbz	r3, 800b0b4 <__ieee754_sqrtf+0x60>
 800b0ae:	f005 0301 	and.w	r3, r5, #1
 800b0b2:	441d      	add	r5, r3
 800b0b4:	106d      	asrs	r5, r5, #1
 800b0b6:	f105 557c 	add.w	r5, r5, #1056964608	; 0x3f000000
 800b0ba:	eb05 55c6 	add.w	r5, r5, r6, lsl #23
 800b0be:	ee00 5a10 	vmov	s0, r5
 800b0c2:	bc70      	pop	{r4, r5, r6}
 800b0c4:	4770      	bx	lr
 800b0c6:	eea0 0a00 	vfma.f32	s0, s0, s0
 800b0ca:	bc70      	pop	{r4, r5, r6}
 800b0cc:	4770      	bx	lr
 800b0ce:	f413 0200 	ands.w	r2, r3, #8388608	; 0x800000
 800b0d2:	d10d      	bne.n	800b0f0 <__ieee754_sqrtf+0x9c>
 800b0d4:	005b      	lsls	r3, r3, #1
 800b0d6:	0218      	lsls	r0, r3, #8
 800b0d8:	f102 0201 	add.w	r2, r2, #1
 800b0dc:	d5fa      	bpl.n	800b0d4 <__ieee754_sqrtf+0x80>
 800b0de:	f1c2 0201 	rsb	r2, r2, #1
 800b0e2:	4411      	add	r1, r2
 800b0e4:	e7c6      	b.n	800b074 <__ieee754_sqrtf+0x20>
 800b0e6:	ee30 0a40 	vsub.f32	s0, s0, s0
 800b0ea:	ee80 0a00 	vdiv.f32	s0, s0, s0
 800b0ee:	e7e8      	b.n	800b0c2 <__ieee754_sqrtf+0x6e>
 800b0f0:	2201      	movs	r2, #1
 800b0f2:	4411      	add	r1, r2
 800b0f4:	e7be      	b.n	800b074 <__ieee754_sqrtf+0x20>
 800b0f6:	bf00      	nop

0800b0f8 <__kernel_cosf>:
__kernel_cosf():
 800b0f8:	ee10 3a10 	vmov	r3, s0
 800b0fc:	f023 4300 	bic.w	r3, r3, #2147483648	; 0x80000000
 800b100:	f1b3 5f48 	cmp.w	r3, #838860800	; 0x32000000
 800b104:	da2c      	bge.n	800b160 <__kernel_cosf+0x68>
 800b106:	eefd 7ac0 	vcvt.s32.f32	s15, s0
 800b10a:	ee17 3a90 	vmov	r3, s15
 800b10e:	2b00      	cmp	r3, #0
 800b110:	d060      	beq.n	800b1d4 <__kernel_cosf+0xdc>
 800b112:	ee60 7a00 	vmul.f32	s15, s0, s0
 800b116:	eddf 4a31 	vldr	s9, [pc, #196]	; 800b1dc <__kernel_cosf+0xe4>
 800b11a:	ed9f 5a31 	vldr	s10, [pc, #196]	; 800b1e0 <__kernel_cosf+0xe8>
 800b11e:	eddf 5a31 	vldr	s11, [pc, #196]	; 800b1e4 <__kernel_cosf+0xec>
 800b122:	ed9f 6a31 	vldr	s12, [pc, #196]	; 800b1e8 <__kernel_cosf+0xf0>
 800b126:	eddf 6a31 	vldr	s13, [pc, #196]	; 800b1ec <__kernel_cosf+0xf4>
 800b12a:	ed9f 7a31 	vldr	s14, [pc, #196]	; 800b1f0 <__kernel_cosf+0xf8>
 800b12e:	eea7 5aa4 	vfma.f32	s10, s15, s9
 800b132:	eee5 5a27 	vfma.f32	s11, s10, s15
 800b136:	eea5 6aa7 	vfma.f32	s12, s11, s15
 800b13a:	eee6 6a27 	vfma.f32	s13, s12, s15
 800b13e:	eea6 7aa7 	vfma.f32	s14, s13, s15
 800b142:	ee27 7a27 	vmul.f32	s14, s14, s15
 800b146:	ee20 0ac0 	vnmul.f32	s0, s1, s0
 800b14a:	eef6 6a00 	vmov.f32	s13, #96	; 0x60
 800b14e:	eea7 0a87 	vfma.f32	s0, s15, s14
 800b152:	eeb7 7a00 	vmov.f32	s14, #112	; 0x70
 800b156:	ee97 0aa6 	vfnms.f32	s0, s15, s13
 800b15a:	ee37 0a40 	vsub.f32	s0, s14, s0
 800b15e:	4770      	bx	lr
 800b160:	ee60 7a00 	vmul.f32	s15, s0, s0
 800b164:	eddf 4a1d 	vldr	s9, [pc, #116]	; 800b1dc <__kernel_cosf+0xe4>
 800b168:	ed9f 5a1d 	vldr	s10, [pc, #116]	; 800b1e0 <__kernel_cosf+0xe8>
 800b16c:	eddf 5a1d 	vldr	s11, [pc, #116]	; 800b1e4 <__kernel_cosf+0xec>
 800b170:	ed9f 6a1d 	vldr	s12, [pc, #116]	; 800b1e8 <__kernel_cosf+0xf0>
 800b174:	eddf 6a1d 	vldr	s13, [pc, #116]	; 800b1ec <__kernel_cosf+0xf4>
 800b178:	ed9f 7a1d 	vldr	s14, [pc, #116]	; 800b1f0 <__kernel_cosf+0xf8>
 800b17c:	4a1d      	ldr	r2, [pc, #116]	; (800b1f4 <__kernel_cosf+0xfc>)
 800b17e:	eea7 5aa4 	vfma.f32	s10, s15, s9
 800b182:	4293      	cmp	r3, r2
 800b184:	eee5 5a27 	vfma.f32	s11, s10, s15
 800b188:	eea5 6aa7 	vfma.f32	s12, s11, s15
 800b18c:	eee6 6a27 	vfma.f32	s13, s12, s15
 800b190:	eea6 7aa7 	vfma.f32	s14, s13, s15
 800b194:	ee27 7a27 	vmul.f32	s14, s14, s15
 800b198:	ddd5      	ble.n	800b146 <__kernel_cosf+0x4e>
 800b19a:	4a17      	ldr	r2, [pc, #92]	; (800b1f8 <__kernel_cosf+0x100>)
 800b19c:	4293      	cmp	r3, r2
 800b19e:	dc14      	bgt.n	800b1ca <__kernel_cosf+0xd2>
 800b1a0:	f103 437f 	add.w	r3, r3, #4278190080	; 0xff000000
 800b1a4:	ee06 3a90 	vmov	s13, r3
 800b1a8:	eef7 5a00 	vmov.f32	s11, #112	; 0x70
 800b1ac:	ee75 5ae6 	vsub.f32	s11, s11, s13
 800b1b0:	ee60 0ac0 	vnmul.f32	s1, s1, s0
 800b1b4:	eeb6 6a00 	vmov.f32	s12, #96	; 0x60
 800b1b8:	eee7 0a87 	vfma.f32	s1, s15, s14
 800b1bc:	eed7 6a86 	vfnms.f32	s13, s15, s12
 800b1c0:	ee76 0ae0 	vsub.f32	s1, s13, s1
 800b1c4:	ee35 0ae0 	vsub.f32	s0, s11, s1
 800b1c8:	4770      	bx	lr
 800b1ca:	eef6 5a07 	vmov.f32	s11, #103	; 0x67
 800b1ce:	eef5 6a02 	vmov.f32	s13, #82	; 0x52
 800b1d2:	e7ed      	b.n	800b1b0 <__kernel_cosf+0xb8>
 800b1d4:	eeb7 0a00 	vmov.f32	s0, #112	; 0x70
 800b1d8:	4770      	bx	lr
 800b1da:	bf00      	nop
 800b1dc:	ad47d74e 	.word	0xad47d74e
 800b1e0:	310f74f6 	.word	0x310f74f6
 800b1e4:	b493f27c 	.word	0xb493f27c
 800b1e8:	37d00d01 	.word	0x37d00d01
 800b1ec:	bab60b61 	.word	0xbab60b61
 800b1f0:	3d2aaaab 	.word	0x3d2aaaab
 800b1f4:	3e999999 	.word	0x3e999999
 800b1f8:	3f480000 	.word	0x3f480000

0800b1fc <__kernel_rem_pio2f>:
__kernel_rem_pio2f():
 800b1fc:	e92d 4ff0 	stmdb	sp!, {r4, r5, r6, r7, r8, r9, sl, fp, lr}
 800b200:	ed2d 8b04 	vpush	{d8-d9}
 800b204:	b0d7      	sub	sp, #348	; 0x15c
 800b206:	4ca5      	ldr	r4, [pc, #660]	; (800b49c <__kernel_rem_pio2f+0x2a0>)
 800b208:	9d64      	ldr	r5, [sp, #400]	; 0x190
 800b20a:	9103      	str	r1, [sp, #12]
 800b20c:	f103 39ff 	add.w	r9, r3, #4294967295
 800b210:	f854 8025 	ldr.w	r8, [r4, r5, lsl #2]
 800b214:	461d      	mov	r5, r3
 800b216:	1ed3      	subs	r3, r2, #3
 800b218:	bf48      	it	mi
 800b21a:	1d13      	addmi	r3, r2, #4
 800b21c:	10db      	asrs	r3, r3, #3
 800b21e:	ea23 73e3 	bic.w	r3, r3, r3, asr #31
 800b222:	9304      	str	r3, [sp, #16]
 800b224:	9e04      	ldr	r6, [sp, #16]
 800b226:	43db      	mvns	r3, r3
 800b228:	eb02 03c3 	add.w	r3, r2, r3, lsl #3
 800b22c:	4682      	mov	sl, r0
 800b22e:	eb19 0008 	adds.w	r0, r9, r8
 800b232:	9302      	str	r3, [sp, #8]
 800b234:	ebc9 0306 	rsb	r3, r9, r6
 800b238:	d418      	bmi.n	800b26c <__kernel_rem_pio2f+0x70>
 800b23a:	9e65      	ldr	r6, [sp, #404]	; 0x194
 800b23c:	4418      	add	r0, r3
 800b23e:	3001      	adds	r0, #1
 800b240:	a91a      	add	r1, sp, #104	; 0x68
 800b242:	eb06 0483 	add.w	r4, r6, r3, lsl #2
 800b246:	2200      	movs	r2, #0
 800b248:	2b00      	cmp	r3, #0
 800b24a:	bfaa      	itet	ge
 800b24c:	58a6      	ldrge	r6, [r4, r2]
 800b24e:	eddf 7a94 	vldrlt	s15, [pc, #592]	; 800b4a0 <__kernel_rem_pio2f+0x2a4>
 800b252:	ee07 6a10 	vmovge	s14, r6
 800b256:	f103 0301 	add.w	r3, r3, #1
 800b25a:	bfa8      	it	ge
 800b25c:	eef8 7ac7 	vcvtge.f32.s32	s15, s14
 800b260:	4283      	cmp	r3, r0
 800b262:	ece1 7a01 	vstmia	r1!, {s15}
 800b266:	f102 0204 	add.w	r2, r2, #4
 800b26a:	d1ed      	bne.n	800b248 <__kernel_rem_pio2f+0x4c>
 800b26c:	f1b8 0f00 	cmp.w	r8, #0
 800b270:	ea4f 0b88 	mov.w	fp, r8, lsl #2
 800b274:	db1d      	blt.n	800b2b2 <__kernel_rem_pio2f+0xb6>
 800b276:	a81a      	add	r0, sp, #104	; 0x68
 800b278:	ae43      	add	r6, sp, #268	; 0x10c
 800b27a:	eb00 0485 	add.w	r4, r0, r5, lsl #2
 800b27e:	445e      	add	r6, fp
 800b280:	a842      	add	r0, sp, #264	; 0x108
 800b282:	f1b9 0f00 	cmp.w	r9, #0
 800b286:	f2c0 81ae 	blt.w	800b5e6 <__kernel_rem_pio2f+0x3ea>
 800b28a:	eddf 7a85 	vldr	s15, [pc, #532]	; 800b4a0 <__kernel_rem_pio2f+0x2a4>
 800b28e:	4651      	mov	r1, sl
 800b290:	4622      	mov	r2, r4
 800b292:	2300      	movs	r3, #0
 800b294:	ecf1 6a01 	vldmia	r1!, {s13}
 800b298:	ed32 7a01 	vldmdb	r2!, {s14}
 800b29c:	3301      	adds	r3, #1
 800b29e:	42ab      	cmp	r3, r5
 800b2a0:	eee6 7a87 	vfma.f32	s15, s13, s14
 800b2a4:	d1f6      	bne.n	800b294 <__kernel_rem_pio2f+0x98>
 800b2a6:	ece0 7a01 	vstmia	r0!, {s15}
 800b2aa:	42b0      	cmp	r0, r6
 800b2ac:	f104 0404 	add.w	r4, r4, #4
 800b2b0:	d1e7      	bne.n	800b282 <__kernel_rem_pio2f+0x86>
 800b2b2:	f10d 0c18 	add.w	ip, sp, #24
 800b2b6:	4644      	mov	r4, r8
 800b2b8:	f8cd 8014 	str.w	r8, [sp, #20]
 800b2bc:	eddf 8a7a 	vldr	s17, [pc, #488]	; 800b4a8 <__kernel_rem_pio2f+0x2ac>
 800b2c0:	ed9f 8a78 	vldr	s16, [pc, #480]	; 800b4a4 <__kernel_rem_pio2f+0x2a8>
 800b2c4:	f8dd 8008 	ldr.w	r8, [sp, #8]
 800b2c8:	44e3      	add	fp, ip
 800b2ca:	00a6      	lsls	r6, r4, #2
 800b2cc:	ab56      	add	r3, sp, #344	; 0x158
 800b2ce:	4433      	add	r3, r6
 800b2d0:	2c00      	cmp	r4, #0
 800b2d2:	ed13 0a14 	vldr	s0, [r3, #-80]	; 0xffffffb0
 800b2d6:	dd1b      	ble.n	800b310 <__kernel_rem_pio2f+0x114>
 800b2d8:	f1ac 0104 	sub.w	r1, ip, #4
 800b2dc:	aa42      	add	r2, sp, #264	; 0x108
 800b2de:	4432      	add	r2, r6
 800b2e0:	4431      	add	r1, r6
 800b2e2:	ab05      	add	r3, sp, #20
 800b2e4:	ee60 7a28 	vmul.f32	s15, s0, s17
 800b2e8:	eeb0 7a40 	vmov.f32	s14, s0
 800b2ec:	eefd 7ae7 	vcvt.s32.f32	s15, s15
 800b2f0:	ed72 6a01 	vldmdb	r2!, {s13}
 800b2f4:	eef8 7ae7 	vcvt.f32.s32	s15, s15
 800b2f8:	eea7 7ac8 	vfms.f32	s14, s15, s16
 800b2fc:	ee37 0aa6 	vadd.f32	s0, s15, s13
 800b300:	eebd 7ac7 	vcvt.s32.f32	s14, s14
 800b304:	ee17 0a10 	vmov	r0, s14
 800b308:	f843 0f04 	str.w	r0, [r3, #4]!
 800b30c:	428b      	cmp	r3, r1
 800b30e:	d1e9      	bne.n	800b2e4 <__kernel_rem_pio2f+0xe8>
 800b310:	4640      	mov	r0, r8
 800b312:	f8cd c000 	str.w	ip, [sp]
 800b316:	f000 fb5d 	bl	800b9d4 <scalbnf>
 800b31a:	eeb0 9a40 	vmov.f32	s18, s0
 800b31e:	eeb4 0a00 	vmov.f32	s0, #64	; 0x40
 800b322:	ee29 0a00 	vmul.f32	s0, s18, s0
 800b326:	f7fe ff87 	bl	800a238 <floorf>
 800b32a:	eef2 7a00 	vmov.f32	s15, #32
 800b32e:	eea0 9a67 	vfms.f32	s18, s0, s15
 800b332:	f1b8 0f00 	cmp.w	r8, #0
 800b336:	f8dd c000 	ldr.w	ip, [sp]
 800b33a:	eefd 9ac9 	vcvt.s32.f32	s19, s18
 800b33e:	eef8 7ae9 	vcvt.f32.s32	s15, s19
 800b342:	ee39 9a67 	vsub.f32	s18, s18, s15
 800b346:	f340 80a1 	ble.w	800b48c <__kernel_rem_pio2f+0x290>
 800b34a:	1e61      	subs	r1, r4, #1
 800b34c:	f1c8 0008 	rsb	r0, r8, #8
 800b350:	f85c 3021 	ldr.w	r3, [ip, r1, lsl #2]
 800b354:	fa43 f200 	asr.w	r2, r3, r0
 800b358:	fa02 f000 	lsl.w	r0, r2, r0
 800b35c:	1a1b      	subs	r3, r3, r0
 800b35e:	f84c 3021 	str.w	r3, [ip, r1, lsl #2]
 800b362:	ee19 1a90 	vmov	r1, s19
 800b366:	f1c8 0007 	rsb	r0, r8, #7
 800b36a:	4411      	add	r1, r2
 800b36c:	fa43 f000 	asr.w	r0, r3, r0
 800b370:	ee09 1a90 	vmov	s19, r1
 800b374:	9001      	str	r0, [sp, #4]
 800b376:	9b01      	ldr	r3, [sp, #4]
 800b378:	2b00      	cmp	r3, #0
 800b37a:	dd2d      	ble.n	800b3d8 <__kernel_rem_pio2f+0x1dc>
 800b37c:	ee19 2a90 	vmov	r2, s19
 800b380:	2c00      	cmp	r4, #0
 800b382:	f102 0201 	add.w	r2, r2, #1
 800b386:	ee09 2a90 	vmov	s19, r2
 800b38a:	f340 8140 	ble.w	800b60e <__kernel_rem_pio2f+0x412>
 800b38e:	4663      	mov	r3, ip
 800b390:	eb0c 0706 	add.w	r7, ip, r6
 800b394:	2100      	movs	r1, #0
 800b396:	f853 2b04 	ldr.w	r2, [r3], #4
 800b39a:	f1c2 00ff 	rsb	r0, r2, #255	; 0xff
 800b39e:	b911      	cbnz	r1, 800b3a6 <__kernel_rem_pio2f+0x1aa>
 800b3a0:	f5c2 7080 	rsb	r0, r2, #256	; 0x100
 800b3a4:	b112      	cbz	r2, 800b3ac <__kernel_rem_pio2f+0x1b0>
 800b3a6:	f843 0c04 	str.w	r0, [r3, #-4]
 800b3aa:	2101      	movs	r1, #1
 800b3ac:	42bb      	cmp	r3, r7
 800b3ae:	d1f2      	bne.n	800b396 <__kernel_rem_pio2f+0x19a>
 800b3b0:	f1b8 0f00 	cmp.w	r8, #0
 800b3b4:	dd0d      	ble.n	800b3d2 <__kernel_rem_pio2f+0x1d6>
 800b3b6:	f1b8 0f01 	cmp.w	r8, #1
 800b3ba:	f000 8102 	beq.w	800b5c2 <__kernel_rem_pio2f+0x3c6>
 800b3be:	f1b8 0f02 	cmp.w	r8, #2
 800b3c2:	d106      	bne.n	800b3d2 <__kernel_rem_pio2f+0x1d6>
 800b3c4:	1e62      	subs	r2, r4, #1
 800b3c6:	f85c 3022 	ldr.w	r3, [ip, r2, lsl #2]
 800b3ca:	f003 033f 	and.w	r3, r3, #63	; 0x3f
 800b3ce:	f84c 3022 	str.w	r3, [ip, r2, lsl #2]
 800b3d2:	9b01      	ldr	r3, [sp, #4]
 800b3d4:	2b02      	cmp	r3, #2
 800b3d6:	d069      	beq.n	800b4ac <__kernel_rem_pio2f+0x2b0>
 800b3d8:	eeb5 9a40 	vcmp.f32	s18, #0.0
 800b3dc:	eef1 fa10 	vmrs	APSR_nzcv, fpscr
 800b3e0:	d178      	bne.n	800b4d4 <__kernel_rem_pio2f+0x2d8>
 800b3e2:	9905      	ldr	r1, [sp, #20]
 800b3e4:	1e67      	subs	r7, r4, #1
 800b3e6:	42b9      	cmp	r1, r7
 800b3e8:	dc0a      	bgt.n	800b400 <__kernel_rem_pio2f+0x204>
 800b3ea:	4466      	add	r6, ip
 800b3ec:	2300      	movs	r3, #0
 800b3ee:	f856 2d04 	ldr.w	r2, [r6, #-4]!
 800b3f2:	455e      	cmp	r6, fp
 800b3f4:	ea43 0302 	orr.w	r3, r3, r2
 800b3f8:	d1f9      	bne.n	800b3ee <__kernel_rem_pio2f+0x1f2>
 800b3fa:	2b00      	cmp	r3, #0
 800b3fc:	f040 81b1 	bne.w	800b762 <__kernel_rem_pio2f+0x566>
 800b400:	9a05      	ldr	r2, [sp, #20]
 800b402:	1e53      	subs	r3, r2, #1
 800b404:	f85c 2023 	ldr.w	r2, [ip, r3, lsl #2]
 800b408:	2a00      	cmp	r2, #0
 800b40a:	f040 81a7 	bne.w	800b75c <__kernel_rem_pio2f+0x560>
 800b40e:	eb0c 0383 	add.w	r3, ip, r3, lsl #2
 800b412:	f04f 0e01 	mov.w	lr, #1
 800b416:	f853 2d04 	ldr.w	r2, [r3, #-4]!
 800b41a:	f10e 0e01 	add.w	lr, lr, #1
 800b41e:	2a00      	cmp	r2, #0
 800b420:	d0f9      	beq.n	800b416 <__kernel_rem_pio2f+0x21a>
 800b422:	44a6      	add	lr, r4
 800b424:	1c66      	adds	r6, r4, #1
 800b426:	4576      	cmp	r6, lr
 800b428:	dc2e      	bgt.n	800b488 <__kernel_rem_pio2f+0x28c>
 800b42a:	9804      	ldr	r0, [sp, #16]
 800b42c:	9f04      	ldr	r7, [sp, #16]
 800b42e:	4420      	add	r0, r4
 800b430:	9c65      	ldr	r4, [sp, #404]	; 0x194
 800b432:	eb09 0306 	add.w	r3, r9, r6
 800b436:	a91a      	add	r1, sp, #104	; 0x68
 800b438:	eb04 0080 	add.w	r0, r4, r0, lsl #2
 800b43c:	eb01 0483 	add.w	r4, r1, r3, lsl #2
 800b440:	9b65      	ldr	r3, [sp, #404]	; 0x194
 800b442:	4477      	add	r7, lr
 800b444:	aa42      	add	r2, sp, #264	; 0x108
 800b446:	eb02 0686 	add.w	r6, r2, r6, lsl #2
 800b44a:	eb03 0787 	add.w	r7, r3, r7, lsl #2
 800b44e:	f850 1f04 	ldr.w	r1, [r0, #4]!
 800b452:	ee07 1a90 	vmov	s15, r1
 800b456:	eef8 7ae7 	vcvt.f32.s32	s15, s15
 800b45a:	f1b9 0f00 	cmp.w	r9, #0
 800b45e:	ece4 7a01 	vstmia	r4!, {s15}
 800b462:	eddf 7a0f 	vldr	s15, [pc, #60]	; 800b4a0 <__kernel_rem_pio2f+0x2a4>
 800b466:	db0b      	blt.n	800b480 <__kernel_rem_pio2f+0x284>
 800b468:	4651      	mov	r1, sl
 800b46a:	4622      	mov	r2, r4
 800b46c:	2300      	movs	r3, #0
 800b46e:	ecf1 6a01 	vldmia	r1!, {s13}
 800b472:	ed32 7a01 	vldmdb	r2!, {s14}
 800b476:	3301      	adds	r3, #1
 800b478:	42ab      	cmp	r3, r5
 800b47a:	eee6 7a87 	vfma.f32	s15, s13, s14
 800b47e:	d1f6      	bne.n	800b46e <__kernel_rem_pio2f+0x272>
 800b480:	42b8      	cmp	r0, r7
 800b482:	ece6 7a01 	vstmia	r6!, {s15}
 800b486:	d1e2      	bne.n	800b44e <__kernel_rem_pio2f+0x252>
 800b488:	4674      	mov	r4, lr
 800b48a:	e71e      	b.n	800b2ca <__kernel_rem_pio2f+0xce>
 800b48c:	f040 80a1 	bne.w	800b5d2 <__kernel_rem_pio2f+0x3d6>
 800b490:	1e63      	subs	r3, r4, #1
 800b492:	f85c 3023 	ldr.w	r3, [ip, r3, lsl #2]
 800b496:	121b      	asrs	r3, r3, #8
 800b498:	9301      	str	r3, [sp, #4]
 800b49a:	e76c      	b.n	800b376 <__kernel_rem_pio2f+0x17a>
 800b49c:	0800daa0 	.word	0x0800daa0
 800b4a0:	00000000 	.word	0x00000000
 800b4a4:	43800000 	.word	0x43800000
 800b4a8:	3b800000 	.word	0x3b800000
 800b4ac:	eeb7 0a00 	vmov.f32	s0, #112	; 0x70
 800b4b0:	ee30 9a49 	vsub.f32	s18, s0, s18
 800b4b4:	2900      	cmp	r1, #0
 800b4b6:	d08f      	beq.n	800b3d8 <__kernel_rem_pio2f+0x1dc>
 800b4b8:	4640      	mov	r0, r8
 800b4ba:	f8cd c000 	str.w	ip, [sp]
 800b4be:	f000 fa89 	bl	800b9d4 <scalbnf>
 800b4c2:	ee39 9a40 	vsub.f32	s18, s18, s0
 800b4c6:	f8dd c000 	ldr.w	ip, [sp]
 800b4ca:	eeb5 9a40 	vcmp.f32	s18, #0.0
 800b4ce:	eef1 fa10 	vmrs	APSR_nzcv, fpscr
 800b4d2:	d086      	beq.n	800b3e2 <__kernel_rem_pio2f+0x1e6>
 800b4d4:	9b02      	ldr	r3, [sp, #8]
 800b4d6:	f8cd c000 	str.w	ip, [sp]
 800b4da:	eeb0 0a49 	vmov.f32	s0, s18
 800b4de:	4258      	negs	r0, r3
 800b4e0:	f8dd 8014 	ldr.w	r8, [sp, #20]
 800b4e4:	f000 fa76 	bl	800b9d4 <scalbnf>
 800b4e8:	ed5f 7a12 	vldr	s15, [pc, #-72]	; 800b4a4 <__kernel_rem_pio2f+0x2a8>
 800b4ec:	f8dd c000 	ldr.w	ip, [sp]
 800b4f0:	eeb4 0ae7 	vcmpe.f32	s0, s15
 800b4f4:	eef1 fa10 	vmrs	APSR_nzcv, fpscr
 800b4f8:	f2c0 8154 	blt.w	800b7a4 <__kernel_rem_pio2f+0x5a8>
 800b4fc:	ed1f 7a16 	vldr	s14, [pc, #-88]	; 800b4a8 <__kernel_rem_pio2f+0x2ac>
 800b500:	9a02      	ldr	r2, [sp, #8]
 800b502:	ee20 7a07 	vmul.f32	s14, s0, s14
 800b506:	1c67      	adds	r7, r4, #1
 800b508:	eebd 7ac7 	vcvt.s32.f32	s14, s14
 800b50c:	3208      	adds	r2, #8
 800b50e:	eeb8 7ac7 	vcvt.f32.s32	s14, s14
 800b512:	9202      	str	r2, [sp, #8]
 800b514:	eea7 0a67 	vfms.f32	s0, s14, s15
 800b518:	eebd 7ac7 	vcvt.s32.f32	s14, s14
 800b51c:	eebd 0ac0 	vcvt.s32.f32	s0, s0
 800b520:	ee10 3a10 	vmov	r3, s0
 800b524:	f84c 3024 	str.w	r3, [ip, r4, lsl #2]
 800b528:	ee17 4a10 	vmov	r4, s14
 800b52c:	f84c 4027 	str.w	r4, [ip, r7, lsl #2]
 800b530:	9802      	ldr	r0, [sp, #8]
 800b532:	f8cd c000 	str.w	ip, [sp]
 800b536:	eeb7 0a00 	vmov.f32	s0, #112	; 0x70
 800b53a:	f000 fa4b 	bl	800b9d4 <scalbnf>
 800b53e:	2f00      	cmp	r7, #0
 800b540:	f8dd c000 	ldr.w	ip, [sp]
 800b544:	db36      	blt.n	800b5b4 <__kernel_rem_pio2f+0x3b8>
 800b546:	1c7d      	adds	r5, r7, #1
 800b548:	00aa      	lsls	r2, r5, #2
 800b54a:	ae42      	add	r6, sp, #264	; 0x108
 800b54c:	ed1f 7a2a 	vldr	s14, [pc, #-168]	; 800b4a8 <__kernel_rem_pio2f+0x2ac>
 800b550:	eb0c 0302 	add.w	r3, ip, r2
 800b554:	4432      	add	r2, r6
 800b556:	ed73 7a01 	vldmdb	r3!, {s15}
 800b55a:	eef8 7ae7 	vcvt.f32.s32	s15, s15
 800b55e:	4563      	cmp	r3, ip
 800b560:	ee67 7a80 	vmul.f32	s15, s15, s0
 800b564:	ee20 0a07 	vmul.f32	s0, s0, s14
 800b568:	ed62 7a01 	vstmdb	r2!, {s15}
 800b56c:	d1f3      	bne.n	800b556 <__kernel_rem_pio2f+0x35a>
 800b56e:	a842      	add	r0, sp, #264	; 0x108
 800b570:	eb00 0487 	add.w	r4, r0, r7, lsl #2
 800b574:	2000      	movs	r0, #0
 800b576:	f1b8 0f00 	cmp.w	r8, #0
 800b57a:	f2c0 80e9 	blt.w	800b750 <__kernel_rem_pio2f+0x554>
 800b57e:	4990      	ldr	r1, [pc, #576]	; (800b7c0 <__kernel_rem_pio2f+0x5c4>)
 800b580:	eddf 7a90 	vldr	s15, [pc, #576]	; 800b7c4 <__kernel_rem_pio2f+0x5c8>
 800b584:	4622      	mov	r2, r4
 800b586:	2300      	movs	r3, #0
 800b588:	e001      	b.n	800b58e <__kernel_rem_pio2f+0x392>
 800b58a:	4283      	cmp	r3, r0
 800b58c:	dc08      	bgt.n	800b5a0 <__kernel_rem_pio2f+0x3a4>
 800b58e:	ecf1 6a01 	vldmia	r1!, {s13}
 800b592:	ecb2 7a01 	vldmia	r2!, {s14}
 800b596:	3301      	adds	r3, #1
 800b598:	4598      	cmp	r8, r3
 800b59a:	eee6 7a87 	vfma.f32	s15, s13, s14
 800b59e:	daf4      	bge.n	800b58a <__kernel_rem_pio2f+0x38e>
 800b5a0:	a956      	add	r1, sp, #344	; 0x158
 800b5a2:	eb01 0380 	add.w	r3, r1, r0, lsl #2
 800b5a6:	3001      	adds	r0, #1
 800b5a8:	4285      	cmp	r5, r0
 800b5aa:	f1a4 0404 	sub.w	r4, r4, #4
 800b5ae:	ed43 7a28 	vstr	s15, [r3, #-160]	; 0xffffff60
 800b5b2:	d1e0      	bne.n	800b576 <__kernel_rem_pio2f+0x37a>
 800b5b4:	9c64      	ldr	r4, [sp, #400]	; 0x190
 800b5b6:	2c03      	cmp	r4, #3
 800b5b8:	d87f      	bhi.n	800b6ba <__kernel_rem_pio2f+0x4be>
 800b5ba:	e8df f004 	tbb	[pc, r4]
 800b5be:	87b3      	.short	0x87b3
 800b5c0:	2a87      	.short	0x2a87
 800b5c2:	1e62      	subs	r2, r4, #1
 800b5c4:	f85c 3022 	ldr.w	r3, [ip, r2, lsl #2]
 800b5c8:	f003 037f 	and.w	r3, r3, #127	; 0x7f
 800b5cc:	f84c 3022 	str.w	r3, [ip, r2, lsl #2]
 800b5d0:	e6ff      	b.n	800b3d2 <__kernel_rem_pio2f+0x1d6>
 800b5d2:	eef6 7a00 	vmov.f32	s15, #96	; 0x60
 800b5d6:	eeb4 9ae7 	vcmpe.f32	s18, s15
 800b5da:	eef1 fa10 	vmrs	APSR_nzcv, fpscr
 800b5de:	da0c      	bge.n	800b5fa <__kernel_rem_pio2f+0x3fe>
 800b5e0:	2200      	movs	r2, #0
 800b5e2:	9201      	str	r2, [sp, #4]
 800b5e4:	e6f8      	b.n	800b3d8 <__kernel_rem_pio2f+0x1dc>
 800b5e6:	eddf 7a77 	vldr	s15, [pc, #476]	; 800b7c4 <__kernel_rem_pio2f+0x5c8>
 800b5ea:	ece0 7a01 	vstmia	r0!, {s15}
 800b5ee:	42b0      	cmp	r0, r6
 800b5f0:	f104 0404 	add.w	r4, r4, #4
 800b5f4:	f47f ae45 	bne.w	800b282 <__kernel_rem_pio2f+0x86>
 800b5f8:	e65b      	b.n	800b2b2 <__kernel_rem_pio2f+0xb6>
 800b5fa:	ee19 2a90 	vmov	r2, s19
 800b5fe:	2102      	movs	r1, #2
 800b600:	3201      	adds	r2, #1
 800b602:	2c00      	cmp	r4, #0
 800b604:	9101      	str	r1, [sp, #4]
 800b606:	ee09 2a90 	vmov	s19, r2
 800b60a:	f73f aec0 	bgt.w	800b38e <__kernel_rem_pio2f+0x192>
 800b60e:	2100      	movs	r1, #0
 800b610:	e6ce      	b.n	800b3b0 <__kernel_rem_pio2f+0x1b4>
 800b612:	2f00      	cmp	r7, #0
 800b614:	f340 80b9 	ble.w	800b78a <__kernel_rem_pio2f+0x58e>
 800b618:	00b9      	lsls	r1, r7, #2
 800b61a:	ab56      	add	r3, sp, #344	; 0x158
 800b61c:	1c7a      	adds	r2, r7, #1
 800b61e:	ae2e      	add	r6, sp, #184	; 0xb8
 800b620:	440b      	add	r3, r1
 800b622:	eb06 0282 	add.w	r2, r6, r2, lsl #2
 800b626:	ed53 7a28 	vldr	s15, [r3, #-160]	; 0xffffff60
 800b62a:	a82f      	add	r0, sp, #188	; 0xbc
 800b62c:	4613      	mov	r3, r2
 800b62e:	ed53 6a02 	vldr	s13, [r3, #-8]
 800b632:	ee36 7aa7 	vadd.f32	s14, s13, s15
 800b636:	ee76 6ac7 	vsub.f32	s13, s13, s14
 800b63a:	ee76 6aa7 	vadd.f32	s13, s13, s15
 800b63e:	eef0 7a47 	vmov.f32	s15, s14
 800b642:	ed63 6a01 	vstmdb	r3!, {s13}
 800b646:	4283      	cmp	r3, r0
 800b648:	ed03 7a01 	vstr	s14, [r3, #-4]
 800b64c:	d1ef      	bne.n	800b62e <__kernel_rem_pio2f+0x432>
 800b64e:	2f01      	cmp	r7, #1
 800b650:	f340 809b 	ble.w	800b78a <__kernel_rem_pio2f+0x58e>
 800b654:	a856      	add	r0, sp, #344	; 0x158
 800b656:	4401      	add	r1, r0
 800b658:	ed51 7a28 	vldr	s15, [r1, #-160]	; 0xffffff60
 800b65c:	4613      	mov	r3, r2
 800b65e:	a930      	add	r1, sp, #192	; 0xc0
 800b660:	ed53 6a02 	vldr	s13, [r3, #-8]
 800b664:	ee36 7aa7 	vadd.f32	s14, s13, s15
 800b668:	ee76 6ac7 	vsub.f32	s13, s13, s14
 800b66c:	ee76 6aa7 	vadd.f32	s13, s13, s15
 800b670:	eef0 7a47 	vmov.f32	s15, s14
 800b674:	ed63 6a01 	vstmdb	r3!, {s13}
 800b678:	428b      	cmp	r3, r1
 800b67a:	ed03 7a01 	vstr	s14, [r3, #-4]
 800b67e:	d1ef      	bne.n	800b660 <__kernel_rem_pio2f+0x464>
 800b680:	eddf 7a50 	vldr	s15, [pc, #320]	; 800b7c4 <__kernel_rem_pio2f+0x5c8>
 800b684:	4613      	mov	r3, r2
 800b686:	ed33 7a01 	vldmdb	r3!, {s14}
 800b68a:	4299      	cmp	r1, r3
 800b68c:	ee77 7a87 	vadd.f32	s15, s15, s14
 800b690:	d1f9      	bne.n	800b686 <__kernel_rem_pio2f+0x48a>
 800b692:	9c01      	ldr	r4, [sp, #4]
 800b694:	2c00      	cmp	r4, #0
 800b696:	d07d      	beq.n	800b794 <__kernel_rem_pio2f+0x598>
 800b698:	eddd 6a2e 	vldr	s13, [sp, #184]	; 0xb8
 800b69c:	ed9d 7a2f 	vldr	s14, [sp, #188]	; 0xbc
 800b6a0:	9e03      	ldr	r6, [sp, #12]
 800b6a2:	eef1 7a67 	vneg.f32	s15, s15
 800b6a6:	eef1 6a66 	vneg.f32	s13, s13
 800b6aa:	eeb1 7a47 	vneg.f32	s14, s14
 800b6ae:	edc6 7a02 	vstr	s15, [r6, #8]
 800b6b2:	edc6 6a00 	vstr	s13, [r6]
 800b6b6:	ed86 7a01 	vstr	s14, [r6, #4]
 800b6ba:	ee19 1a90 	vmov	r1, s19
 800b6be:	f001 0007 	and.w	r0, r1, #7
 800b6c2:	b057      	add	sp, #348	; 0x15c
 800b6c4:	ecbd 8b04 	vpop	{d8-d9}
 800b6c8:	e8bd 8ff0 	ldmia.w	sp!, {r4, r5, r6, r7, r8, r9, sl, fp, pc}
 800b6cc:	2f00      	cmp	r7, #0
 800b6ce:	db74      	blt.n	800b7ba <__kernel_rem_pio2f+0x5be>
 800b6d0:	aa2e      	add	r2, sp, #184	; 0xb8
 800b6d2:	1c7b      	adds	r3, r7, #1
 800b6d4:	eddf 7a3b 	vldr	s15, [pc, #236]	; 800b7c4 <__kernel_rem_pio2f+0x5c8>
 800b6d8:	eb02 0383 	add.w	r3, r2, r3, lsl #2
 800b6dc:	ed33 7a01 	vldmdb	r3!, {s14}
 800b6e0:	4293      	cmp	r3, r2
 800b6e2:	ee77 7a87 	vadd.f32	s15, s15, s14
 800b6e6:	d1f9      	bne.n	800b6dc <__kernel_rem_pio2f+0x4e0>
 800b6e8:	9a01      	ldr	r2, [sp, #4]
 800b6ea:	b3a2      	cbz	r2, 800b756 <__kernel_rem_pio2f+0x55a>
 800b6ec:	eeb1 7a67 	vneg.f32	s14, s15
 800b6f0:	eddd 6a2e 	vldr	s13, [sp, #184]	; 0xb8
 800b6f4:	9b03      	ldr	r3, [sp, #12]
 800b6f6:	2f00      	cmp	r7, #0
 800b6f8:	ed83 7a00 	vstr	s14, [r3]
 800b6fc:	ee76 7ae7 	vsub.f32	s15, s13, s15
 800b700:	dd08      	ble.n	800b714 <__kernel_rem_pio2f+0x518>
 800b702:	ab2f      	add	r3, sp, #188	; 0xbc
 800b704:	eb03 0787 	add.w	r7, r3, r7, lsl #2
 800b708:	ecb3 7a01 	vldmia	r3!, {s14}
 800b70c:	42bb      	cmp	r3, r7
 800b70e:	ee77 7a87 	vadd.f32	s15, s15, s14
 800b712:	d1f9      	bne.n	800b708 <__kernel_rem_pio2f+0x50c>
 800b714:	9c01      	ldr	r4, [sp, #4]
 800b716:	b10c      	cbz	r4, 800b71c <__kernel_rem_pio2f+0x520>
 800b718:	eef1 7a67 	vneg.f32	s15, s15
 800b71c:	9d03      	ldr	r5, [sp, #12]
 800b71e:	edc5 7a01 	vstr	s15, [r5, #4]
 800b722:	e7ca      	b.n	800b6ba <__kernel_rem_pio2f+0x4be>
 800b724:	2f00      	cmp	r7, #0
 800b726:	db45      	blt.n	800b7b4 <__kernel_rem_pio2f+0x5b8>
 800b728:	1c7b      	adds	r3, r7, #1
 800b72a:	aa2e      	add	r2, sp, #184	; 0xb8
 800b72c:	eddf 7a25 	vldr	s15, [pc, #148]	; 800b7c4 <__kernel_rem_pio2f+0x5c8>
 800b730:	eb02 0383 	add.w	r3, r2, r3, lsl #2
 800b734:	ed33 7a01 	vldmdb	r3!, {s14}
 800b738:	4293      	cmp	r3, r2
 800b73a:	ee77 7a87 	vadd.f32	s15, s15, s14
 800b73e:	d1f9      	bne.n	800b734 <__kernel_rem_pio2f+0x538>
 800b740:	9e01      	ldr	r6, [sp, #4]
 800b742:	b10e      	cbz	r6, 800b748 <__kernel_rem_pio2f+0x54c>
 800b744:	eef1 7a67 	vneg.f32	s15, s15
 800b748:	9903      	ldr	r1, [sp, #12]
 800b74a:	edc1 7a00 	vstr	s15, [r1]
 800b74e:	e7b4      	b.n	800b6ba <__kernel_rem_pio2f+0x4be>
 800b750:	eddf 7a1c 	vldr	s15, [pc, #112]	; 800b7c4 <__kernel_rem_pio2f+0x5c8>
 800b754:	e724      	b.n	800b5a0 <__kernel_rem_pio2f+0x3a4>
 800b756:	eeb0 7a67 	vmov.f32	s14, s15
 800b75a:	e7c9      	b.n	800b6f0 <__kernel_rem_pio2f+0x4f4>
 800b75c:	f04f 0e01 	mov.w	lr, #1
 800b760:	e65f      	b.n	800b422 <__kernel_rem_pio2f+0x226>
 800b762:	9a02      	ldr	r2, [sp, #8]
 800b764:	f85c 3027 	ldr.w	r3, [ip, r7, lsl #2]
 800b768:	f8dd 8014 	ldr.w	r8, [sp, #20]
 800b76c:	3a08      	subs	r2, #8
 800b76e:	9202      	str	r2, [sp, #8]
 800b770:	2b00      	cmp	r3, #0
 800b772:	f47f aedd 	bne.w	800b530 <__kernel_rem_pio2f+0x334>
 800b776:	eb0c 0387 	add.w	r3, ip, r7, lsl #2
 800b77a:	f853 1d04 	ldr.w	r1, [r3, #-4]!
 800b77e:	3f01      	subs	r7, #1
 800b780:	3a08      	subs	r2, #8
 800b782:	2900      	cmp	r1, #0
 800b784:	d0f9      	beq.n	800b77a <__kernel_rem_pio2f+0x57e>
 800b786:	9202      	str	r2, [sp, #8]
 800b788:	e6d2      	b.n	800b530 <__kernel_rem_pio2f+0x334>
 800b78a:	9c01      	ldr	r4, [sp, #4]
 800b78c:	eddf 7a0d 	vldr	s15, [pc, #52]	; 800b7c4 <__kernel_rem_pio2f+0x5c8>
 800b790:	2c00      	cmp	r4, #0
 800b792:	d181      	bne.n	800b698 <__kernel_rem_pio2f+0x49c>
 800b794:	9d03      	ldr	r5, [sp, #12]
 800b796:	9a2e      	ldr	r2, [sp, #184]	; 0xb8
 800b798:	9b2f      	ldr	r3, [sp, #188]	; 0xbc
 800b79a:	edc5 7a02 	vstr	s15, [r5, #8]
 800b79e:	602a      	str	r2, [r5, #0]
 800b7a0:	606b      	str	r3, [r5, #4]
 800b7a2:	e78a      	b.n	800b6ba <__kernel_rem_pio2f+0x4be>
 800b7a4:	eebd 0ac0 	vcvt.s32.f32	s0, s0
 800b7a8:	4627      	mov	r7, r4
 800b7aa:	ee10 5a10 	vmov	r5, s0
 800b7ae:	f84c 5024 	str.w	r5, [ip, r4, lsl #2]
 800b7b2:	e6bd      	b.n	800b530 <__kernel_rem_pio2f+0x334>
 800b7b4:	eddf 7a03 	vldr	s15, [pc, #12]	; 800b7c4 <__kernel_rem_pio2f+0x5c8>
 800b7b8:	e7c2      	b.n	800b740 <__kernel_rem_pio2f+0x544>
 800b7ba:	eddf 7a02 	vldr	s15, [pc, #8]	; 800b7c4 <__kernel_rem_pio2f+0x5c8>
 800b7be:	e793      	b.n	800b6e8 <__kernel_rem_pio2f+0x4ec>
 800b7c0:	0800daac 	.word	0x0800daac
 800b7c4:	00000000 	.word	0x00000000

0800b7c8 <__kernel_sinf>:
__kernel_sinf():
 800b7c8:	ee10 3a10 	vmov	r3, s0
 800b7cc:	f023 4300 	bic.w	r3, r3, #2147483648	; 0x80000000
 800b7d0:	f1b3 5f48 	cmp.w	r3, #838860800	; 0x32000000
 800b7d4:	da04      	bge.n	800b7e0 <__kernel_sinf+0x18>
 800b7d6:	eefd 7ac0 	vcvt.s32.f32	s15, s0
 800b7da:	ee17 3a90 	vmov	r3, s15
 800b7de:	b323      	cbz	r3, 800b82a <__kernel_sinf+0x62>
 800b7e0:	ee60 7a00 	vmul.f32	s15, s0, s0
 800b7e4:	ed9f 5a15 	vldr	s10, [pc, #84]	; 800b83c <__kernel_sinf+0x74>
 800b7e8:	ed9f 6a15 	vldr	s12, [pc, #84]	; 800b840 <__kernel_sinf+0x78>
 800b7ec:	eddf 6a15 	vldr	s13, [pc, #84]	; 800b844 <__kernel_sinf+0x7c>
 800b7f0:	ed9f 7a15 	vldr	s14, [pc, #84]	; 800b848 <__kernel_sinf+0x80>
 800b7f4:	eddf 5a15 	vldr	s11, [pc, #84]	; 800b84c <__kernel_sinf+0x84>
 800b7f8:	eea7 6a85 	vfma.f32	s12, s15, s10
 800b7fc:	ee27 5a80 	vmul.f32	s10, s15, s0
 800b800:	eee6 6a27 	vfma.f32	s13, s12, s15
 800b804:	eea6 7aa7 	vfma.f32	s14, s13, s15
 800b808:	eee7 5a27 	vfma.f32	s11, s14, s15
 800b80c:	b170      	cbz	r0, 800b82c <__kernel_sinf+0x64>
 800b80e:	ee65 5ac5 	vnmul.f32	s11, s11, s10
 800b812:	eeb6 7a00 	vmov.f32	s14, #96	; 0x60
 800b816:	eee0 5a87 	vfma.f32	s11, s1, s14
 800b81a:	ed9f 7a0d 	vldr	s14, [pc, #52]	; 800b850 <__kernel_sinf+0x88>
 800b81e:	eed5 0aa7 	vfnms.f32	s1, s11, s15
 800b822:	eee5 0a07 	vfma.f32	s1, s10, s14
 800b826:	ee30 0a60 	vsub.f32	s0, s0, s1
 800b82a:	4770      	bx	lr
 800b82c:	ed9f 7a09 	vldr	s14, [pc, #36]	; 800b854 <__kernel_sinf+0x8c>
 800b830:	eea7 7aa5 	vfma.f32	s14, s15, s11
 800b834:	eea7 0a05 	vfma.f32	s0, s14, s10
 800b838:	4770      	bx	lr
 800b83a:	bf00      	nop
 800b83c:	2f2ec9d3 	.word	0x2f2ec9d3
 800b840:	b2d72f34 	.word	0xb2d72f34
 800b844:	3638ef1b 	.word	0x3638ef1b
 800b848:	b9500d01 	.word	0xb9500d01
 800b84c:	3c088889 	.word	0x3c088889
 800b850:	3e2aaaab 	.word	0x3e2aaaab
 800b854:	be2aaaab 	.word	0xbe2aaaab

0800b858 <matherr>:
matherr():
 800b858:	2000      	movs	r0, #0
 800b85a:	4770      	bx	lr

0800b85c <rint>:
rint():
 800b85c:	b5f0      	push	{r4, r5, r6, r7, lr}
 800b85e:	ec53 2b10 	vmov	r2, r3, d0
 800b862:	f3c3 500a 	ubfx	r0, r3, #20, #11
 800b866:	f2a0 31ff 	subw	r1, r0, #1023	; 0x3ff
 800b86a:	2913      	cmp	r1, #19
 800b86c:	b083      	sub	sp, #12
 800b86e:	469c      	mov	ip, r3
 800b870:	ee10 7a10 	vmov	r7, s0
 800b874:	ea4f 76d3 	mov.w	r6, r3, lsr #31
 800b878:	dc31      	bgt.n	800b8de <rint+0x82>
 800b87a:	2900      	cmp	r1, #0
 800b87c:	db4f      	blt.n	800b91e <rint+0xc2>
 800b87e:	483d      	ldr	r0, [pc, #244]	; (800b974 <rint+0x118>)
 800b880:	4108      	asrs	r0, r1
 800b882:	ea00 0403 	and.w	r4, r0, r3
 800b886:	4314      	orrs	r4, r2
 800b888:	d027      	beq.n	800b8da <rint+0x7e>
 800b88a:	0840      	lsrs	r0, r0, #1
 800b88c:	ea00 0703 	and.w	r7, r0, r3
 800b890:	4317      	orrs	r7, r2
 800b892:	d00c      	beq.n	800b8ae <rint+0x52>
 800b894:	f44f 2c80 	mov.w	ip, #262144	; 0x40000
 800b898:	2913      	cmp	r1, #19
 800b89a:	ea23 0000 	bic.w	r0, r3, r0
 800b89e:	fa4c f101 	asr.w	r1, ip, r1
 800b8a2:	ea40 0c01 	orr.w	ip, r0, r1
 800b8a6:	bf14      	ite	ne
 800b8a8:	2700      	movne	r7, #0
 800b8aa:	f04f 4700 	moveq.w	r7, #2147483648	; 0x80000000
 800b8ae:	4b32      	ldr	r3, [pc, #200]	; (800b978 <rint+0x11c>)
 800b8b0:	eb03 06c6 	add.w	r6, r3, r6, lsl #3
 800b8b4:	463c      	mov	r4, r7
 800b8b6:	e9d6 6700 	ldrd	r6, r7, [r6]
 800b8ba:	4663      	mov	r3, ip
 800b8bc:	4622      	mov	r2, r4
 800b8be:	4630      	mov	r0, r6
 800b8c0:	4639      	mov	r1, r7
 800b8c2:	f000 f905 	bl	800bad0 <__adddf3>
 800b8c6:	e9cd 0100 	strd	r0, r1, [sp]
 800b8ca:	4632      	mov	r2, r6
 800b8cc:	463b      	mov	r3, r7
 800b8ce:	e9dd 0100 	ldrd	r0, r1, [sp]
 800b8d2:	f000 f8fb 	bl	800bacc <__aeabi_dsub>
 800b8d6:	ec41 0b10 	vmov	d0, r0, r1
 800b8da:	b003      	add	sp, #12
 800b8dc:	bdf0      	pop	{r4, r5, r6, r7, pc}
 800b8de:	2933      	cmp	r1, #51	; 0x33
 800b8e0:	dd0a      	ble.n	800b8f8 <rint+0x9c>
 800b8e2:	f5b1 6f80 	cmp.w	r1, #1024	; 0x400
 800b8e6:	d1f8      	bne.n	800b8da <rint+0x7e>
 800b8e8:	ec51 0b10 	vmov	r0, r1, d0
 800b8ec:	460b      	mov	r3, r1
 800b8ee:	f000 f8ef 	bl	800bad0 <__adddf3>
 800b8f2:	ec41 0b10 	vmov	d0, r0, r1
 800b8f6:	e7f0      	b.n	800b8da <rint+0x7e>
 800b8f8:	f2a0 4013 	subw	r0, r0, #1043	; 0x413
 800b8fc:	f04f 31ff 	mov.w	r1, #4294967295
 800b900:	40c1      	lsrs	r1, r0
 800b902:	4211      	tst	r1, r2
 800b904:	d0e9      	beq.n	800b8da <rint+0x7e>
 800b906:	0849      	lsrs	r1, r1, #1
 800b908:	4211      	tst	r1, r2
 800b90a:	d0d0      	beq.n	800b8ae <rint+0x52>
 800b90c:	f04f 4780 	mov.w	r7, #1073741824	; 0x40000000
 800b910:	ea22 0101 	bic.w	r1, r2, r1
 800b914:	fa47 f000 	asr.w	r0, r7, r0
 800b918:	ea41 0700 	orr.w	r7, r1, r0
 800b91c:	e7c7      	b.n	800b8ae <rint+0x52>
 800b91e:	f023 4100 	bic.w	r1, r3, #2147483648	; 0x80000000
 800b922:	4311      	orrs	r1, r2
 800b924:	d0d9      	beq.n	800b8da <rint+0x7e>
 800b926:	f3c3 0113 	ubfx	r1, r3, #0, #20
 800b92a:	430a      	orrs	r2, r1
 800b92c:	4254      	negs	r4, r2
 800b92e:	4314      	orrs	r4, r2
 800b930:	4811      	ldr	r0, [pc, #68]	; (800b978 <rint+0x11c>)
 800b932:	0c59      	lsrs	r1, r3, #17
 800b934:	0b24      	lsrs	r4, r4, #12
 800b936:	0449      	lsls	r1, r1, #17
 800b938:	f404 2400 	and.w	r4, r4, #524288	; 0x80000
 800b93c:	eb00 00c6 	add.w	r0, r0, r6, lsl #3
 800b940:	ec53 2b10 	vmov	r2, r3, d0
 800b944:	ea44 0301 	orr.w	r3, r4, r1
 800b948:	e9d0 4500 	ldrd	r4, r5, [r0]
 800b94c:	4620      	mov	r0, r4
 800b94e:	4629      	mov	r1, r5
 800b950:	f000 f8be 	bl	800bad0 <__adddf3>
 800b954:	e9cd 0100 	strd	r0, r1, [sp]
 800b958:	462b      	mov	r3, r5
 800b95a:	4622      	mov	r2, r4
 800b95c:	e9dd 0100 	ldrd	r0, r1, [sp]
 800b960:	f000 f8b4 	bl	800bacc <__aeabi_dsub>
 800b964:	f021 4300 	bic.w	r3, r1, #2147483648	; 0x80000000
 800b968:	ea43 71c6 	orr.w	r1, r3, r6, lsl #31
 800b96c:	ec41 0b10 	vmov	d0, r0, r1
 800b970:	e7b3      	b.n	800b8da <rint+0x7e>
 800b972:	bf00      	nop
 800b974:	000fffff 	.word	0x000fffff
 800b978:	0800dad8 	.word	0x0800dad8

0800b97c <finitef>:
finitef():
 800b97c:	ee10 3a10 	vmov	r3, s0
 800b980:	f023 4000 	bic.w	r0, r3, #2147483648	; 0x80000000
 800b984:	f1b0 4fff 	cmp.w	r0, #2139095040	; 0x7f800000
 800b988:	bfac      	ite	ge
 800b98a:	2000      	movge	r0, #0
 800b98c:	2001      	movlt	r0, #1
 800b98e:	4770      	bx	lr

0800b990 <__fpclassifyf>:
__fpclassifyf():
 800b990:	ee10 3a10 	vmov	r3, s0
 800b994:	f033 4000 	bics.w	r0, r3, #2147483648	; 0x80000000
 800b998:	d101      	bne.n	800b99e <__fpclassifyf+0xe>
 800b99a:	2002      	movs	r0, #2
 800b99c:	4770      	bx	lr
 800b99e:	f5a0 0300 	sub.w	r3, r0, #8388608	; 0x800000
 800b9a2:	f1b3 4ffe 	cmp.w	r3, #2130706432	; 0x7f000000
 800b9a6:	d201      	bcs.n	800b9ac <__fpclassifyf+0x1c>
 800b9a8:	2004      	movs	r0, #4
 800b9aa:	4770      	bx	lr
 800b9ac:	4b05      	ldr	r3, [pc, #20]	; (800b9c4 <__fpclassifyf+0x34>)
 800b9ae:	1e42      	subs	r2, r0, #1
 800b9b0:	429a      	cmp	r2, r3
 800b9b2:	d801      	bhi.n	800b9b8 <__fpclassifyf+0x28>
 800b9b4:	2003      	movs	r0, #3
 800b9b6:	4770      	bx	lr
 800b9b8:	f1b0 43ff 	subs.w	r3, r0, #2139095040	; 0x7f800000
 800b9bc:	4258      	negs	r0, r3
 800b9be:	4158      	adcs	r0, r3
 800b9c0:	4770      	bx	lr
 800b9c2:	bf00      	nop
 800b9c4:	007ffffe 	.word	0x007ffffe

0800b9c8 <nanf>:
nanf():
 800b9c8:	ed9f 0a01 	vldr	s0, [pc, #4]	; 800b9d0 <nanf+0x8>
 800b9cc:	4770      	bx	lr
 800b9ce:	bf00      	nop
 800b9d0:	7fc00000 	.word	0x7fc00000

0800b9d4 <scalbnf>:
scalbnf():
 800b9d4:	b508      	push	{r3, lr}
 800b9d6:	ee10 3a10 	vmov	r3, s0
 800b9da:	f033 4100 	bics.w	r1, r3, #2147483648	; 0x80000000
 800b9de:	ed2d 8b02 	vpush	{d8}
 800b9e2:	ee10 2a10 	vmov	r2, s0
 800b9e6:	d011      	beq.n	800ba0c <scalbnf+0x38>
 800b9e8:	f1b1 4fff 	cmp.w	r1, #2139095040	; 0x7f800000
 800b9ec:	d211      	bcs.n	800ba12 <scalbnf+0x3e>
 800b9ee:	f5b1 0f00 	cmp.w	r1, #8388608	; 0x800000
 800b9f2:	d313      	bcc.n	800ba1c <scalbnf+0x48>
 800b9f4:	0dc9      	lsrs	r1, r1, #23
 800b9f6:	4401      	add	r1, r0
 800b9f8:	29fe      	cmp	r1, #254	; 0xfe
 800b9fa:	dc30      	bgt.n	800ba5e <scalbnf+0x8a>
 800b9fc:	2900      	cmp	r1, #0
 800b9fe:	dd1c      	ble.n	800ba3a <scalbnf+0x66>
 800ba00:	f022 42ff 	bic.w	r2, r2, #2139095040	; 0x7f800000
 800ba04:	ea42 52c1 	orr.w	r2, r2, r1, lsl #23
 800ba08:	ee00 2a10 	vmov	s0, r2
 800ba0c:	ecbd 8b02 	vpop	{d8}
 800ba10:	bd08      	pop	{r3, pc}
 800ba12:	ecbd 8b02 	vpop	{d8}
 800ba16:	ee30 0a00 	vadd.f32	s0, s0, s0
 800ba1a:	bd08      	pop	{r3, pc}
 800ba1c:	eddf 7a1e 	vldr	s15, [pc, #120]	; 800ba98 <scalbnf+0xc4>
 800ba20:	4a1e      	ldr	r2, [pc, #120]	; (800ba9c <scalbnf+0xc8>)
 800ba22:	ee20 7a27 	vmul.f32	s14, s0, s15
 800ba26:	4290      	cmp	r0, r2
 800ba28:	ee17 3a10 	vmov	r3, s14
 800ba2c:	db22      	blt.n	800ba74 <scalbnf+0xa0>
 800ba2e:	f3c3 51c7 	ubfx	r1, r3, #23, #8
 800ba32:	ee17 2a10 	vmov	r2, s14
 800ba36:	3919      	subs	r1, #25
 800ba38:	e7dd      	b.n	800b9f6 <scalbnf+0x22>
 800ba3a:	f111 0f16 	cmn.w	r1, #22
 800ba3e:	da1e      	bge.n	800ba7e <scalbnf+0xaa>
 800ba40:	f24c 3250 	movw	r2, #50000	; 0xc350
 800ba44:	4290      	cmp	r0, r2
 800ba46:	dc0a      	bgt.n	800ba5e <scalbnf+0x8a>
 800ba48:	ed9f 8a15 	vldr	s16, [pc, #84]	; 800baa0 <scalbnf+0xcc>
 800ba4c:	ee00 3a90 	vmov	s1, r3
 800ba50:	eeb0 0a48 	vmov.f32	s0, s16
 800ba54:	f000 f82a 	bl	800baac <copysignf>
 800ba58:	ee20 0a08 	vmul.f32	s0, s0, s16
 800ba5c:	e7d6      	b.n	800ba0c <scalbnf+0x38>
 800ba5e:	ed9f 8a11 	vldr	s16, [pc, #68]	; 800baa4 <scalbnf+0xd0>
 800ba62:	ee00 3a90 	vmov	s1, r3
 800ba66:	eeb0 0a48 	vmov.f32	s0, s16
 800ba6a:	f000 f81f 	bl	800baac <copysignf>
 800ba6e:	ee20 0a08 	vmul.f32	s0, s0, s16
 800ba72:	e7cb      	b.n	800ba0c <scalbnf+0x38>
 800ba74:	ed9f 0a0a 	vldr	s0, [pc, #40]	; 800baa0 <scalbnf+0xcc>
 800ba78:	ee27 0a00 	vmul.f32	s0, s14, s0
 800ba7c:	e7c6      	b.n	800ba0c <scalbnf+0x38>
 800ba7e:	3119      	adds	r1, #25
 800ba80:	f022 42ff 	bic.w	r2, r2, #2139095040	; 0x7f800000
 800ba84:	ea42 52c1 	orr.w	r2, r2, r1, lsl #23
 800ba88:	eddf 7a07 	vldr	s15, [pc, #28]	; 800baa8 <scalbnf+0xd4>
 800ba8c:	ee07 2a10 	vmov	s14, r2
 800ba90:	ee27 0a27 	vmul.f32	s0, s14, s15
 800ba94:	e7ba      	b.n	800ba0c <scalbnf+0x38>
 800ba96:	bf00      	nop
 800ba98:	4c000000 	.word	0x4c000000
 800ba9c:	ffff3cb0 	.word	0xffff3cb0
 800baa0:	0da24260 	.word	0x0da24260
 800baa4:	7149f2ca 	.word	0x7149f2ca
 800baa8:	33000000 	.word	0x33000000

0800baac <copysignf>:
copysignf():
 800baac:	ee10 1a10 	vmov	r1, s0
 800bab0:	f021 4200 	bic.w	r2, r1, #2147483648	; 0x80000000
 800bab4:	ee10 1a90 	vmov	r1, s1
 800bab8:	f001 4300 	and.w	r3, r1, #2147483648	; 0x80000000
 800babc:	4313      	orrs	r3, r2
 800babe:	ee00 3a10 	vmov	s0, r3
 800bac2:	4770      	bx	lr

0800bac4 <__aeabi_drsub>:
$t():
 800bac4:	f081 4100 	eor.w	r1, r1, #2147483648	; 0x80000000
 800bac8:	e002      	b.n	800bad0 <__adddf3>
 800baca:	bf00      	nop

0800bacc <__aeabi_dsub>:
__aeabi_dsub():
 800bacc:	f083 4300 	eor.w	r3, r3, #2147483648	; 0x80000000

0800bad0 <__adddf3>:
 800bad0:	b530      	push	{r4, r5, lr}
 800bad2:	ea4f 0441 	mov.w	r4, r1, lsl #1
 800bad6:	ea4f 0543 	mov.w	r5, r3, lsl #1
 800bada:	ea94 0f05 	teq	r4, r5
 800bade:	bf08      	it	eq
 800bae0:	ea90 0f02 	teqeq	r0, r2
 800bae4:	bf1f      	itttt	ne
 800bae6:	ea54 0c00 	orrsne.w	ip, r4, r0
 800baea:	ea55 0c02 	orrsne.w	ip, r5, r2
 800baee:	ea7f 5c64 	mvnsne.w	ip, r4, asr #21
 800baf2:	ea7f 5c65 	mvnsne.w	ip, r5, asr #21
 800baf6:	f000 80e2 	beq.w	800bcbe <__adddf3+0x1ee>
 800bafa:	ea4f 5454 	mov.w	r4, r4, lsr #21
 800bafe:	ebd4 5555 	rsbs	r5, r4, r5, lsr #21
 800bb02:	bfb8      	it	lt
 800bb04:	426d      	neglt	r5, r5
 800bb06:	dd0c      	ble.n	800bb22 <__adddf3+0x52>
 800bb08:	442c      	add	r4, r5
 800bb0a:	ea80 0202 	eor.w	r2, r0, r2
 800bb0e:	ea81 0303 	eor.w	r3, r1, r3
 800bb12:	ea82 0000 	eor.w	r0, r2, r0
 800bb16:	ea83 0101 	eor.w	r1, r3, r1
 800bb1a:	ea80 0202 	eor.w	r2, r0, r2
 800bb1e:	ea81 0303 	eor.w	r3, r1, r3
 800bb22:	2d36      	cmp	r5, #54	; 0x36
 800bb24:	bf88      	it	hi
 800bb26:	bd30      	pophi	{r4, r5, pc}
 800bb28:	f011 4f00 	tst.w	r1, #2147483648	; 0x80000000
 800bb2c:	ea4f 3101 	mov.w	r1, r1, lsl #12
 800bb30:	f44f 1c80 	mov.w	ip, #1048576	; 0x100000
 800bb34:	ea4c 3111 	orr.w	r1, ip, r1, lsr #12
 800bb38:	d002      	beq.n	800bb40 <__adddf3+0x70>
 800bb3a:	4240      	negs	r0, r0
 800bb3c:	eb61 0141 	sbc.w	r1, r1, r1, lsl #1
 800bb40:	f013 4f00 	tst.w	r3, #2147483648	; 0x80000000
 800bb44:	ea4f 3303 	mov.w	r3, r3, lsl #12
 800bb48:	ea4c 3313 	orr.w	r3, ip, r3, lsr #12
 800bb4c:	d002      	beq.n	800bb54 <__adddf3+0x84>
 800bb4e:	4252      	negs	r2, r2
 800bb50:	eb63 0343 	sbc.w	r3, r3, r3, lsl #1
 800bb54:	ea94 0f05 	teq	r4, r5
 800bb58:	f000 80a7 	beq.w	800bcaa <__adddf3+0x1da>
 800bb5c:	f1a4 0401 	sub.w	r4, r4, #1
 800bb60:	f1d5 0e20 	rsbs	lr, r5, #32
 800bb64:	db0d      	blt.n	800bb82 <__adddf3+0xb2>
 800bb66:	fa02 fc0e 	lsl.w	ip, r2, lr
 800bb6a:	fa22 f205 	lsr.w	r2, r2, r5
 800bb6e:	1880      	adds	r0, r0, r2
 800bb70:	f141 0100 	adc.w	r1, r1, #0
 800bb74:	fa03 f20e 	lsl.w	r2, r3, lr
 800bb78:	1880      	adds	r0, r0, r2
 800bb7a:	fa43 f305 	asr.w	r3, r3, r5
 800bb7e:	4159      	adcs	r1, r3
 800bb80:	e00e      	b.n	800bba0 <__adddf3+0xd0>
 800bb82:	f1a5 0520 	sub.w	r5, r5, #32
 800bb86:	f10e 0e20 	add.w	lr, lr, #32
 800bb8a:	2a01      	cmp	r2, #1
 800bb8c:	fa03 fc0e 	lsl.w	ip, r3, lr
 800bb90:	bf28      	it	cs
 800bb92:	f04c 0c02 	orrcs.w	ip, ip, #2
 800bb96:	fa43 f305 	asr.w	r3, r3, r5
 800bb9a:	18c0      	adds	r0, r0, r3
 800bb9c:	eb51 71e3 	adcs.w	r1, r1, r3, asr #31
 800bba0:	f001 4500 	and.w	r5, r1, #2147483648	; 0x80000000
 800bba4:	d507      	bpl.n	800bbb6 <__adddf3+0xe6>
 800bba6:	f04f 0e00 	mov.w	lr, #0
 800bbaa:	f1dc 0c00 	rsbs	ip, ip, #0
 800bbae:	eb7e 0000 	sbcs.w	r0, lr, r0
 800bbb2:	eb6e 0101 	sbc.w	r1, lr, r1
 800bbb6:	f5b1 1f80 	cmp.w	r1, #1048576	; 0x100000
 800bbba:	d31b      	bcc.n	800bbf4 <__adddf3+0x124>
 800bbbc:	f5b1 1f00 	cmp.w	r1, #2097152	; 0x200000
 800bbc0:	d30c      	bcc.n	800bbdc <__adddf3+0x10c>
 800bbc2:	0849      	lsrs	r1, r1, #1
 800bbc4:	ea5f 0030 	movs.w	r0, r0, rrx
 800bbc8:	ea4f 0c3c 	mov.w	ip, ip, rrx
 800bbcc:	f104 0401 	add.w	r4, r4, #1
 800bbd0:	ea4f 5244 	mov.w	r2, r4, lsl #21
 800bbd4:	f512 0f80 	cmn.w	r2, #4194304	; 0x400000
 800bbd8:	f080 809a 	bcs.w	800bd10 <__adddf3+0x240>
 800bbdc:	f1bc 4f00 	cmp.w	ip, #2147483648	; 0x80000000
 800bbe0:	bf08      	it	eq
 800bbe2:	ea5f 0c50 	movseq.w	ip, r0, lsr #1
 800bbe6:	f150 0000 	adcs.w	r0, r0, #0
 800bbea:	eb41 5104 	adc.w	r1, r1, r4, lsl #20
 800bbee:	ea41 0105 	orr.w	r1, r1, r5
 800bbf2:	bd30      	pop	{r4, r5, pc}
 800bbf4:	ea5f 0c4c 	movs.w	ip, ip, lsl #1
 800bbf8:	4140      	adcs	r0, r0
 800bbfa:	eb41 0101 	adc.w	r1, r1, r1
 800bbfe:	f411 1f80 	tst.w	r1, #1048576	; 0x100000
 800bc02:	f1a4 0401 	sub.w	r4, r4, #1
 800bc06:	d1e9      	bne.n	800bbdc <__adddf3+0x10c>
 800bc08:	f091 0f00 	teq	r1, #0
 800bc0c:	bf04      	itt	eq
 800bc0e:	4601      	moveq	r1, r0
 800bc10:	2000      	moveq	r0, #0
 800bc12:	fab1 f381 	clz	r3, r1
 800bc16:	bf08      	it	eq
 800bc18:	3320      	addeq	r3, #32
 800bc1a:	f1a3 030b 	sub.w	r3, r3, #11
 800bc1e:	f1b3 0220 	subs.w	r2, r3, #32
 800bc22:	da0c      	bge.n	800bc3e <__adddf3+0x16e>
 800bc24:	320c      	adds	r2, #12
 800bc26:	dd08      	ble.n	800bc3a <__adddf3+0x16a>
 800bc28:	f102 0c14 	add.w	ip, r2, #20
 800bc2c:	f1c2 020c 	rsb	r2, r2, #12
 800bc30:	fa01 f00c 	lsl.w	r0, r1, ip
 800bc34:	fa21 f102 	lsr.w	r1, r1, r2
 800bc38:	e00c      	b.n	800bc54 <__adddf3+0x184>
 800bc3a:	f102 0214 	add.w	r2, r2, #20
 800bc3e:	bfd8      	it	le
 800bc40:	f1c2 0c20 	rsble	ip, r2, #32
 800bc44:	fa01 f102 	lsl.w	r1, r1, r2
 800bc48:	fa20 fc0c 	lsr.w	ip, r0, ip
 800bc4c:	bfdc      	itt	le
 800bc4e:	ea41 010c 	orrle.w	r1, r1, ip
 800bc52:	4090      	lslle	r0, r2
 800bc54:	1ae4      	subs	r4, r4, r3
 800bc56:	bfa2      	ittt	ge
 800bc58:	eb01 5104 	addge.w	r1, r1, r4, lsl #20
 800bc5c:	4329      	orrge	r1, r5
 800bc5e:	bd30      	popge	{r4, r5, pc}
 800bc60:	ea6f 0404 	mvn.w	r4, r4
 800bc64:	3c1f      	subs	r4, #31
 800bc66:	da1c      	bge.n	800bca2 <__adddf3+0x1d2>
 800bc68:	340c      	adds	r4, #12
 800bc6a:	dc0e      	bgt.n	800bc8a <__adddf3+0x1ba>
 800bc6c:	f104 0414 	add.w	r4, r4, #20
 800bc70:	f1c4 0220 	rsb	r2, r4, #32
 800bc74:	fa20 f004 	lsr.w	r0, r0, r4
 800bc78:	fa01 f302 	lsl.w	r3, r1, r2
 800bc7c:	ea40 0003 	orr.w	r0, r0, r3
 800bc80:	fa21 f304 	lsr.w	r3, r1, r4
 800bc84:	ea45 0103 	orr.w	r1, r5, r3
 800bc88:	bd30      	pop	{r4, r5, pc}
 800bc8a:	f1c4 040c 	rsb	r4, r4, #12
 800bc8e:	f1c4 0220 	rsb	r2, r4, #32
 800bc92:	fa20 f002 	lsr.w	r0, r0, r2
 800bc96:	fa01 f304 	lsl.w	r3, r1, r4
 800bc9a:	ea40 0003 	orr.w	r0, r0, r3
 800bc9e:	4629      	mov	r1, r5
 800bca0:	bd30      	pop	{r4, r5, pc}
 800bca2:	fa21 f004 	lsr.w	r0, r1, r4
 800bca6:	4629      	mov	r1, r5
 800bca8:	bd30      	pop	{r4, r5, pc}
 800bcaa:	f094 0f00 	teq	r4, #0
 800bcae:	f483 1380 	eor.w	r3, r3, #1048576	; 0x100000
 800bcb2:	bf06      	itte	eq
 800bcb4:	f481 1180 	eoreq.w	r1, r1, #1048576	; 0x100000
 800bcb8:	3401      	addeq	r4, #1
 800bcba:	3d01      	subne	r5, #1
 800bcbc:	e74e      	b.n	800bb5c <__adddf3+0x8c>
 800bcbe:	ea7f 5c64 	mvns.w	ip, r4, asr #21
 800bcc2:	bf18      	it	ne
 800bcc4:	ea7f 5c65 	mvnsne.w	ip, r5, asr #21
 800bcc8:	d029      	beq.n	800bd1e <__adddf3+0x24e>
 800bcca:	ea94 0f05 	teq	r4, r5
 800bcce:	bf08      	it	eq
 800bcd0:	ea90 0f02 	teqeq	r0, r2
 800bcd4:	d005      	beq.n	800bce2 <__adddf3+0x212>
 800bcd6:	ea54 0c00 	orrs.w	ip, r4, r0
 800bcda:	bf04      	itt	eq
 800bcdc:	4619      	moveq	r1, r3
 800bcde:	4610      	moveq	r0, r2
 800bce0:	bd30      	pop	{r4, r5, pc}
 800bce2:	ea91 0f03 	teq	r1, r3
 800bce6:	bf1e      	ittt	ne
 800bce8:	2100      	movne	r1, #0
 800bcea:	2000      	movne	r0, #0
 800bcec:	bd30      	popne	{r4, r5, pc}
 800bcee:	ea5f 5c54 	movs.w	ip, r4, lsr #21
 800bcf2:	d105      	bne.n	800bd00 <__adddf3+0x230>
 800bcf4:	0040      	lsls	r0, r0, #1
 800bcf6:	4149      	adcs	r1, r1
 800bcf8:	bf28      	it	cs
 800bcfa:	f041 4100 	orrcs.w	r1, r1, #2147483648	; 0x80000000
 800bcfe:	bd30      	pop	{r4, r5, pc}
 800bd00:	f514 0480 	adds.w	r4, r4, #4194304	; 0x400000
 800bd04:	bf3c      	itt	cc
 800bd06:	f501 1180 	addcc.w	r1, r1, #1048576	; 0x100000
 800bd0a:	bd30      	popcc	{r4, r5, pc}
 800bd0c:	f001 4500 	and.w	r5, r1, #2147483648	; 0x80000000
 800bd10:	f045 41fe 	orr.w	r1, r5, #2130706432	; 0x7f000000
 800bd14:	f441 0170 	orr.w	r1, r1, #15728640	; 0xf00000
 800bd18:	f04f 0000 	mov.w	r0, #0
 800bd1c:	bd30      	pop	{r4, r5, pc}
 800bd1e:	ea7f 5c64 	mvns.w	ip, r4, asr #21
 800bd22:	bf1a      	itte	ne
 800bd24:	4619      	movne	r1, r3
 800bd26:	4610      	movne	r0, r2
 800bd28:	ea7f 5c65 	mvnseq.w	ip, r5, asr #21
 800bd2c:	bf1c      	itt	ne
 800bd2e:	460b      	movne	r3, r1
 800bd30:	4602      	movne	r2, r0
 800bd32:	ea50 3401 	orrs.w	r4, r0, r1, lsl #12
 800bd36:	bf06      	itte	eq
 800bd38:	ea52 3503 	orrseq.w	r5, r2, r3, lsl #12
 800bd3c:	ea91 0f03 	teqeq	r1, r3
 800bd40:	f441 2100 	orrne.w	r1, r1, #524288	; 0x80000
 800bd44:	bd30      	pop	{r4, r5, pc}
__adddf3():
 800bd46:	bf00      	nop

0800bd48 <__aeabi_ui2d>:
__aeabi_ui2d():
 800bd48:	f090 0f00 	teq	r0, #0
 800bd4c:	bf04      	itt	eq
 800bd4e:	2100      	moveq	r1, #0
 800bd50:	4770      	bxeq	lr
 800bd52:	b530      	push	{r4, r5, lr}
 800bd54:	f44f 6480 	mov.w	r4, #1024	; 0x400
 800bd58:	f104 0432 	add.w	r4, r4, #50	; 0x32
 800bd5c:	f04f 0500 	mov.w	r5, #0
 800bd60:	f04f 0100 	mov.w	r1, #0
 800bd64:	e750      	b.n	800bc08 <__adddf3+0x138>
 800bd66:	bf00      	nop

0800bd68 <__aeabi_i2d>:
__floatsidf():
 800bd68:	f090 0f00 	teq	r0, #0
 800bd6c:	bf04      	itt	eq
 800bd6e:	2100      	moveq	r1, #0
 800bd70:	4770      	bxeq	lr
 800bd72:	b530      	push	{r4, r5, lr}
 800bd74:	f44f 6480 	mov.w	r4, #1024	; 0x400
 800bd78:	f104 0432 	add.w	r4, r4, #50	; 0x32
 800bd7c:	f010 4500 	ands.w	r5, r0, #2147483648	; 0x80000000
 800bd80:	bf48      	it	mi
 800bd82:	4240      	negmi	r0, r0
 800bd84:	f04f 0100 	mov.w	r1, #0
 800bd88:	e73e      	b.n	800bc08 <__adddf3+0x138>
 800bd8a:	bf00      	nop

0800bd8c <__aeabi_f2d>:
__extendsfdf2():
 800bd8c:	0042      	lsls	r2, r0, #1
 800bd8e:	ea4f 01e2 	mov.w	r1, r2, asr #3
 800bd92:	ea4f 0131 	mov.w	r1, r1, rrx
 800bd96:	ea4f 7002 	mov.w	r0, r2, lsl #28
 800bd9a:	bf1f      	itttt	ne
 800bd9c:	f012 437f 	andsne.w	r3, r2, #4278190080	; 0xff000000
 800bda0:	f093 4f7f 	teqne	r3, #4278190080	; 0xff000000
 800bda4:	f081 5160 	eorne.w	r1, r1, #939524096	; 0x38000000
 800bda8:	4770      	bxne	lr
 800bdaa:	f092 0f00 	teq	r2, #0
 800bdae:	bf14      	ite	ne
 800bdb0:	f093 4f7f 	teqne	r3, #4278190080	; 0xff000000
 800bdb4:	4770      	bxeq	lr
 800bdb6:	b530      	push	{r4, r5, lr}
 800bdb8:	f44f 7460 	mov.w	r4, #896	; 0x380
 800bdbc:	f001 4500 	and.w	r5, r1, #2147483648	; 0x80000000
 800bdc0:	f021 4100 	bic.w	r1, r1, #2147483648	; 0x80000000
 800bdc4:	e720      	b.n	800bc08 <__adddf3+0x138>
 800bdc6:	bf00      	nop

0800bdc8 <__aeabi_ul2d>:
__aeabi_ul2d():
 800bdc8:	ea50 0201 	orrs.w	r2, r0, r1
 800bdcc:	bf08      	it	eq
 800bdce:	4770      	bxeq	lr
 800bdd0:	b530      	push	{r4, r5, lr}
 800bdd2:	f04f 0500 	mov.w	r5, #0
 800bdd6:	e00a      	b.n	800bdee <__aeabi_l2d+0x16>

0800bdd8 <__aeabi_l2d>:
 800bdd8:	ea50 0201 	orrs.w	r2, r0, r1
 800bddc:	bf08      	it	eq
 800bdde:	4770      	bxeq	lr
 800bde0:	b530      	push	{r4, r5, lr}
 800bde2:	f011 4500 	ands.w	r5, r1, #2147483648	; 0x80000000
 800bde6:	d502      	bpl.n	800bdee <__aeabi_l2d+0x16>
 800bde8:	4240      	negs	r0, r0
 800bdea:	eb61 0141 	sbc.w	r1, r1, r1, lsl #1
 800bdee:	f44f 6480 	mov.w	r4, #1024	; 0x400
 800bdf2:	f104 0432 	add.w	r4, r4, #50	; 0x32
 800bdf6:	ea5f 5c91 	movs.w	ip, r1, lsr #22
 800bdfa:	f43f aedc 	beq.w	800bbb6 <__adddf3+0xe6>
 800bdfe:	f04f 0203 	mov.w	r2, #3
 800be02:	ea5f 0cdc 	movs.w	ip, ip, lsr #3
 800be06:	bf18      	it	ne
 800be08:	3203      	addne	r2, #3
 800be0a:	ea5f 0cdc 	movs.w	ip, ip, lsr #3
 800be0e:	bf18      	it	ne
 800be10:	3203      	addne	r2, #3
 800be12:	eb02 02dc 	add.w	r2, r2, ip, lsr #3
 800be16:	f1c2 0320 	rsb	r3, r2, #32
 800be1a:	fa00 fc03 	lsl.w	ip, r0, r3
 800be1e:	fa20 f002 	lsr.w	r0, r0, r2
 800be22:	fa01 fe03 	lsl.w	lr, r1, r3
 800be26:	ea40 000e 	orr.w	r0, r0, lr
 800be2a:	fa21 f102 	lsr.w	r1, r1, r2
 800be2e:	4414      	add	r4, r2
 800be30:	e6c1      	b.n	800bbb6 <__adddf3+0xe6>
__floatdidf():
 800be32:	bf00      	nop

0800be34 <__aeabi_dmul>:
__aeabi_dmul():
 800be34:	b570      	push	{r4, r5, r6, lr}
 800be36:	f04f 0cff 	mov.w	ip, #255	; 0xff
 800be3a:	f44c 6ce0 	orr.w	ip, ip, #1792	; 0x700
 800be3e:	ea1c 5411 	ands.w	r4, ip, r1, lsr #20
 800be42:	bf1d      	ittte	ne
 800be44:	ea1c 5513 	andsne.w	r5, ip, r3, lsr #20
 800be48:	ea94 0f0c 	teqne	r4, ip
 800be4c:	ea95 0f0c 	teqne	r5, ip
 800be50:	f000 f8de 	bleq	800c010 <__aeabi_dmul+0x1dc>
 800be54:	442c      	add	r4, r5
 800be56:	ea81 0603 	eor.w	r6, r1, r3
 800be5a:	ea21 514c 	bic.w	r1, r1, ip, lsl #21
 800be5e:	ea23 534c 	bic.w	r3, r3, ip, lsl #21
 800be62:	ea50 3501 	orrs.w	r5, r0, r1, lsl #12
 800be66:	bf18      	it	ne
 800be68:	ea52 3503 	orrsne.w	r5, r2, r3, lsl #12
 800be6c:	f441 1180 	orr.w	r1, r1, #1048576	; 0x100000
 800be70:	f443 1380 	orr.w	r3, r3, #1048576	; 0x100000
 800be74:	d038      	beq.n	800bee8 <__aeabi_dmul+0xb4>
 800be76:	fba0 ce02 	umull	ip, lr, r0, r2
 800be7a:	f04f 0500 	mov.w	r5, #0
 800be7e:	fbe1 e502 	umlal	lr, r5, r1, r2
 800be82:	f006 4200 	and.w	r2, r6, #2147483648	; 0x80000000
 800be86:	fbe0 e503 	umlal	lr, r5, r0, r3
 800be8a:	f04f 0600 	mov.w	r6, #0
 800be8e:	fbe1 5603 	umlal	r5, r6, r1, r3
 800be92:	f09c 0f00 	teq	ip, #0
 800be96:	bf18      	it	ne
 800be98:	f04e 0e01 	orrne.w	lr, lr, #1
 800be9c:	f1a4 04ff 	sub.w	r4, r4, #255	; 0xff
 800bea0:	f5b6 7f00 	cmp.w	r6, #512	; 0x200
 800bea4:	f564 7440 	sbc.w	r4, r4, #768	; 0x300
 800bea8:	d204      	bcs.n	800beb4 <__aeabi_dmul+0x80>
 800beaa:	ea5f 0e4e 	movs.w	lr, lr, lsl #1
 800beae:	416d      	adcs	r5, r5
 800beb0:	eb46 0606 	adc.w	r6, r6, r6
 800beb4:	ea42 21c6 	orr.w	r1, r2, r6, lsl #11
 800beb8:	ea41 5155 	orr.w	r1, r1, r5, lsr #21
 800bebc:	ea4f 20c5 	mov.w	r0, r5, lsl #11
 800bec0:	ea40 505e 	orr.w	r0, r0, lr, lsr #21
 800bec4:	ea4f 2ece 	mov.w	lr, lr, lsl #11
 800bec8:	f1b4 0cfd 	subs.w	ip, r4, #253	; 0xfd
 800becc:	bf88      	it	hi
 800bece:	f5bc 6fe0 	cmphi.w	ip, #1792	; 0x700
 800bed2:	d81e      	bhi.n	800bf12 <__aeabi_dmul+0xde>
 800bed4:	f1be 4f00 	cmp.w	lr, #2147483648	; 0x80000000
 800bed8:	bf08      	it	eq
 800beda:	ea5f 0e50 	movseq.w	lr, r0, lsr #1
 800bede:	f150 0000 	adcs.w	r0, r0, #0
 800bee2:	eb41 5104 	adc.w	r1, r1, r4, lsl #20
 800bee6:	bd70      	pop	{r4, r5, r6, pc}
 800bee8:	f006 4600 	and.w	r6, r6, #2147483648	; 0x80000000
 800beec:	ea46 0101 	orr.w	r1, r6, r1
 800bef0:	ea40 0002 	orr.w	r0, r0, r2
 800bef4:	ea81 0103 	eor.w	r1, r1, r3
 800bef8:	ebb4 045c 	subs.w	r4, r4, ip, lsr #1
 800befc:	bfc2      	ittt	gt
 800befe:	ebd4 050c 	rsbsgt	r5, r4, ip
 800bf02:	ea41 5104 	orrgt.w	r1, r1, r4, lsl #20
 800bf06:	bd70      	popgt	{r4, r5, r6, pc}
 800bf08:	f441 1180 	orr.w	r1, r1, #1048576	; 0x100000
 800bf0c:	f04f 0e00 	mov.w	lr, #0
 800bf10:	3c01      	subs	r4, #1
 800bf12:	f300 80ab 	bgt.w	800c06c <__aeabi_dmul+0x238>
 800bf16:	f114 0f36 	cmn.w	r4, #54	; 0x36
 800bf1a:	bfde      	ittt	le
 800bf1c:	2000      	movle	r0, #0
 800bf1e:	f001 4100 	andle.w	r1, r1, #2147483648	; 0x80000000
 800bf22:	bd70      	pople	{r4, r5, r6, pc}
 800bf24:	f1c4 0400 	rsb	r4, r4, #0
 800bf28:	3c20      	subs	r4, #32
 800bf2a:	da35      	bge.n	800bf98 <__aeabi_dmul+0x164>
 800bf2c:	340c      	adds	r4, #12
 800bf2e:	dc1b      	bgt.n	800bf68 <__aeabi_dmul+0x134>
 800bf30:	f104 0414 	add.w	r4, r4, #20
 800bf34:	f1c4 0520 	rsb	r5, r4, #32
 800bf38:	fa00 f305 	lsl.w	r3, r0, r5
 800bf3c:	fa20 f004 	lsr.w	r0, r0, r4
 800bf40:	fa01 f205 	lsl.w	r2, r1, r5
 800bf44:	ea40 0002 	orr.w	r0, r0, r2
 800bf48:	f001 4200 	and.w	r2, r1, #2147483648	; 0x80000000
 800bf4c:	f021 4100 	bic.w	r1, r1, #2147483648	; 0x80000000
 800bf50:	eb10 70d3 	adds.w	r0, r0, r3, lsr #31
 800bf54:	fa21 f604 	lsr.w	r6, r1, r4
 800bf58:	eb42 0106 	adc.w	r1, r2, r6
 800bf5c:	ea5e 0e43 	orrs.w	lr, lr, r3, lsl #1
 800bf60:	bf08      	it	eq
 800bf62:	ea20 70d3 	biceq.w	r0, r0, r3, lsr #31
 800bf66:	bd70      	pop	{r4, r5, r6, pc}
 800bf68:	f1c4 040c 	rsb	r4, r4, #12
 800bf6c:	f1c4 0520 	rsb	r5, r4, #32
 800bf70:	fa00 f304 	lsl.w	r3, r0, r4
 800bf74:	fa20 f005 	lsr.w	r0, r0, r5
 800bf78:	fa01 f204 	lsl.w	r2, r1, r4
 800bf7c:	ea40 0002 	orr.w	r0, r0, r2
 800bf80:	f001 4100 	and.w	r1, r1, #2147483648	; 0x80000000
 800bf84:	eb10 70d3 	adds.w	r0, r0, r3, lsr #31
 800bf88:	f141 0100 	adc.w	r1, r1, #0
 800bf8c:	ea5e 0e43 	orrs.w	lr, lr, r3, lsl #1
 800bf90:	bf08      	it	eq
 800bf92:	ea20 70d3 	biceq.w	r0, r0, r3, lsr #31
 800bf96:	bd70      	pop	{r4, r5, r6, pc}
 800bf98:	f1c4 0520 	rsb	r5, r4, #32
 800bf9c:	fa00 f205 	lsl.w	r2, r0, r5
 800bfa0:	ea4e 0e02 	orr.w	lr, lr, r2
 800bfa4:	fa20 f304 	lsr.w	r3, r0, r4
 800bfa8:	fa01 f205 	lsl.w	r2, r1, r5
 800bfac:	ea43 0302 	orr.w	r3, r3, r2
 800bfb0:	fa21 f004 	lsr.w	r0, r1, r4
 800bfb4:	f001 4100 	and.w	r1, r1, #2147483648	; 0x80000000
 800bfb8:	fa21 f204 	lsr.w	r2, r1, r4
 800bfbc:	ea20 0002 	bic.w	r0, r0, r2
 800bfc0:	eb00 70d3 	add.w	r0, r0, r3, lsr #31
 800bfc4:	ea5e 0e43 	orrs.w	lr, lr, r3, lsl #1
 800bfc8:	bf08      	it	eq
 800bfca:	ea20 70d3 	biceq.w	r0, r0, r3, lsr #31
 800bfce:	bd70      	pop	{r4, r5, r6, pc}
 800bfd0:	f094 0f00 	teq	r4, #0
 800bfd4:	d10f      	bne.n	800bff6 <__aeabi_dmul+0x1c2>
 800bfd6:	f001 4600 	and.w	r6, r1, #2147483648	; 0x80000000
 800bfda:	0040      	lsls	r0, r0, #1
 800bfdc:	eb41 0101 	adc.w	r1, r1, r1
 800bfe0:	f411 1f80 	tst.w	r1, #1048576	; 0x100000
 800bfe4:	bf08      	it	eq
 800bfe6:	3c01      	subeq	r4, #1
 800bfe8:	d0f7      	beq.n	800bfda <__aeabi_dmul+0x1a6>
 800bfea:	ea41 0106 	orr.w	r1, r1, r6
 800bfee:	f095 0f00 	teq	r5, #0
 800bff2:	bf18      	it	ne
 800bff4:	4770      	bxne	lr
 800bff6:	f003 4600 	and.w	r6, r3, #2147483648	; 0x80000000
 800bffa:	0052      	lsls	r2, r2, #1
 800bffc:	eb43 0303 	adc.w	r3, r3, r3
 800c000:	f413 1f80 	tst.w	r3, #1048576	; 0x100000
 800c004:	bf08      	it	eq
 800c006:	3d01      	subeq	r5, #1
 800c008:	d0f7      	beq.n	800bffa <__aeabi_dmul+0x1c6>
 800c00a:	ea43 0306 	orr.w	r3, r3, r6
 800c00e:	4770      	bx	lr
 800c010:	ea94 0f0c 	teq	r4, ip
 800c014:	ea0c 5513 	and.w	r5, ip, r3, lsr #20
 800c018:	bf18      	it	ne
 800c01a:	ea95 0f0c 	teqne	r5, ip
 800c01e:	d00c      	beq.n	800c03a <__aeabi_dmul+0x206>
 800c020:	ea50 0641 	orrs.w	r6, r0, r1, lsl #1
 800c024:	bf18      	it	ne
 800c026:	ea52 0643 	orrsne.w	r6, r2, r3, lsl #1
 800c02a:	d1d1      	bne.n	800bfd0 <__aeabi_dmul+0x19c>
 800c02c:	ea81 0103 	eor.w	r1, r1, r3
 800c030:	f001 4100 	and.w	r1, r1, #2147483648	; 0x80000000
 800c034:	f04f 0000 	mov.w	r0, #0
 800c038:	bd70      	pop	{r4, r5, r6, pc}
 800c03a:	ea50 0641 	orrs.w	r6, r0, r1, lsl #1
 800c03e:	bf06      	itte	eq
 800c040:	4610      	moveq	r0, r2
 800c042:	4619      	moveq	r1, r3
 800c044:	ea52 0643 	orrsne.w	r6, r2, r3, lsl #1
 800c048:	d019      	beq.n	800c07e <__aeabi_dmul+0x24a>
 800c04a:	ea94 0f0c 	teq	r4, ip
 800c04e:	d102      	bne.n	800c056 <__aeabi_dmul+0x222>
 800c050:	ea50 3601 	orrs.w	r6, r0, r1, lsl #12
 800c054:	d113      	bne.n	800c07e <__aeabi_dmul+0x24a>
 800c056:	ea95 0f0c 	teq	r5, ip
 800c05a:	d105      	bne.n	800c068 <__aeabi_dmul+0x234>
 800c05c:	ea52 3603 	orrs.w	r6, r2, r3, lsl #12
 800c060:	bf1c      	itt	ne
 800c062:	4610      	movne	r0, r2
 800c064:	4619      	movne	r1, r3
 800c066:	d10a      	bne.n	800c07e <__aeabi_dmul+0x24a>
 800c068:	ea81 0103 	eor.w	r1, r1, r3
 800c06c:	f001 4100 	and.w	r1, r1, #2147483648	; 0x80000000
 800c070:	f041 41fe 	orr.w	r1, r1, #2130706432	; 0x7f000000
 800c074:	f441 0170 	orr.w	r1, r1, #15728640	; 0xf00000
 800c078:	f04f 0000 	mov.w	r0, #0
 800c07c:	bd70      	pop	{r4, r5, r6, pc}
 800c07e:	f041 41fe 	orr.w	r1, r1, #2130706432	; 0x7f000000
 800c082:	f441 0178 	orr.w	r1, r1, #16252928	; 0xf80000
 800c086:	bd70      	pop	{r4, r5, r6, pc}

0800c088 <__aeabi_ddiv>:
__aeabi_ddiv():
 800c088:	b570      	push	{r4, r5, r6, lr}
 800c08a:	f04f 0cff 	mov.w	ip, #255	; 0xff
 800c08e:	f44c 6ce0 	orr.w	ip, ip, #1792	; 0x700
 800c092:	ea1c 5411 	ands.w	r4, ip, r1, lsr #20
 800c096:	bf1d      	ittte	ne
 800c098:	ea1c 5513 	andsne.w	r5, ip, r3, lsr #20
 800c09c:	ea94 0f0c 	teqne	r4, ip
 800c0a0:	ea95 0f0c 	teqne	r5, ip
 800c0a4:	f000 f8a7 	bleq	800c1f6 <__aeabi_ddiv+0x16e>
 800c0a8:	eba4 0405 	sub.w	r4, r4, r5
 800c0ac:	ea81 0e03 	eor.w	lr, r1, r3
 800c0b0:	ea52 3503 	orrs.w	r5, r2, r3, lsl #12
 800c0b4:	ea4f 3101 	mov.w	r1, r1, lsl #12
 800c0b8:	f000 8088 	beq.w	800c1cc <__aeabi_ddiv+0x144>
 800c0bc:	ea4f 3303 	mov.w	r3, r3, lsl #12
 800c0c0:	f04f 5580 	mov.w	r5, #268435456	; 0x10000000
 800c0c4:	ea45 1313 	orr.w	r3, r5, r3, lsr #4
 800c0c8:	ea43 6312 	orr.w	r3, r3, r2, lsr #24
 800c0cc:	ea4f 2202 	mov.w	r2, r2, lsl #8
 800c0d0:	ea45 1511 	orr.w	r5, r5, r1, lsr #4
 800c0d4:	ea45 6510 	orr.w	r5, r5, r0, lsr #24
 800c0d8:	ea4f 2600 	mov.w	r6, r0, lsl #8
 800c0dc:	f00e 4100 	and.w	r1, lr, #2147483648	; 0x80000000
 800c0e0:	429d      	cmp	r5, r3
 800c0e2:	bf08      	it	eq
 800c0e4:	4296      	cmpeq	r6, r2
 800c0e6:	f144 04fd 	adc.w	r4, r4, #253	; 0xfd
 800c0ea:	f504 7440 	add.w	r4, r4, #768	; 0x300
 800c0ee:	d202      	bcs.n	800c0f6 <__aeabi_ddiv+0x6e>
 800c0f0:	085b      	lsrs	r3, r3, #1
 800c0f2:	ea4f 0232 	mov.w	r2, r2, rrx
 800c0f6:	1ab6      	subs	r6, r6, r2
 800c0f8:	eb65 0503 	sbc.w	r5, r5, r3
 800c0fc:	085b      	lsrs	r3, r3, #1
 800c0fe:	ea4f 0232 	mov.w	r2, r2, rrx
 800c102:	f44f 1080 	mov.w	r0, #1048576	; 0x100000
 800c106:	f44f 2c00 	mov.w	ip, #524288	; 0x80000
 800c10a:	ebb6 0e02 	subs.w	lr, r6, r2
 800c10e:	eb75 0e03 	sbcs.w	lr, r5, r3
 800c112:	bf22      	ittt	cs
 800c114:	1ab6      	subcs	r6, r6, r2
 800c116:	4675      	movcs	r5, lr
 800c118:	ea40 000c 	orrcs.w	r0, r0, ip
 800c11c:	085b      	lsrs	r3, r3, #1
 800c11e:	ea4f 0232 	mov.w	r2, r2, rrx
 800c122:	ebb6 0e02 	subs.w	lr, r6, r2
 800c126:	eb75 0e03 	sbcs.w	lr, r5, r3
 800c12a:	bf22      	ittt	cs
 800c12c:	1ab6      	subcs	r6, r6, r2
 800c12e:	4675      	movcs	r5, lr
 800c130:	ea40 005c 	orrcs.w	r0, r0, ip, lsr #1
 800c134:	085b      	lsrs	r3, r3, #1
 800c136:	ea4f 0232 	mov.w	r2, r2, rrx
 800c13a:	ebb6 0e02 	subs.w	lr, r6, r2
 800c13e:	eb75 0e03 	sbcs.w	lr, r5, r3
 800c142:	bf22      	ittt	cs
 800c144:	1ab6      	subcs	r6, r6, r2
 800c146:	4675      	movcs	r5, lr
 800c148:	ea40 009c 	orrcs.w	r0, r0, ip, lsr #2
 800c14c:	085b      	lsrs	r3, r3, #1
 800c14e:	ea4f 0232 	mov.w	r2, r2, rrx
 800c152:	ebb6 0e02 	subs.w	lr, r6, r2
 800c156:	eb75 0e03 	sbcs.w	lr, r5, r3
 800c15a:	bf22      	ittt	cs
 800c15c:	1ab6      	subcs	r6, r6, r2
 800c15e:	4675      	movcs	r5, lr
 800c160:	ea40 00dc 	orrcs.w	r0, r0, ip, lsr #3
 800c164:	ea55 0e06 	orrs.w	lr, r5, r6
 800c168:	d018      	beq.n	800c19c <__aeabi_ddiv+0x114>
 800c16a:	ea4f 1505 	mov.w	r5, r5, lsl #4
 800c16e:	ea45 7516 	orr.w	r5, r5, r6, lsr #28
 800c172:	ea4f 1606 	mov.w	r6, r6, lsl #4
 800c176:	ea4f 03c3 	mov.w	r3, r3, lsl #3
 800c17a:	ea43 7352 	orr.w	r3, r3, r2, lsr #29
 800c17e:	ea4f 02c2 	mov.w	r2, r2, lsl #3
 800c182:	ea5f 1c1c 	movs.w	ip, ip, lsr #4
 800c186:	d1c0      	bne.n	800c10a <__aeabi_ddiv+0x82>
 800c188:	f411 1f80 	tst.w	r1, #1048576	; 0x100000
 800c18c:	d10b      	bne.n	800c1a6 <__aeabi_ddiv+0x11e>
 800c18e:	ea41 0100 	orr.w	r1, r1, r0
 800c192:	f04f 0000 	mov.w	r0, #0
 800c196:	f04f 4c00 	mov.w	ip, #2147483648	; 0x80000000
 800c19a:	e7b6      	b.n	800c10a <__aeabi_ddiv+0x82>
 800c19c:	f411 1f80 	tst.w	r1, #1048576	; 0x100000
 800c1a0:	bf04      	itt	eq
 800c1a2:	4301      	orreq	r1, r0
 800c1a4:	2000      	moveq	r0, #0
 800c1a6:	f1b4 0cfd 	subs.w	ip, r4, #253	; 0xfd
 800c1aa:	bf88      	it	hi
 800c1ac:	f5bc 6fe0 	cmphi.w	ip, #1792	; 0x700
 800c1b0:	f63f aeaf 	bhi.w	800bf12 <__aeabi_dmul+0xde>
 800c1b4:	ebb5 0c03 	subs.w	ip, r5, r3
 800c1b8:	bf04      	itt	eq
 800c1ba:	ebb6 0c02 	subseq.w	ip, r6, r2
 800c1be:	ea5f 0c50 	movseq.w	ip, r0, lsr #1
 800c1c2:	f150 0000 	adcs.w	r0, r0, #0
 800c1c6:	eb41 5104 	adc.w	r1, r1, r4, lsl #20
 800c1ca:	bd70      	pop	{r4, r5, r6, pc}
 800c1cc:	f00e 4e00 	and.w	lr, lr, #2147483648	; 0x80000000
 800c1d0:	ea4e 3111 	orr.w	r1, lr, r1, lsr #12
 800c1d4:	eb14 045c 	adds.w	r4, r4, ip, lsr #1
 800c1d8:	bfc2      	ittt	gt
 800c1da:	ebd4 050c 	rsbsgt	r5, r4, ip
 800c1de:	ea41 5104 	orrgt.w	r1, r1, r4, lsl #20
 800c1e2:	bd70      	popgt	{r4, r5, r6, pc}
 800c1e4:	f441 1180 	orr.w	r1, r1, #1048576	; 0x100000
 800c1e8:	f04f 0e00 	mov.w	lr, #0
 800c1ec:	3c01      	subs	r4, #1
 800c1ee:	e690      	b.n	800bf12 <__aeabi_dmul+0xde>
 800c1f0:	ea45 0e06 	orr.w	lr, r5, r6
 800c1f4:	e68d      	b.n	800bf12 <__aeabi_dmul+0xde>
 800c1f6:	ea0c 5513 	and.w	r5, ip, r3, lsr #20
 800c1fa:	ea94 0f0c 	teq	r4, ip
 800c1fe:	bf08      	it	eq
 800c200:	ea95 0f0c 	teqeq	r5, ip
 800c204:	f43f af3b 	beq.w	800c07e <__aeabi_dmul+0x24a>
 800c208:	ea94 0f0c 	teq	r4, ip
 800c20c:	d10a      	bne.n	800c224 <__aeabi_ddiv+0x19c>
 800c20e:	ea50 3401 	orrs.w	r4, r0, r1, lsl #12
 800c212:	f47f af34 	bne.w	800c07e <__aeabi_dmul+0x24a>
 800c216:	ea95 0f0c 	teq	r5, ip
 800c21a:	f47f af25 	bne.w	800c068 <__aeabi_dmul+0x234>
 800c21e:	4610      	mov	r0, r2
 800c220:	4619      	mov	r1, r3
 800c222:	e72c      	b.n	800c07e <__aeabi_dmul+0x24a>
 800c224:	ea95 0f0c 	teq	r5, ip
 800c228:	d106      	bne.n	800c238 <__aeabi_ddiv+0x1b0>
 800c22a:	ea52 3503 	orrs.w	r5, r2, r3, lsl #12
 800c22e:	f43f aefd 	beq.w	800c02c <__aeabi_dmul+0x1f8>
 800c232:	4610      	mov	r0, r2
 800c234:	4619      	mov	r1, r3
 800c236:	e722      	b.n	800c07e <__aeabi_dmul+0x24a>
 800c238:	ea50 0641 	orrs.w	r6, r0, r1, lsl #1
 800c23c:	bf18      	it	ne
 800c23e:	ea52 0643 	orrsne.w	r6, r2, r3, lsl #1
 800c242:	f47f aec5 	bne.w	800bfd0 <__aeabi_dmul+0x19c>
 800c246:	ea50 0441 	orrs.w	r4, r0, r1, lsl #1
 800c24a:	f47f af0d 	bne.w	800c068 <__aeabi_dmul+0x234>
 800c24e:	ea52 0543 	orrs.w	r5, r2, r3, lsl #1
 800c252:	f47f aeeb 	bne.w	800c02c <__aeabi_dmul+0x1f8>
 800c256:	e712      	b.n	800c07e <__aeabi_dmul+0x24a>

0800c258 <__gedf2>:
__gtdf2():
 800c258:	f04f 3cff 	mov.w	ip, #4294967295
 800c25c:	e006      	b.n	800c26c <__cmpdf2+0x4>
 800c25e:	bf00      	nop

0800c260 <__ledf2>:
 800c260:	f04f 0c01 	mov.w	ip, #1
 800c264:	e002      	b.n	800c26c <__cmpdf2+0x4>
 800c266:	bf00      	nop

0800c268 <__cmpdf2>:
 800c268:	f04f 0c01 	mov.w	ip, #1
 800c26c:	f84d cd04 	str.w	ip, [sp, #-4]!
 800c270:	ea4f 0c41 	mov.w	ip, r1, lsl #1
 800c274:	ea7f 5c6c 	mvns.w	ip, ip, asr #21
 800c278:	ea4f 0c43 	mov.w	ip, r3, lsl #1
 800c27c:	bf18      	it	ne
 800c27e:	ea7f 5c6c 	mvnsne.w	ip, ip, asr #21
 800c282:	d01b      	beq.n	800c2bc <__cmpdf2+0x54>
 800c284:	b001      	add	sp, #4
 800c286:	ea50 0c41 	orrs.w	ip, r0, r1, lsl #1
 800c28a:	bf0c      	ite	eq
 800c28c:	ea52 0c43 	orrseq.w	ip, r2, r3, lsl #1
 800c290:	ea91 0f03 	teqne	r1, r3
 800c294:	bf02      	ittt	eq
 800c296:	ea90 0f02 	teqeq	r0, r2
 800c29a:	2000      	moveq	r0, #0
 800c29c:	4770      	bxeq	lr
 800c29e:	f110 0f00 	cmn.w	r0, #0
 800c2a2:	ea91 0f03 	teq	r1, r3
 800c2a6:	bf58      	it	pl
 800c2a8:	4299      	cmppl	r1, r3
 800c2aa:	bf08      	it	eq
 800c2ac:	4290      	cmpeq	r0, r2
 800c2ae:	bf2c      	ite	cs
 800c2b0:	17d8      	asrcs	r0, r3, #31
 800c2b2:	ea6f 70e3 	mvncc.w	r0, r3, asr #31
 800c2b6:	f040 0001 	orr.w	r0, r0, #1
 800c2ba:	4770      	bx	lr
 800c2bc:	ea4f 0c41 	mov.w	ip, r1, lsl #1
 800c2c0:	ea7f 5c6c 	mvns.w	ip, ip, asr #21
 800c2c4:	d102      	bne.n	800c2cc <__cmpdf2+0x64>
 800c2c6:	ea50 3c01 	orrs.w	ip, r0, r1, lsl #12
 800c2ca:	d107      	bne.n	800c2dc <__cmpdf2+0x74>
 800c2cc:	ea4f 0c43 	mov.w	ip, r3, lsl #1
 800c2d0:	ea7f 5c6c 	mvns.w	ip, ip, asr #21
 800c2d4:	d1d6      	bne.n	800c284 <__cmpdf2+0x1c>
 800c2d6:	ea52 3c03 	orrs.w	ip, r2, r3, lsl #12
 800c2da:	d0d3      	beq.n	800c284 <__cmpdf2+0x1c>
 800c2dc:	f85d 0b04 	ldr.w	r0, [sp], #4
 800c2e0:	4770      	bx	lr
__cmpdf2():
 800c2e2:	bf00      	nop

0800c2e4 <__aeabi_cdrcmple>:
__aeabi_cdrcmple():
 800c2e4:	4684      	mov	ip, r0
 800c2e6:	4610      	mov	r0, r2
 800c2e8:	4662      	mov	r2, ip
 800c2ea:	468c      	mov	ip, r1
 800c2ec:	4619      	mov	r1, r3
 800c2ee:	4663      	mov	r3, ip
 800c2f0:	e000      	b.n	800c2f4 <__aeabi_cdcmpeq>
 800c2f2:	bf00      	nop

0800c2f4 <__aeabi_cdcmpeq>:
 800c2f4:	b501      	push	{r0, lr}
 800c2f6:	f7ff ffb7 	bl	800c268 <__cmpdf2>
 800c2fa:	2800      	cmp	r0, #0
 800c2fc:	bf48      	it	mi
 800c2fe:	f110 0f00 	cmnmi.w	r0, #0
 800c302:	bd01      	pop	{r0, pc}

0800c304 <__aeabi_dcmpeq>:
__aeabi_dcmpeq():
 800c304:	f84d ed08 	str.w	lr, [sp, #-8]!
 800c308:	f7ff fff4 	bl	800c2f4 <__aeabi_cdcmpeq>
 800c30c:	bf0c      	ite	eq
 800c30e:	2001      	moveq	r0, #1
 800c310:	2000      	movne	r0, #0
 800c312:	f85d fb08 	ldr.w	pc, [sp], #8
 800c316:	bf00      	nop

0800c318 <__aeabi_dcmplt>:
__aeabi_dcmplt():
 800c318:	f84d ed08 	str.w	lr, [sp, #-8]!
 800c31c:	f7ff ffea 	bl	800c2f4 <__aeabi_cdcmpeq>
 800c320:	bf34      	ite	cc
 800c322:	2001      	movcc	r0, #1
 800c324:	2000      	movcs	r0, #0
 800c326:	f85d fb08 	ldr.w	pc, [sp], #8
 800c32a:	bf00      	nop

0800c32c <__aeabi_dcmple>:
__aeabi_dcmple():
 800c32c:	f84d ed08 	str.w	lr, [sp, #-8]!
 800c330:	f7ff ffe0 	bl	800c2f4 <__aeabi_cdcmpeq>
 800c334:	bf94      	ite	ls
 800c336:	2001      	movls	r0, #1
 800c338:	2000      	movhi	r0, #0
 800c33a:	f85d fb08 	ldr.w	pc, [sp], #8
 800c33e:	bf00      	nop

0800c340 <__aeabi_dcmpge>:
__aeabi_dcmpge():
 800c340:	f84d ed08 	str.w	lr, [sp, #-8]!
 800c344:	f7ff ffce 	bl	800c2e4 <__aeabi_cdrcmple>
 800c348:	bf94      	ite	ls
 800c34a:	2001      	movls	r0, #1
 800c34c:	2000      	movhi	r0, #0
 800c34e:	f85d fb08 	ldr.w	pc, [sp], #8
 800c352:	bf00      	nop

0800c354 <__aeabi_dcmpgt>:
__aeabi_dcmpgt():
 800c354:	f84d ed08 	str.w	lr, [sp, #-8]!
 800c358:	f7ff ffc4 	bl	800c2e4 <__aeabi_cdrcmple>
 800c35c:	bf34      	ite	cc
 800c35e:	2001      	movcc	r0, #1
 800c360:	2000      	movcs	r0, #0
 800c362:	f85d fb08 	ldr.w	pc, [sp], #8
 800c366:	bf00      	nop

0800c368 <__aeabi_d2f>:
__aeabi_d2f():
 800c368:	ea4f 0241 	mov.w	r2, r1, lsl #1
 800c36c:	f1b2 43e0 	subs.w	r3, r2, #1879048192	; 0x70000000
 800c370:	bf24      	itt	cs
 800c372:	f5b3 1c00 	subscs.w	ip, r3, #2097152	; 0x200000
 800c376:	f1dc 5cfe 	rsbscs	ip, ip, #532676608	; 0x1fc00000
 800c37a:	d90d      	bls.n	800c398 <__aeabi_d2f+0x30>
 800c37c:	f001 4c00 	and.w	ip, r1, #2147483648	; 0x80000000
 800c380:	ea4f 02c0 	mov.w	r2, r0, lsl #3
 800c384:	ea4c 7050 	orr.w	r0, ip, r0, lsr #29
 800c388:	f1b2 4f00 	cmp.w	r2, #2147483648	; 0x80000000
 800c38c:	eb40 0083 	adc.w	r0, r0, r3, lsl #2
 800c390:	bf08      	it	eq
 800c392:	f020 0001 	biceq.w	r0, r0, #1
 800c396:	4770      	bx	lr
 800c398:	f011 4f80 	tst.w	r1, #1073741824	; 0x40000000
 800c39c:	d121      	bne.n	800c3e2 <__aeabi_d2f+0x7a>
 800c39e:	f113 7238 	adds.w	r2, r3, #48234496	; 0x2e00000
 800c3a2:	bfbc      	itt	lt
 800c3a4:	f001 4000 	andlt.w	r0, r1, #2147483648	; 0x80000000
 800c3a8:	4770      	bxlt	lr
 800c3aa:	f441 1180 	orr.w	r1, r1, #1048576	; 0x100000
 800c3ae:	ea4f 5252 	mov.w	r2, r2, lsr #21
 800c3b2:	f1c2 0218 	rsb	r2, r2, #24
 800c3b6:	f1c2 0c20 	rsb	ip, r2, #32
 800c3ba:	fa10 f30c 	lsls.w	r3, r0, ip
 800c3be:	fa20 f002 	lsr.w	r0, r0, r2
 800c3c2:	bf18      	it	ne
 800c3c4:	f040 0001 	orrne.w	r0, r0, #1
 800c3c8:	ea4f 23c1 	mov.w	r3, r1, lsl #11
 800c3cc:	ea4f 23d3 	mov.w	r3, r3, lsr #11
 800c3d0:	fa03 fc0c 	lsl.w	ip, r3, ip
 800c3d4:	ea40 000c 	orr.w	r0, r0, ip
 800c3d8:	fa23 f302 	lsr.w	r3, r3, r2
 800c3dc:	ea4f 0343 	mov.w	r3, r3, lsl #1
 800c3e0:	e7cc      	b.n	800c37c <__aeabi_d2f+0x14>
 800c3e2:	ea7f 5362 	mvns.w	r3, r2, asr #21
 800c3e6:	d107      	bne.n	800c3f8 <__aeabi_d2f+0x90>
 800c3e8:	ea50 3301 	orrs.w	r3, r0, r1, lsl #12
 800c3ec:	bf1e      	ittt	ne
 800c3ee:	f04f 40fe 	movne.w	r0, #2130706432	; 0x7f000000
 800c3f2:	f440 0040 	orrne.w	r0, r0, #12582912	; 0xc00000
 800c3f6:	4770      	bxne	lr
 800c3f8:	f001 4000 	and.w	r0, r1, #2147483648	; 0x80000000
 800c3fc:	f040 40fe 	orr.w	r0, r0, #2130706432	; 0x7f000000
 800c400:	f440 0000 	orr.w	r0, r0, #8388608	; 0x800000
 800c404:	4770      	bx	lr
 800c406:	bf00      	nop

0800c408 <srand>:
srand():
 800c408:	4b02      	ldr	r3, [pc, #8]	; (800c414 <srand+0xc>)
 800c40a:	681b      	ldr	r3, [r3, #0]
 800c40c:	2100      	movs	r1, #0
 800c40e:	e9c3 012a 	strd	r0, r1, [r3, #168]	; 0xa8
 800c412:	4770      	bx	lr
 800c414:	200004d8 	.word	0x200004d8

0800c418 <rand>:
rand():
 800c418:	b410      	push	{r4}
 800c41a:	4b0c      	ldr	r3, [pc, #48]	; (800c44c <rand+0x34>)
 800c41c:	480c      	ldr	r0, [pc, #48]	; (800c450 <rand+0x38>)
 800c41e:	681c      	ldr	r4, [r3, #0]
 800c420:	4b0c      	ldr	r3, [pc, #48]	; (800c454 <rand+0x3c>)
 800c422:	f8d4 20a8 	ldr.w	r2, [r4, #168]	; 0xa8
 800c426:	f8d4 10ac 	ldr.w	r1, [r4, #172]	; 0xac
 800c42a:	fb00 f002 	mul.w	r0, r0, r2
 800c42e:	fb03 0101 	mla	r1, r3, r1, r0
 800c432:	fba2 2303 	umull	r2, r3, r2, r3
 800c436:	3201      	adds	r2, #1
 800c438:	440b      	add	r3, r1
 800c43a:	f143 0300 	adc.w	r3, r3, #0
 800c43e:	e9c4 232a 	strd	r2, r3, [r4, #168]	; 0xa8
 800c442:	f023 4000 	bic.w	r0, r3, #2147483648	; 0x80000000
 800c446:	f85d 4b04 	ldr.w	r4, [sp], #4
 800c44a:	4770      	bx	lr
 800c44c:	200004d8 	.word	0x200004d8
 800c450:	5851f42d 	.word	0x5851f42d
 800c454:	4c957f2d 	.word	0x4c957f2d

0800c458 <____errno_veneer>:
____errno_veneer():
 800c458:	b401      	push	{r0}
 800c45a:	4802      	ldr	r0, [pc, #8]	; (800c464 <____errno_veneer+0xc>)
 800c45c:	4684      	mov	ip, r0
 800c45e:	bc01      	pop	{r0}
 800c460:	4760      	bx	ip
 800c462:	bf00      	nop
 800c464:	2001533d 	.word	0x2001533d

0800c468 <MIDIscale04>:
$d():
 800c468:	05020004 00000009                       ........

0800c470 <MIDIscale14>:
 800c470:	00020002                                ....

0800c474 <CSWTCH.11.6911.6911>:
 800c474:	0800c4ec 0800c470 0800c500 0800c508     ....p...........
 800c484:	0800c504 0800c4f8 0800c468 0800c4c0     ........h.......
 800c494:	0800c4c8 0800c4f0 0800c4b0 0800c4d0     ................
 800c4a4:	0800c4b8 0800c4dc 0800c4f0              ............

0800c4b0 <MIDIscale02>:
 800c4b0:	03020006 00090706                       ........

0800c4b8 <MIDIscale05>:
 800c4b8:	05030106 000b0907                       ........

0800c4c0 <MIDIscale01>:
 800c4c0:	04020005 00000907                       ........

0800c4c8 <MIDIscale03>:
 800c4c8:	04020006 00090705                       ........

0800c4d0 <MIDIscale06>:
 800c4d0:	04020007 0b090805 00412f4e              ........N/A.

0800c4dc <MIDIscale12>:
 800c4dc:	0201000c 06050403 0a090807 0000000b     ................

0800c4ec <MIDIscale13>:
 800c4ec:	00000001                                ....

0800c4f0 <MIDIscale11>:
 800c4f0:	04020007 0b090705                       ........

0800c4f8 <MIDIscale10>:
 800c4f8:	05020004 00000009                       ........

0800c500 <MIDIscale07>:
 800c500:	00070002                                ....

0800c504 <MIDIscale09>:
 800c504:	07040003                                ....

0800c508 <MIDIscale08>:
 800c508:	00090002                                ....

0800c50c <sinetable>:
 800c50c:	00000000 3bc90f7e 3c490e67 3c96c9a6     ....~..;g.I<...<
 800c51c:	3cc90aa0 3cfb49b8 3d16c326 3d2fe012     ...<.I.<&..=../=
 800c52c:	3d48fb36 3d62145d 3d7b2b6a 3d8a2007     6.H=].b=j+{=. .=
 800c53c:	3d96a909 3da33087 3dafb67f 3dbc3ac9     ...=.0.=...=.:.=
 800c54c:	3dc8bd30 3dd53dea 3de1bc12 3dee38a8     0..=.=.=...=.8.=
 800c55c:	3dfab29e 3e0394fb 3e09cf9a 3e1008a7     ...=...>...>...>
 800c56c:	3e164064 3e1c76d1 3e22abac 3e28def4     d@.>.v.>..">..(>
 800c57c:	3e2f10aa 3e354089 3e3b6ed6 3e419b4e     ../>.@5>.n;>N.A>
 800c58c:	3e47c5ac 3e4dee78 3e5414e8 3e5a3982     ..G>x.M>..T>.9Z>
 800c59c:	3e605c03 3e667c6c 3e6c9a78 3e72b66b     .\`>l|f>x.l>k.r>
 800c5ac:	3e78cfc0 3e7ee6fb 3e827dcc 3e8586cb     ..x>..~>.}.>...>
 800c5bc:	3e888e9b 3e8b94fb 3e8e9a2c 3e919ded     ...>...>,..>...>
 800c5cc:	3e94a03c 3e97a11b 3e9aa088 3e9d9e84     <..>...>...>...>
 800c5dc:	3ea09aed 3ea395c4 3ea68f08 3ea986ba     ...>...>...>...>
 800c5ec:	3eac7cd9 3eaf7143 3eb263fa 3eb554fc     .|.>Cq.>.c.>.T.>
 800c5fc:	3eb84428 3ebb31a1 3ebe1d43 3ec10710     (D.>.1.>C..>...>
 800c60c:	3ec3ef07 3ec6d528 3ec9b952 3ecc9b84     ...>(..>R..>...>
 800c61c:	3ecf7bc0 3ed25a04 3ed53650 3ed81062     .{.>.Z.>P6.>b..>
 800c62c:	3edae87d 3eddbe7f 3ee09247 3ee363f5     }..>...>G..>.c.>
 800c63c:	3ee6336a 3ee900c5 3eebcbc5 3eee9468     j3.>...>...>h..>
 800c64c:	3ef15af3 3ef41f00 3ef6e0d2 3ef9a027     .Z.>...>...>'..>
 800c65c:	3efc5d20 3eff17be 3f00e7de 3f0242af      ].>...>...?.B.?
 800c66c:	3f039c41 3f04f484 3f064b88 3f07a13c     A..?...?.K.?<..?
 800c67c:	3f08f5a1 3f0a48a6 3f0b9a6b 3f0cead1     ...?.H.?k..?...?
 800c68c:	3f0e39d6 3f0f878b 3f10d3d0 3f121eb4     .9.?...?...?...?
 800c69c:	3f136827 3f14b03a 3f15f6dc 3f173c0c     'h.?:..?...?.<.?
 800c6ac:	3f187fbb 3f19c1f8 3f1b02c5 3f1c420f     ...?...?...?.B.?
 800c6bc:	3f1d7fd8 3f1ebc0e 3f1ff6c2 3f212ff5     ...?...?...?./!?
 800c6cc:	3f226794 3f239da1 3f24d22d 3f260503     .g"?..#?-.$?..&?
 800c6dc:	3f273659 3f28660a 3f299418 3f2ac083     Y6'?.f(?..)?..*?
 800c6ec:	3f2beb4a 3f2d146e 3f2e3bde 3f2f61aa     J.+?n.-?.;.?.a/?
 800c6fc:	3f3085c2 3f31a815 3f32c8c5 3f33e7c0     ..0?..1?..2?..3?
 800c70c:	3f3504f7 3f362068 3f373a26 3f38521e     ..5?h 6?&:7?.R8?
 800c71c:	3f396840 3f3a7c9e 3f3b8f36 3f3ca00a     @h9?.|:?6.;?..<?
 800c72c:	3f3daef7 3f3ebc1f 3f3fc760 3f40d0dd     ..=?..>?`.??..@?
 800c73c:	3f41d873 3f42de22 3f43e1fc 3f44e3ef     s.A?".B?..C?..D?
 800c74c:	3f45e3fc 3f46e222 3f47de61 3f48d8ba     ..E?".F?a.G?..H?
 800c75c:	3f49d10b 3f4ac786 3f4bbbf9 3f4cae75     ..I?..J?..K?u.L?
 800c76c:	3f4d9f0a 3f4e8d97 3f4f7a1c 3f5064aa     ..M?..N?.zO?.dP?
 800c77c:	3f514d40 3f5233ce 3f531844 3f53fac2     @MQ?.3R?D.S?..S?
 800c78c:	3f54db38 3f55b995 3f5695ea 3f577026     8.T?..U?..V?&pW?
 800c79c:	3f58485a 3f591e64 3f59f267 3f5ac450     ZHX?d.Y?g.Y?P.Z?
 800c7ac:	3f5b9421 3f5c61c8 3f5d2d56 3f5df6ba     !.[?.a\?V-]?..]?
 800c7bc:	3f5ebe06 3f5f8327 3f604620 3f6106ee     ..^?'._? F`?..a?
 800c7cc:	3f61c593 3f62820e 3f633c60 3f63f477     ..a?..b?`<c?w.c?
 800c7dc:	3f64aa54 3f655e07 3f660f80 3f66becf     T.d?.^e?..f?..f?
 800c7ec:	3f676bd3 3f6816ad 3f68bf3c 3f696590     .kg?..h?<.h?.ei?
 800c7fc:	3f6a09ab 3f6aab7a 3f6b4b0e 3f6be857     ..j?z.j?.Kk?W.k?
 800c80c:	3f6c8366 3f6d1c19 3f6db292 3f6e46bf     f.l?..m?..m?.Fn?
 800c81c:	3f6ed8a1 3f6f6838 3f6ff573 3f708063     ..n?8ho?s.o?c.p?
 800c82c:	3f710907 3f718f50 3f72134d 3f7294ff     ..q?P.q?M.r?..r?
 800c83c:	3f731444 3f73913f 3f740bdd 3f74841f     D.s??.s?..t?..t?
 800c84c:	3f74fa05 3f756d8f 3f75dece 3f764d90     ..t?.mu?..u?.Mv?
 800c85c:	3f76ba06 3f772410 3f778bbd 3f77f10f     ..v?.$w?..w?..w?
 800c86c:	3f7853f4 3f78b47c 3f791299 3f796e48     .Sx?|.x?..y?Hny?
 800c87c:	3f79c79b 3f7a1e82 3f7a72fc 3f7ac519     ..y?..z?.rz?..z?
 800c88c:	3f7b14ba 3f7b61fe 3f7bacc5 3f7bf530     ..{?.a{?..{?0.{?
 800c89c:	3f7c3b2e 3f7c7eae 3f7cbfc2 3f7cfe7a     .;|?.~|?..|?z.|?
 800c8ac:	3f7d3ab4 3f7d7471 3f7dabd2 3f7de0b5     .:}?qt}?..}?..}?
 800c8bc:	3f7e132b 3f7e4324 3f7e70b0 3f7e9bd0     +.~?$C~?.p~?..~?
 800c8cc:	3f7ec472 3f7eea96 3f7f0e5e 3f7f2f98     r.~?..~?^..?./.?
 800c8dc:	3f7f4e66 3f7f6ac6 3f7f84a9 3f7f9c20     fN.?.j.?...? ..?
 800c8ec:	3f7fb107 3f7fc393 3f7fd391 3f7fe122     ...?...?...?"..?
 800c8fc:	3f7fec46 3f7ff4ed 3f7ffb16 3f7ffec1     F..?...?...?...?
 800c90c:	3f800000 3f7ffec1 3f7ffb16 3f7ff4ed     ...?...?...?...?
 800c91c:	3f7fec46 3f7fe122 3f7fd391 3f7fc393     F..?"..?...?...?
 800c92c:	3f7fb107 3f7f9c20 3f7f84a9 3f7f6ac6     ...? ..?...?.j.?
 800c93c:	3f7f4e66 3f7f2f98 3f7f0e5e 3f7eea96     fN.?./.?^..?..~?
 800c94c:	3f7ec472 3f7e9bd0 3f7e70b0 3f7e4324     r.~?..~?.p~?$C~?
 800c95c:	3f7e132b 3f7de0b5 3f7dabd2 3f7d7471     +.~?..}?..}?qt}?
 800c96c:	3f7d3ab4 3f7cfe7a 3f7cbfc2 3f7c7eae     .:}?z.|?..|?.~|?
 800c97c:	3f7c3b2e 3f7bf530 3f7bacc5 3f7b61fe     .;|?0.{?..{?.a{?
 800c98c:	3f7b14ba 3f7ac519 3f7a72fc 3f7a1e82     ..{?..z?.rz?..z?
 800c99c:	3f79c79b 3f796e48 3f791299 3f78b47c     ..y?Hny?..y?|.x?
 800c9ac:	3f7853f4 3f77f10f 3f778bbd 3f772410     .Sx?..w?..w?.$w?
 800c9bc:	3f76ba06 3f764d90 3f75dece 3f756d8f     ..v?.Mv?..u?.mu?
 800c9cc:	3f74fa05 3f74841f 3f740bdd 3f73913f     ..t?..t?..t??.s?
 800c9dc:	3f731444 3f7294ff 3f72134d 3f718f50     D.s?..r?M.r?P.q?
 800c9ec:	3f710907 3f708063 3f6ff573 3f6f6838     ..q?c.p?s.o?8ho?
 800c9fc:	3f6ed8a1 3f6e46bf 3f6db292 3f6d1c19     ..n?.Fn?..m?..m?
 800ca0c:	3f6c8366 3f6be857 3f6b4b0e 3f6aab7a     f.l?W.k?.Kk?z.j?
 800ca1c:	3f6a09ab 3f696590 3f68bf3c 3f6816ad     ..j?.ei?<.h?..h?
 800ca2c:	3f676bd3 3f66becf 3f660f80 3f655e07     .kg?..f?..f?.^e?
 800ca3c:	3f64aa54 3f63f477 3f633c60 3f62820e     T.d?w.c?`<c?..b?
 800ca4c:	3f61c593 3f6106ee 3f604620 3f5f8327     ..a?..a? F`?'._?
 800ca5c:	3f5ebe06 3f5df6ba 3f5d2d56 3f5c61c8     ..^?..]?V-]?.a\?
 800ca6c:	3f5b9421 3f5ac450 3f59f267 3f591e64     !.[?P.Z?g.Y?d.Y?
 800ca7c:	3f58485a 3f577026 3f5695ea 3f55b995     ZHX?&pW?..V?..U?
 800ca8c:	3f54db38 3f53fac2 3f531844 3f5233ce     8.T?..S?D.S?.3R?
 800ca9c:	3f514d40 3f5064aa 3f4f7a1c 3f4e8d97     @MQ?.dP?.zO?..N?
 800caac:	3f4d9f0a 3f4cae75 3f4bbbf9 3f4ac786     ..M?u.L?..K?..J?
 800cabc:	3f49d10b 3f48d8ba 3f47de61 3f46e222     ..I?..H?a.G?".F?
 800cacc:	3f45e3fc 3f44e3ef 3f43e1fc 3f42de22     ..E?..D?..C?".B?
 800cadc:	3f41d873 3f40d0dd 3f3fc760 3f3ebc1f     s.A?..@?`.??..>?
 800caec:	3f3daef7 3f3ca00a 3f3b8f36 3f3a7c9e     ..=?..<?6.;?.|:?
 800cafc:	3f396840 3f38521e 3f373a26 3f362068     @h9?.R8?&:7?h 6?
 800cb0c:	3f3504f7 3f33e7c0 3f32c8c5 3f31a815     ..5?..3?..2?..1?
 800cb1c:	3f3085c2 3f2f61aa 3f2e3bde 3f2d146e     ..0?.a/?.;.?n.-?
 800cb2c:	3f2beb4a 3f2ac083 3f299418 3f28660a     J.+?..*?..)?.f(?
 800cb3c:	3f273659 3f260503 3f24d22d 3f239da1     Y6'?..&?-.$?..#?
 800cb4c:	3f226794 3f212ff5 3f1ff6c2 3f1ebc0e     .g"?./!?...?...?
 800cb5c:	3f1d7fd8 3f1c420f 3f1b02c5 3f19c1f8     ...?.B.?...?...?
 800cb6c:	3f187fbb 3f173c0c 3f15f6dc 3f14b03a     ...?.<.?...?:..?
 800cb7c:	3f136827 3f121eb4 3f10d3d0 3f0f878b     'h.?...?...?...?
 800cb8c:	3f0e39d6 3f0cead1 3f0b9a6b 3f0a48a6     .9.?...?k..?.H.?
 800cb9c:	3f08f5a1 3f07a13c 3f064b88 3f04f484     ...?<..?.K.?...?
 800cbac:	3f039c41 3f0242af 3f00e7de 3eff17be     A..?.B.?...?...>
 800cbbc:	3efc5d20 3ef9a027 3ef6e0d2 3ef41f00      ].>'..>...>...>
 800cbcc:	3ef15af3 3eee9468 3eebcbc5 3ee900c5     .Z.>h..>...>...>
 800cbdc:	3ee6336a 3ee363f5 3ee09247 3eddbe7f     j3.>.c.>G..>...>
 800cbec:	3edae87d 3ed81062 3ed53650 3ed25a04     }..>b..>P6.>.Z.>
 800cbfc:	3ecf7bc0 3ecc9b84 3ec9b952 3ec6d528     .{.>...>R..>(..>
 800cc0c:	3ec3ef07 3ec10710 3ebe1d43 3ebb31a1     ...>...>C..>.1.>
 800cc1c:	3eb84428 3eb554fc 3eb263fa 3eaf7143     (D.>.T.>.c.>Cq.>
 800cc2c:	3eac7cd9 3ea986ba 3ea68f08 3ea395c4     .|.>...>...>...>
 800cc3c:	3ea09aed 3e9d9e84 3e9aa088 3e97a11b     ...>...>...>...>
 800cc4c:	3e94a03c 3e919ded 3e8e9a2c 3e8b94fb     <..>...>,..>...>
 800cc5c:	3e888e9b 3e8586cb 3e827dcc 3e7ee6fb     ...>...>.}.>..~>
 800cc6c:	3e78cfc0 3e72b66b 3e6c9a78 3e667c6c     ..x>k.r>x.l>l|f>
 800cc7c:	3e605c03 3e5a3982 3e5414e8 3e4dee78     .\`>.9Z>..T>x.M>
 800cc8c:	3e47c5ac 3e419b4e 3e3b6ed6 3e354089     ..G>N.A>.n;>.@5>
 800cc9c:	3e2f10aa 3e28def4 3e22abac 3e1c76d1     ../>..(>..">.v.>
 800ccac:	3e164064 3e1008a7 3e09cf9a 3e0394fb     d@.>...>...>...>
 800ccbc:	3dfab29e 3dee38a8 3de1bc12 3dd53dea     ...=.8.=...=.=.=
 800cccc:	3dc8bd30 3dbc3ac9 3dafb67f 3da33087     0..=.:.=...=.0.=
 800ccdc:	3d96a909 3d8a2007 3d7b2b6a 3d62145d     ...=. .=j+{=].b=
 800ccec:	3d48fb36 3d2fe012 3d16c326 3cfb49b8     6.H=../=&..=.I.<
 800ccfc:	3cc90aa0 3c96c9a6 3c490e67 3bc90f7e     ...<...<g.I<~..;
 800cd0c:	250d301c bbc90f7e bc490e67 bc96c9a6     .0.%~...g.I.....
 800cd1c:	bcc90aa0 bcfb49b8 bd16c326 bd2fe012     .....I..&...../.
 800cd2c:	bd48fb36 bd62145d bd7b2b6a bd8a2007     6.H.].b.j+{.. ..
 800cd3c:	bd96a909 bda33087 bdafb67f bdbc3ac9     .....0.......:..
 800cd4c:	bdc8bd30 bdd53dea bde1bc12 bdee38a8     0....=.......8..
 800cd5c:	bdfab29e be0394fb be09cf9a be1008a7     ................
 800cd6c:	be164064 be1c76d1 be22abac be28def4     d@...v...."...(.
 800cd7c:	be2f10aa be354089 be3b6ed6 be419b4e     ../..@5..n;.N.A.
 800cd8c:	be47c5ac be4dee78 be5414e8 be5a3982     ..G.x.M...T..9Z.
 800cd9c:	be605c03 be667c6c be6c9a78 be72b66b     .\`.l|f.x.l.k.r.
 800cdac:	be78cfc0 be7ee6fb be827dcc be8586cb     ..x...~..}......
 800cdbc:	be888e9b be8b94fb be8e9a2c be919ded     ........,.......
 800cdcc:	be94a03c be97a11b be9aa088 be9d9e84     <...............
 800cddc:	bea09aed bea395c4 bea68f08 bea986ba     ................
 800cdec:	beac7cd9 beaf7143 beb263fa beb554fc     .|..Cq...c...T..
 800cdfc:	beb84428 bebb31a1 bebe1d43 bec10710     (D...1..C.......
 800ce0c:	bec3ef07 bec6d528 bec9b952 becc9b84     ....(...R.......
 800ce1c:	becf7bc0 bed25a04 bed53650 bed81062     .{...Z..P6..b...
 800ce2c:	bedae87d beddbe7f bee09247 bee363f5     }.......G....c..
 800ce3c:	bee6336a bee900c5 beebcbc5 beee9468     j3..........h...
 800ce4c:	bef15af3 bef41f00 bef6e0d2 bef9a027     .Z..........'...
 800ce5c:	befc5d20 beff17be bf00e7de bf0242af      ]...........B..
 800ce6c:	bf039c41 bf04f484 bf064b88 bf07a13c     A........K..<...
 800ce7c:	bf08f5a1 bf0a48a6 bf0b9a6b bf0cead1     .....H..k.......
 800ce8c:	bf0e39d6 bf0f878b bf10d3d0 bf121eb4     .9..............
 800ce9c:	bf136827 bf14b03a bf15f6dc bf173c0c     'h..:........<..
 800ceac:	bf187fbb bf19c1f8 bf1b02c5 bf1c420f     .............B..
 800cebc:	bf1d7fd8 bf1ebc0e bf1ff6c2 bf212ff5     ............./!.
 800cecc:	bf226794 bf239da1 bf24d22d bf260503     .g"...#.-.$...&.
 800cedc:	bf273659 bf28660a bf299418 bf2ac083     Y6'..f(...)...*.
 800ceec:	bf2beb4a bf2d146e bf2e3bde bf2f61aa     J.+.n.-..;...a/.
 800cefc:	bf3085c2 bf31a815 bf32c8c5 bf33e7c0     ..0...1...2...3.
 800cf0c:	bf3504f7 bf362068 bf373a26 bf38521e     ..5.h 6.&:7..R8.
 800cf1c:	bf396840 bf3a7c9e bf3b8f36 bf3ca00a     @h9..|:.6.;...<.
 800cf2c:	bf3daef7 bf3ebc1f bf3fc760 bf40d0dd     ..=...>.`.?...@.
 800cf3c:	bf41d873 bf42de22 bf43e1fc bf44e3ef     s.A.".B...C...D.
 800cf4c:	bf45e3fc bf46e222 bf47de61 bf48d8ba     ..E.".F.a.G...H.
 800cf5c:	bf49d10b bf4ac786 bf4bbbf9 bf4cae75     ..I...J...K.u.L.
 800cf6c:	bf4d9f0a bf4e8d97 bf4f7a1c bf5064aa     ..M...N..zO..dP.
 800cf7c:	bf514d40 bf5233ce bf531844 bf53fac2     @MQ..3R.D.S...S.
 800cf8c:	bf54db38 bf55b995 bf5695ea bf577026     8.T...U...V.&pW.
 800cf9c:	bf58485a bf591e64 bf59f267 bf5ac450     ZHX.d.Y.g.Y.P.Z.
 800cfac:	bf5b9421 bf5c61c8 bf5d2d56 bf5df6ba     !.[..a\.V-]...].
 800cfbc:	bf5ebe06 bf5f8327 bf604620 bf6106ee     ..^.'._. F`...a.
 800cfcc:	bf61c593 bf62820e bf633c60 bf63f477     ..a...b.`<c.w.c.
 800cfdc:	bf64aa54 bf655e07 bf660f80 bf66becf     T.d..^e...f...f.
 800cfec:	bf676bd3 bf6816ad bf68bf3c bf696590     .kg...h.<.h..ei.
 800cffc:	bf6a09ab bf6aab7a bf6b4b0e bf6be857     ..j.z.j..Kk.W.k.
 800d00c:	bf6c8366 bf6d1c19 bf6db292 bf6e46bf     f.l...m...m..Fn.
 800d01c:	bf6ed8a1 bf6f6838 bf6ff573 bf708063     ..n.8ho.s.o.c.p.
 800d02c:	bf710907 bf718f50 bf72134d bf7294ff     ..q.P.q.M.r...r.
 800d03c:	bf731444 bf73913f bf740bdd bf74841f     D.s.?.s...t...t.
 800d04c:	bf74fa05 bf756d8f bf75dece bf764d90     ..t..mu...u..Mv.
 800d05c:	bf76ba06 bf772410 bf778bbd bf77f10f     ..v..$w...w...w.
 800d06c:	bf7853f4 bf78b47c bf791299 bf796e48     .Sx.|.x...y.Hny.
 800d07c:	bf79c79b bf7a1e82 bf7a72fc bf7ac519     ..y...z..rz...z.
 800d08c:	bf7b14ba bf7b61fe bf7bacc5 bf7bf530     ..{..a{...{.0.{.
 800d09c:	bf7c3b2e bf7c7eae bf7cbfc2 bf7cfe7a     .;|..~|...|.z.|.
 800d0ac:	bf7d3ab4 bf7d7471 bf7dabd2 bf7de0b5     .:}.qt}...}...}.
 800d0bc:	bf7e132b bf7e4324 bf7e70b0 bf7e9bd0     +.~.$C~..p~...~.
 800d0cc:	bf7ec472 bf7eea96 bf7f0e5e bf7f2f98     r.~...~.^..../..
 800d0dc:	bf7f4e66 bf7f6ac6 bf7f84a9 bf7f9c20     fN...j...... ...
 800d0ec:	bf7fb107 bf7fc393 bf7fd391 bf7fe122     ............"...
 800d0fc:	bf7fec46 bf7ff4ed bf7ffb16 bf7ffec1     F...............
 800d10c:	bf800000 bf7ffec1 bf7ffb16 bf7ff4ed     ................
 800d11c:	bf7fec46 bf7fe122 bf7fd391 bf7fc393     F..."...........
 800d12c:	bf7fb107 bf7f9c20 bf7f84a9 bf7f6ac6     .... ........j..
 800d13c:	bf7f4e66 bf7f2f98 bf7f0e5e bf7eea96     fN.../..^.....~.
 800d14c:	bf7ec472 bf7e9bd0 bf7e70b0 bf7e4324     r.~...~..p~.$C~.
 800d15c:	bf7e132b bf7de0b5 bf7dabd2 bf7d7471     +.~...}...}.qt}.
 800d16c:	bf7d3ab4 bf7cfe7a bf7cbfc2 bf7c7eae     .:}.z.|...|..~|.
 800d17c:	bf7c3b2e bf7bf530 bf7bacc5 bf7b61fe     .;|.0.{...{..a{.
 800d18c:	bf7b14ba bf7ac519 bf7a72fc bf7a1e82     ..{...z..rz...z.
 800d19c:	bf79c79b bf796e48 bf791299 bf78b47c     ..y.Hny...y.|.x.
 800d1ac:	bf7853f4 bf77f10f bf778bbd bf772410     .Sx...w...w..$w.
 800d1bc:	bf76ba06 bf764d90 bf75dece bf756d8f     ..v..Mv...u..mu.
 800d1cc:	bf74fa05 bf74841f bf740bdd bf73913f     ..t...t...t.?.s.
 800d1dc:	bf731444 bf7294ff bf72134d bf718f50     D.s...r.M.r.P.q.
 800d1ec:	bf710907 bf708063 bf6ff573 bf6f6838     ..q.c.p.s.o.8ho.
 800d1fc:	bf6ed8a1 bf6e46bf bf6db292 bf6d1c19     ..n..Fn...m...m.
 800d20c:	bf6c8366 bf6be857 bf6b4b0e bf6aab7a     f.l.W.k..Kk.z.j.
 800d21c:	bf6a09ab bf696590 bf68bf3c bf6816ad     ..j..ei.<.h...h.
 800d22c:	bf676bd3 bf66becf bf660f80 bf655e07     .kg...f...f..^e.
 800d23c:	bf64aa54 bf63f477 bf633c60 bf62820e     T.d.w.c.`<c...b.
 800d24c:	bf61c593 bf6106ee bf604620 bf5f8327     ..a...a. F`.'._.
 800d25c:	bf5ebe06 bf5df6ba bf5d2d56 bf5c61c8     ..^...].V-]..a\.
 800d26c:	bf5b9421 bf5ac450 bf59f267 bf591e64     !.[.P.Z.g.Y.d.Y.
 800d27c:	bf58485a bf577026 bf5695ea bf55b995     ZHX.&pW...V...U.
 800d28c:	bf54db38 bf53fac2 bf531844 bf5233ce     8.T...S.D.S..3R.
 800d29c:	bf514d40 bf5064aa bf4f7a1c bf4e8d97     @MQ..dP..zO...N.
 800d2ac:	bf4d9f0a bf4cae75 bf4bbbf9 bf4ac786     ..M.u.L...K...J.
 800d2bc:	bf49d10b bf48d8ba bf47de61 bf46e222     ..I...H.a.G.".F.
 800d2cc:	bf45e3fc bf44e3ef bf43e1fc bf42de22     ..E...D...C.".B.
 800d2dc:	bf41d873 bf40d0dd bf3fc760 bf3ebc1f     s.A...@.`.?...>.
 800d2ec:	bf3daef7 bf3ca00a bf3b8f36 bf3a7c9e     ..=...<.6.;..|:.
 800d2fc:	bf396840 bf38521e bf373a26 bf362068     @h9..R8.&:7.h 6.
 800d30c:	bf3504f7 bf33e7c0 bf32c8c5 bf31a815     ..5...3...2...1.
 800d31c:	bf3085c2 bf2f61aa bf2e3bde bf2d146e     ..0..a/..;..n.-.
 800d32c:	bf2beb4a bf2ac083 bf299418 bf28660a     J.+...*...)..f(.
 800d33c:	bf273659 bf260503 bf24d22d bf239da1     Y6'...&.-.$...#.
 800d34c:	bf226794 bf212ff5 bf1ff6c2 bf1ebc0e     .g"../!.........
 800d35c:	bf1d7fd8 bf1c420f bf1b02c5 bf19c1f8     .....B..........
 800d36c:	bf187fbb bf173c0c bf15f6dc bf14b03a     .....<......:...
 800d37c:	bf136827 bf121eb4 bf10d3d0 bf0f878b     'h..............
 800d38c:	bf0e39d6 bf0cead1 bf0b9a6b bf0a48a6     .9......k....H..
 800d39c:	bf08f5a1 bf07a13c bf064b88 bf04f484     ....<....K......
 800d3ac:	bf039c41 bf0242af bf00e7de beff17be     A....B..........
 800d3bc:	befc5d20 bef9a027 bef6e0d2 bef41f00      ]..'...........
 800d3cc:	bef15af3 beee9468 beebcbc5 bee900c5     .Z..h...........
 800d3dc:	bee6336a bee363f5 bee09247 beddbe7f     j3...c..G.......
 800d3ec:	bedae87d bed81062 bed53650 bed25a04     }...b...P6...Z..
 800d3fc:	becf7bc0 becc9b84 bec9b952 bec6d528     .{......R...(...
 800d40c:	bec3ef07 bec10710 bebe1d43 bebb31a1     ........C....1..
 800d41c:	beb84428 beb554fc beb263fa beaf7143     (D...T...c..Cq..
 800d42c:	beac7cd9 bea986ba bea68f08 bea395c4     .|..............
 800d43c:	bea09aed be9d9e84 be9aa088 be97a11b     ................
 800d44c:	be94a03c be919ded be8e9a2c be8b94fb     <.......,.......
 800d45c:	be888e9b be8586cb be827dcc be7ee6fb     .........}....~.
 800d46c:	be78cfc0 be72b66b be6c9a78 be667c6c     ..x.k.r.x.l.l|f.
 800d47c:	be605c03 be5a3982 be5414e8 be4dee78     .\`..9Z...T.x.M.
 800d48c:	be47c5ac be419b4e be3b6ed6 be354089     ..G.N.A..n;..@5.
 800d49c:	be2f10aa be28def4 be22abac be1c76d1     ../...(..."..v..
 800d4ac:	be164064 be1008a7 be09cf9a be0394fb     d@..............
 800d4bc:	bdfab29e bdee38a8 bde1bc12 bdd53dea     .....8.......=..
 800d4cc:	bdc8bd30 bdbc3ac9 bdafb67f bda33087     0....:.......0..
 800d4dc:	bd96a909 bd8a2007 bd7b2b6a bd62145d     ..... ..j+{.].b.
 800d4ec:	bd48fb36 bd2fe012 bd16c326 bcfb49b8     6.H.../.&....I..
 800d4fc:	bcc90aa0 bc96c9a6 bc490e67 bbc90f7e     ........g.I.~...
 800d50c:	00000000                                ....

0800d510 <notesFreq.4283>:
 800d510:	41dc0000 41e914f6 41f6f110 4202d013     ...A...A...A...B
 800d520:	420a9760 4212d517 421b9041 4224d054     `..B...BA..BT.$B
 800d530:	422e9d37 4238ff49 4243ff6a 424fa700     7..BI.8Bj.CB..OB
 800d540:	425c0000 426914f6 4276f110 4282d013     ..\B..iB..vB...B
 800d550:	428a9760 4292d517 429b9041 42a4d054     `..B...BA..BT..B
 800d560:	42ae9d37 42b8ff49 42c3ff6a 42cfa700     7..BI..Bj..B...B
 800d570:	42dc0000 42e914f6 42f6f110 4302d013     ...B...B...B...C
 800d580:	430a9760 4312d517 431b9041 4324d054     `..C...CA..CT.$C
 800d590:	432e9d37 4338ff49 4343ff6a 434fa700     7..CI.8Cj.CC..OC
 800d5a0:	435c0000 436914f6 4376f110 4382d013     ..\C..iC..vC...C
 800d5b0:	438a9760 4392d517 439b9041 43a4d054     `..C...CA..CT..C
 800d5c0:	43ae9d37 43b8ff49 43c3ff6a 43cfa700     7..CI..Cj..C...C
 800d5d0:	43dc0000 43e914f6 43f6f110 4402d013     ...C...C...C...D
 800d5e0:	440a9760 4412d517 441b9041 4424d054     `..D...DA..DT.$D
 800d5f0:	442e9d37 4438ff49 4443ff6a 444fa700     7..DI.8Dj.CD..OD
 800d600:	445c0000 446914f6 4476f110 4482d013     ..\D..iD..vD...D
 800d610:	448a9760 4492d517 449b9041 44a4d054     `..D...DA..DT..D
 800d620:	44ae9d37 44b8ff49 44c3ff6a 44cfa700     7..DI..Dj..D...D
 800d630:	44dc0000 44e914f6 44f6f110 4502d013     ...D...D...D...E
 800d640:	450a9760 4512d517 451b9041 4524d054     `..E...EA..ET.$E
 800d650:	452e9d37 4538ff49 4543ff6a 454fa700     7..EI.8Ej.CE..OE
 800d660:	455c0000 456914f6 4576f110 4582d013     ..\E..iE..vE...E
 800d670:	458a9760 4592d517 459b9041 45a4d054     `..E...EA..ET..E
 800d680:	45ae9d37 45b8ff49 45c3ff6a 45cfa700     7..EI..Ej..E...E
 800d690:	45dc0000 45e914f6 45f6f110 4602d013     ...E...E...E...F
 800d6a0:	460a9760 4612d517 461b9041 4624d054     `..F...FA..FT.$F
 800d6b0:	462e9d37 4638ff49 4643ff6a              7..FI.8Fj.CF

0800d6bc <GPIO_CLK.4836>:
 800d6bc:	00000008 00000008 00000008 00000008     ................

0800d6cc <GPIO_PIN>:
 800d6cc:	20001000 80004000                       ... .@..

0800d6d4 <USBH_HCD_INT_fops.4224>:
 800d6d4:	200000a0                                ... 

0800d6d8 <TWO23>:
 800d6d8:	4b000000 cb000000                       ...K....

0800d6e0 <TWO23>:
 800d6e0:	4b000000 cb000000 66776f70 00000000     ...K....powf....

0800d6f0 <dp_h>:
 800d6f0:	00000000 3f15c000                       .......?

0800d6f8 <dp_l>:
 800d6f8:	00000000 35d1cfdc                       .......5

0800d700 <bp>:
 800d700:	3f800000 3fc00000                       ...?...?

0800d708 <npio2_hw>:
 800d708:	3fc90f00 40490f00 4096cb00 40c90f00     ...?..I@...@...@
 800d718:	40fb5300 4116cb00 412fed00 41490f00     .S.@...A../A..IA
 800d728:	41623100 417b5300 418a3a00 4196cb00     .1bA.S{A.:.A...A
 800d738:	41a35c00 41afed00 41bc7e00 41c90f00     .\.A...A.~.A...A
 800d748:	41d5a000 41e23100 41eec200 41fb5300     ...A.1.A...A.S.A
 800d758:	4203f200 420a3a00 42108300 4216cb00     ...B.:.B...B...B
 800d768:	421d1400 42235c00 4229a500 422fed00     ...B.\#B..)B../B
 800d778:	42363600 423c7e00 4242c700 42490f00     .66B.~<B..BB..IB

0800d788 <two_over_pi>:
 800d788:	000000a2 000000f9 00000083 0000006e     ............n...
 800d798:	0000004e 00000044 00000015 00000029     N...D.......)...
 800d7a8:	000000fc 00000027 00000057 000000d1     ....'...W.......
 800d7b8:	000000f5 00000034 000000dd 000000c0     ....4...........
 800d7c8:	000000db 00000062 00000095 00000099     ....b...........
 800d7d8:	0000003c 00000043 00000090 00000041     <...C.......A...
 800d7e8:	000000fe 00000051 00000063 000000ab     ....Q...c.......
 800d7f8:	000000de 000000bb 000000c5 00000061     ............a...
 800d808:	000000b7 00000024 0000006e 0000003a     ....$...n...:...
 800d818:	00000042 0000004d 000000d2 000000e0     B...M...........
 800d828:	00000006 00000049 0000002e 000000ea     ....I...........
 800d838:	00000009 000000d1 00000092 0000001c     ................
 800d848:	000000fe 0000001d 000000eb 0000001c     ................
 800d858:	000000b1 00000029 000000a7 0000003e     ....).......>...
 800d868:	000000e8 00000082 00000035 000000f5     ........5.......
 800d878:	0000002e 000000bb 00000044 00000084     ........D.......
 800d888:	000000e9 0000009c 00000070 00000026     ........p...&...
 800d898:	000000b4 0000005f 0000007e 00000041     ...._...~...A...
 800d8a8:	00000039 00000091 000000d6 00000039     9...........9...
 800d8b8:	00000083 00000053 00000039 000000f4     ....S...9.......
 800d8c8:	0000009c 00000084 0000005f 0000008b     ........_.......
 800d8d8:	000000bd 000000f9 00000028 0000003b     ........(...;...
 800d8e8:	0000001f 000000f8 00000097 000000ff     ................
 800d8f8:	000000de 00000005 00000098 0000000f     ................
 800d908:	000000ef 0000002f 00000011 0000008b     ..../...........
 800d918:	0000005a 0000000a 0000006d 0000001f     Z.......m.......
 800d928:	0000006d 00000036 0000007e 000000cf     m...6...~.......
 800d938:	00000027 000000cb 00000009 000000b7     '...............
 800d948:	0000004f 00000046 0000003f 00000066     O...F...?...f...
 800d958:	0000009e 0000005f 000000ea 0000002d     ...._.......-...
 800d968:	00000075 00000027 000000ba 000000c7     u...'...........
 800d978:	000000eb 000000e5 000000f1 0000007b     ............{...
 800d988:	0000003d 00000007 00000039 000000f7     =.......9.......
 800d998:	0000008a 00000052 00000092 000000ea     ....R...........
 800d9a8:	0000006b 000000fb 0000005f 000000b1     k......._.......
 800d9b8:	0000001f 0000008d 0000005d 00000008     ........].......
 800d9c8:	00000056 00000003 00000030 00000046     V.......0...F...
 800d9d8:	000000fc 0000007b 0000006b 000000ab     ....{...k.......
 800d9e8:	000000f0 000000cf 000000bc 00000020     ............ ...
 800d9f8:	0000009a 000000f4 00000036 0000001d     ........6.......
 800da08:	000000a9 000000e3 00000091 00000061     ............a...
 800da18:	0000005e 000000e6 0000001b 00000008     ^...............
 800da28:	00000065 00000099 00000085 0000005f     e..........._...
 800da38:	00000014 000000a0 00000068 00000040     ........h...@...
 800da48:	0000008d 000000ff 000000d8 00000080     ................
 800da58:	0000004d 00000073 00000027 00000031     M...s...'...1...
 800da68:	00000006 00000006 00000015 00000056     ............V...
 800da78:	000000ca 00000073 000000a8 000000c9     ....s...........
 800da88:	00000060 000000e2 0000007b 000000c0     `.......{.......
 800da98:	0000008c 0000006b                       ....k...

0800daa0 <init_jk>:
 800daa0:	00000004 00000007 00000009              ............

0800daac <PIo2>:
 800daac:	3fc90000 39f00000 37da0000 33a20000     ...?...9...7...3
 800dabc:	2e840000 2b500000 27c20000 22d00000     ......P+...'..."
 800dacc:	1fc40000 1bc60000 17440000              ..........D.

0800dad8 <TWO52>:
 800dad8:	00000000 43300000 00000000 c3300000     ......0C......0.
 800dae8:	00000043                                         C.
